 Hogan004

 Timestamp is 67c629f5 (Tue Mar  4 07:15:17 2025)

 Preferred load address is 0000000140000000

 Start         Length     Name                   Class
 0001:00000000 001b6579H .text                   CODE
 0001:001b6580 00000025H .text$_Z3powB6v15007IdiENSt3__19enable_ifIXaasr3std13is_arithmeticIT_EE5valuesr3std13is_arithmeticIT0_EE5valueENS0_9__promoteIS2_S3_vEEE4type4typeES2_S3_ CODE
 0001:001b65b0 00000018H .text$_Z3absB6v15007d   CODE
 0001:001b65d0 00000019H .text$_ZN5Eigen8symbolic10SymbolExprINS_8internal17symbolic_last_tagEEC1Ev CODE
 0001:001b65f0 00000007H .text$_ZN5Eigen8symbolic10SymbolExprINS_8internal17symbolic_last_tagEEC2Ev CODE
 0001:001b6600 00000044H .text$_ZNK5Eigen8symbolic8BaseExprINS0_10SymbolExprINS_8internal17symbolic_last_tagEEEEplILi1EEENS0_7AddExprIS5_NS0_9ValueExprINS3_8FixedIntIXT_EEEEEEESB_ CODE
 0001:001b6650 00000011H .text$_ZNK5Eigen8internal8FixedIntILi1EEclEv CODE
 0001:001b6670 0000000bH .text$_ZNK5Eigen8symbolic8BaseExprINS0_10SymbolExprINS_8internal17symbolic_last_tagEEEE7derivedEv CODE
 0001:001b6680 00000019H .text$_ZN5Eigen8symbolic9ValueExprINS_8internal8FixedIntILi1EEEEC1Ev CODE
 0001:001b66a0 0000002dH .text$_ZN5Eigen8symbolic7AddExprINS0_10SymbolExprINS_8internal17symbolic_last_tagEEENS0_9ValueExprINS3_8FixedIntILi1EEEEEEC1ERKS5_RKS9_ CODE
 0001:001b66d0 00000007H .text$_ZN5Eigen8symbolic9ValueExprINS_8internal8FixedIntILi1EEEEC2Ev CODE
 0001:001b66e0 00000017H .text$_ZN5Eigen8symbolic7AddExprINS0_10SymbolExprINS_8internal17symbolic_last_tagEEENS0_9ValueExprINS3_8FixedIntILi1EEEEEEC2ERKS5_RKS9_ CODE
 0001:001b6700 00000019H .text$_ZN5Eigen8internal5all_tC1Ev CODE
 0001:001b6720 00000007H .text$_ZN5Eigen8internal5all_tC2Ev CODE
 0001:001b6730 00000088H .text$_ZNSt3__16vectorIN5Eigen7TripletIdiEENS_9allocatorIS3_EEE12emplace_backIJRlS8_RdEEERS3_DpOT_ CODE
 0001:001b67c0 0000001dH .text$_ZNSt3__16vectorIN5Eigen7TripletIdiEENS_9allocatorIS3_EEE9__end_capB6v15007Ev CODE
 0001:001b67e0 000000c0H .text$_ZNSt3__16vectorIN5Eigen7TripletIdiEENS_9allocatorIS3_EEE22__construct_one_at_endB6v15007IJRlS8_RdEEEvDpOT_ CODE
 0001:001b68a0 00000124H .text$_ZNSt3__16vectorIN5Eigen7TripletIdiEENS_9allocatorIS3_EEE24__emplace_back_slow_pathIJRlS8_RdEEEvDpOT_ CODE
 0001:001b69d0 00000013H .text$_ZNSt3__16vectorIN5Eigen7TripletIdiEENS_9allocatorIS3_EEE4backB6v15007Ev CODE
 0001:001b69f0 00000019H .text$_ZNSt3__117__compressed_pairIPN5Eigen7TripletIdiEENS_9allocatorIS3_EEE5firstB6v15007Ev CODE
 0001:001b6a10 0000000bH .text$_ZNSt3__122__compressed_pair_elemIPN5Eigen7TripletIdiEELi0ELb0EE5__getB6v15007Ev CODE
 0001:001b6a20 0000002dH .text$_ZNSt3__16vectorIN5Eigen7TripletIdiEENS_9allocatorIS3_EEE21_ConstructTransactionC1ERS6_y CODE
 0001:001b6a50 00000046H .text$_ZNSt3__116allocator_traitsINS_9allocatorIN5Eigen7TripletIdiEEEEE9constructB6v15007IS4_JRlS8_RdEvEEvRS5_PT_DpOT0_ CODE
 0001:001b6aa0 0000001dH .text$_ZNSt3__16vectorIN5Eigen7TripletIdiEENS_9allocatorIS3_EEE7__allocB6v15007Ev CODE
 0001:001b6ac0 0000000bH .text$_ZNSt3__112__to_addressB6v15007IN5Eigen7TripletIdiEEEEPT_S5_ CODE
 0001:001b6ad0 00000019H .text$_ZNSt3__16vectorIN5Eigen7TripletIdiEENS_9allocatorIS3_EEE21_ConstructTransactionD1Ev CODE
 0001:001b6af0 00000049H .text$_ZNSt3__16vectorIN5Eigen7TripletIdiEENS_9allocatorIS3_EEE21_ConstructTransactionC2ERS6_y CODE
 0001:001b6b40 00000052H .text$_ZNSt3__19allocatorIN5Eigen7TripletIdiEEE9constructB6v15007IS3_JRlS6_RdEEEvPT_DpOT0_ CODE
 0001:001b6ba0 00000037H .text$_ZN5Eigen7TripletIdiEC1ERKiS3_RKd CODE
 0001:001b6be0 00000041H .text$_ZN5Eigen7TripletIdiEC2ERKiS3_RKd CODE
 0001:001b6c30 00000019H .text$_ZNSt3__117__compressed_pairIPN5Eigen7TripletIdiEENS_9allocatorIS3_EEE6secondB6v15007Ev CODE
 0001:001b6c50 0000000bH .text$_ZNSt3__122__compressed_pair_elemINS_9allocatorIN5Eigen7TripletIdiEEEELi1ELb1EE5__getB6v15007Ev CODE
 0001:001b6c60 00000016H .text$_ZNSt3__16vectorIN5Eigen7TripletIdiEENS_9allocatorIS3_EEE21_ConstructTransactionD2Ev CODE
 0001:001b6c80 000000a0H .text$_ZNKSt3__16vectorIN5Eigen7TripletIdiEENS_9allocatorIS3_EEE11__recommendB6v15007Ey CODE
 0001:001b6d20 00000019H .text$_ZNKSt3__16vectorIN5Eigen7TripletIdiEENS_9allocatorIS3_EEE4sizeB6v15007Ev CODE
 0001:001b6d40 00000037H .text$_ZNSt3__114__split_bufferIN5Eigen7TripletIdiEERNS_9allocatorIS3_EEEC1EyyS6_ CODE
 0001:001b6d80 0000014cH .text$_ZNSt3__16vectorIN5Eigen7TripletIdiEENS_9allocatorIS3_EEE26__swap_out_circular_bufferERNS_14__split_bufferIS3_RS5_EE CODE
 0001:001b6ed0 00000019H .text$_ZNSt3__114__split_bufferIN5Eigen7TripletIdiEERNS_9allocatorIS3_EEED1Ev CODE
 0001:001b6ef0 00000059H .text$_ZNKSt3__16vectorIN5Eigen7TripletIdiEENS_9allocatorIS3_EEE8max_sizeEv CODE
 0001:001b6f50 00000016H .text$_ZNKSt3__16vectorIN5Eigen7TripletIdiEENS_9allocatorIS3_EEE20__throw_length_errorB6v15007Ev CODE
 0001:001b6f70 0000002fH .text$_ZNKSt3__16vectorIN5Eigen7TripletIdiEENS_9allocatorIS3_EEE8capacityB6v15007Ev CODE
 0001:001b6fa0 00000028H .text$_ZNSt3__13maxB6v15007IyEERKT_S3_S3_ CODE
 0001:001b6fd0 00000028H .text$_ZNSt3__13minB6v15007IyEERKT_S3_S3_ CODE
 0001:001b7000 00000019H .text$_ZNSt3__116allocator_traitsINS_9allocatorIN5Eigen7TripletIdiEEEEE8max_sizeB6v15007IS5_vEEyRKS5_ CODE
 0001:001b7020 0000001dH .text$_ZNKSt3__16vectorIN5Eigen7TripletIdiEENS_9allocatorIS3_EEE7__allocB6v15007Ev CODE
 0001:001b7040 0000000fH .text$_ZNSt3__114numeric_limitsIxE3maxB6v15007Ev CODE
 0001:001b7050 0000000eH .text$__clang_call_terminate CODE
 0001:001b7060 00000057H .text$_ZNSt3__13minB6v15007IyNS_6__lessIyyEEEERKT_S5_S5_T0_ CODE
 0001:001b70c0 0000002eH .text$_ZNKSt3__16__lessIyyEclB6v15007ERKyS3_ CODE
 0001:001b70f0 00000011H .text$_ZNKSt3__19allocatorIN5Eigen7TripletIdiEEE8max_sizeB6v15007Ev CODE
 0001:001b7110 00000019H .text$_ZNKSt3__117__compressed_pairIPN5Eigen7TripletIdiEENS_9allocatorIS3_EEE6secondB6v15007Ev CODE
 0001:001b7130 0000000bH .text$_ZNKSt3__122__compressed_pair_elemINS_9allocatorIN5Eigen7TripletIdiEEEELi1ELb1EE5__getB6v15007Ev CODE
 0001:001b7140 0000000bH .text$_ZNSt3__123__libcpp_numeric_limitsIxLb1EE3maxB6v15007Ev CODE
 0001:001b7150 00000070H .text$_ZNSt3__120__throw_length_errorB6v15007EPKc CODE
 0001:001b71c0 00000023H .text$_ZNSt12length_errorC1B6v15007EPKc CODE
 0001:001b71f0 0000003aH .text$_ZNSt12length_errorC2B6v15007EPKc CODE
 0001:001b7230 0000001dH .text$_ZNKSt3__16vectorIN5Eigen7TripletIdiEENS_9allocatorIS3_EEE9__end_capB6v15007Ev CODE
 0001:001b7250 00000019H .text$_ZNKSt3__117__compressed_pairIPN5Eigen7TripletIdiEENS_9allocatorIS3_EEE5firstB6v15007Ev CODE
 0001:001b7270 0000000bH .text$_ZNKSt3__122__compressed_pair_elemIPN5Eigen7TripletIdiEELi0ELb0EE5__getB6v15007Ev CODE
 0001:001b7280 00000057H .text$_ZNSt3__13maxB6v15007IyNS_6__lessIyyEEEERKT_S5_S5_T0_ CODE
 0001:001b72e0 000000d0H .text$_ZNSt3__114__split_bufferIN5Eigen7TripletIdiEERNS_9allocatorIS3_EEEC2EyyS6_ CODE
 0001:001b73b0 0000002dH .text$_ZNSt3__117__compressed_pairIPN5Eigen7TripletIdiEERNS_9allocatorIS3_EEEC1B6v15007IDnS7_EEOT_OT0_ CODE
 0001:001b73e0 0000004dH .text$_ZNSt3__119__allocate_at_leastB6v15007INS_9allocatorIN5Eigen7TripletIdiEEEEEENS_19__allocation_resultINS_16allocator_traitsIT_E7pointerEEERS8_y CODE
 0001:001b7430 0000001dH .text$_ZNSt3__114__split_bufferIN5Eigen7TripletIdiEERNS_9allocatorIS3_EEE7__allocB6v15007Ev CODE
 0001:001b7450 0000001dH .text$_ZNSt3__114__split_bufferIN5Eigen7TripletIdiEERNS_9allocatorIS3_EEE9__end_capB6v15007Ev CODE
 0001:001b7470 00000040H .text$_ZNSt3__117__compressed_pairIPN5Eigen7TripletIdiEERNS_9allocatorIS3_EEEC2B6v15007IDnS7_EEOT_OT0_ CODE
 0001:001b74b0 0000001eH .text$_ZNSt3__122__compressed_pair_elemIPN5Eigen7TripletIdiEELi0ELb0EEC2B6v15007IDnvEEOT_ CODE
 0001:001b74d0 0000001eH .text$_ZNSt3__122__compressed_pair_elemIRNS_9allocatorIN5Eigen7TripletIdiEEEELi1ELb0EEC2B6v15007IS6_vEEOT_ CODE
 0001:001b74f0 00000051H .text$_ZNSt3__19allocatorIN5Eigen7TripletIdiEEE8allocateB6v15007Ey CODE
 0001:001b7550 00000034H .text$_ZSt28__throw_bad_array_new_lengthB6v15007v CODE
 0001:001b7590 00000061H .text$_ZNSt3__117__libcpp_allocateB6v15007Eyy CODE
 0001:001b7600 00000014H .text$_ZNSt3__124__is_overaligned_for_newB6v15007Ey CODE
 0001:001b7620 00000023H .text$_ZNSt3__121__libcpp_operator_newB6v15007IJySt11align_val_tEEEPvDpT_ CODE
 0001:001b7650 00000019H .text$_ZNSt3__121__libcpp_operator_newB6v15007IJyEEEPvDpT_ CODE
 0001:001b7670 0000001dH .text$_ZNSt3__117__compressed_pairIPN5Eigen7TripletIdiEERNS_9allocatorIS3_EEE6secondB6v15007Ev CODE
 0001:001b7690 0000000eH .text$_ZNSt3__122__compressed_pair_elemIRNS_9allocatorIN5Eigen7TripletIdiEEEELi1ELb0EE5__getB6v15007Ev CODE
 0001:001b76a0 00000019H .text$_ZNSt3__117__compressed_pairIPN5Eigen7TripletIdiEERNS_9allocatorIS3_EEE5firstB6v15007Ev CODE
 0001:001b76c0 000000c3H .text$_ZNKSt3__16vectorIN5Eigen7TripletIdiEENS_9allocatorIS3_EEE17__annotate_deleteB6v15007Ev CODE
 0001:001b7790 0000006fH .text$_ZNSt3__142__uninitialized_allocator_move_if_noexceptB6v15007INS_9allocatorIN5Eigen7TripletIdiEEEENS_16reverse_iteratorIPS4_EES8_S4_vEET1_RT_T0_SC_S9_ CODE
 0001:001b7800 00000023H .text$_ZNSt3__116reverse_iteratorIPN5Eigen7TripletIdiEEEC1B6v15007ES4_ CODE
 0001:001b7830 0000000fH .text$_ZNKSt3__116reverse_iteratorIPN5Eigen7TripletIdiEEE4baseB6v15007Ev CODE
 0001:001b7840 0000003bH .text$_ZNSt3__14swapB6v15007IPN5Eigen7TripletIdiEEEENS_9enable_ifIXaasr21is_move_constructibleIT_EE5valuesr18is_move_assignableIS6_EE5valueEvE4typeERS6_S9_ CODE
 0001:001b7880 000000b6H .text$_ZNKSt3__16vectorIN5Eigen7TripletIdiEENS_9allocatorIS3_EEE14__annotate_newB6v15007Ey CODE
 0001:001b7940 00000007H .text$_ZNSt3__125__debug_db_invalidate_allB6v15007INS_6vectorIN5Eigen7TripletIdiEENS_9allocatorIS4_EEEEEEvPT_ CODE
 0001:001b7950 00000021H .text$_ZNKSt3__16vectorIN5Eigen7TripletIdiEENS_9allocatorIS3_EEE31__annotate_contiguous_containerB6v15007EPKvS8_S8_S8_ CODE
 0001:001b7980 0000001cH .text$_ZNKSt3__16vectorIN5Eigen7TripletIdiEENS_9allocatorIS3_EEE4dataB6v15007Ev CODE
 0001:001b79a0 0000008bH .text$_ZNSt3__14moveB6v15007INS_16reverse_iteratorIPN5Eigen7TripletIdiEEEES6_EET0_T_S8_S7_ CODE
 0001:001b7a30 0000019fH .text$_ZNSt3__16__moveB6v15007INS_17_ClassicAlgPolicyENS_16reverse_iteratorIPN5Eigen7TripletIdiEEEES7_S7_EENS_9enable_ifIXaaaasr21is_copy_constructibleIT0_EE5valuesr21is_copy_constructibleIT1_EE5valuesr21is_copy_constructibleIT2_EE5valueENS_4pairIS9_SB_EEE4typeES9_SA_SB_ CODE
 0001:001b7bd0 0000010aH .text$_ZNSt3__111__move_implB6v15007INS_17_ClassicAlgPolicyEPN5Eigen7TripletIdiEES5_Li0EEENS_4pairINS_16reverse_iteratorIT0_EENS7_IT1_EEEES9_S9_SB_ CODE
 0001:001b7ce0 00000036H .text$_ZNSt3__113__unwrap_iterB6v15007INS_16reverse_iteratorIPN5Eigen7TripletIdiEEEENS_18__unwrap_iter_implIS6_Lb0EEELi0EEEDTclsrT0_8__unwrapclsr3stdE7declvalIT_EEEESA_ CODE
 0001:001b7d20 00000034H .text$_ZNSt3__19make_pairB6v15007INS_16reverse_iteratorIPN5Eigen7TripletIdiEEEES6_EENS_4pairINS_18__unwrap_ref_decayIT_E4typeENS8_IT0_E4typeEEEOS9_OSC_ CODE
 0001:001b7d60 00000049H .text$_ZNSt3__113__rewrap_iterB6v15007INS_16reverse_iteratorIPN5Eigen7TripletIdiEEEES6_NS_18__unwrap_iter_implIS6_Lb0EEEEET_S9_T0_ CODE
 0001:001b7db0 00000019H .text$_ZNSt3__113__unwrap_iterB6v15007IPN5Eigen7TripletIdiEENS_18__unwrap_iter_implIS4_Lb1EEELi0EEEDTclsrT0_8__unwrapclsr3stdE7declvalIT_EEEES8_ CODE
 0001:001b7dd0 0000009dH .text$_ZNSt3__111__move_implB6v15007INS_17_ClassicAlgPolicyEN5Eigen7TripletIdiEES4_vEENS_4pairIPT0_PT1_EES7_S7_S9_ CODE
 0001:001b7e70 00000034H .text$_ZNSt3__19make_pairB6v15007IRNS_16reverse_iteratorIPN5Eigen7TripletIdiEEEES6_EENS_4pairINS_18__unwrap_ref_decayIT_E4typeENS9_IT0_E4typeEEEOSA_OSD_ CODE
 0001:001b7eb0 0000003aH .text$_ZNSt3__113__rewrap_iterB6v15007IPN5Eigen7TripletIdiEES4_NS_18__unwrap_iter_implIS4_Lb1EEEEET_S7_T0_ CODE
 0001:001b7ef0 00000019H .text$_ZNSt3__118__unwrap_iter_implIPN5Eigen7TripletIdiEELb1EE8__unwrapB6v15007ES4_ CODE
 0001:001b7f10 00000034H .text$_ZNSt3__19make_pairB6v15007IPN5Eigen7TripletIdiEES4_EENS_4pairINS_18__unwrap_ref_decayIT_E4typeENS6_IT0_E4typeEEEOS7_OSA_ CODE
 0001:001b7f50 0000002dH .text$_ZNSt3__14pairIPN5Eigen7TripletIdiEES4_EC1B6v15007IS4_S4_LPv0EEEOT_OT0_ CODE
 0001:001b7f80 00000032H .text$_ZNSt3__14pairIPN5Eigen7TripletIdiEES4_EC2B6v15007IS4_S4_LPv0EEEOT_OT0_ CODE
 0001:001b7fc0 0000002dH .text$_ZNSt3__14pairINS_16reverse_iteratorIPN5Eigen7TripletIdiEEEES6_EC1B6v15007IRS6_S6_LPv0EEEOT_OT0_ CODE
 0001:001b7ff0 00000042H .text$_ZNSt3__14pairINS_16reverse_iteratorIPN5Eigen7TripletIdiEEEES6_EC2B6v15007IRS6_S6_LPv0EEEOT_OT0_ CODE
 0001:001b8040 0000004cH .text$_ZNSt3__118__unwrap_iter_implIPN5Eigen7TripletIdiEELb1EE8__rewrapB6v15007ES4_S4_ CODE
 0001:001b8090 00000018H .text$_ZNSt3__118__unwrap_iter_implINS_16reverse_iteratorIPN5Eigen7TripletIdiEEEELb0EE8__unwrapB6v15007ES6_ CODE
 0001:001b80b0 0000002dH .text$_ZNSt3__14pairINS_16reverse_iteratorIPN5Eigen7TripletIdiEEEES6_EC1B6v15007IS6_S6_LPv0EEEOT_OT0_ CODE
 0001:001b80e0 00000042H .text$_ZNSt3__14pairINS_16reverse_iteratorIPN5Eigen7TripletIdiEEEES6_EC2B6v15007IS6_S6_LPv0EEEOT_OT0_ CODE
 0001:001b8130 00000018H .text$_ZNSt3__118__unwrap_iter_implINS_16reverse_iteratorIPN5Eigen7TripletIdiEEEELb0EE8__rewrapB6v15007ES6_S6_ CODE
 0001:001b8150 00000026H .text$_ZNSt3__116reverse_iteratorIPN5Eigen7TripletIdiEEEC2B6v15007ES4_ CODE
 0001:001b8180 00000075H .text$_ZNSt3__114__split_bufferIN5Eigen7TripletIdiEERNS_9allocatorIS3_EEED2Ev CODE
 0001:001b8200 0000001dH .text$_ZNSt3__114__split_bufferIN5Eigen7TripletIdiEERNS_9allocatorIS3_EEE5clearB6v15007Ev CODE
 0001:001b8220 0000002dH .text$_ZNSt3__116allocator_traitsINS_9allocatorIN5Eigen7TripletIdiEEEEE10deallocateB6v15007ERS5_PS4_y CODE
 0001:001b8250 0000002fH .text$_ZNKSt3__114__split_bufferIN5Eigen7TripletIdiEERNS_9allocatorIS3_EEE8capacityB6v15007Ev CODE
 0001:001b8280 00000028H .text$_ZNSt3__114__split_bufferIN5Eigen7TripletIdiEERNS_9allocatorIS3_EEE17__destruct_at_endB6v15007EPS3_ CODE
 0001:001b82b0 0000007eH .text$_ZNSt3__114__split_bufferIN5Eigen7TripletIdiEERNS_9allocatorIS3_EEE17__destruct_at_endB6v15007EPS3_NS_17integral_constantIbLb0EEE CODE
 0001:001b8330 00000023H .text$_ZNSt3__116allocator_traitsINS_9allocatorIN5Eigen7TripletIdiEEEEE7destroyB6v15007IS4_vEEvRS5_PT_ CODE
 0001:001b8360 00000012H .text$_ZNSt3__19allocatorIN5Eigen7TripletIdiEEE7destroyB6v15007EPS3_ CODE
 0001:001b8380 0000003fH .text$_ZNSt3__19allocatorIN5Eigen7TripletIdiEEE10deallocateB6v15007EPS3_y CODE
 0001:001b83c0 00000062H .text$_ZNSt3__119__libcpp_deallocateB6v15007EPvyy CODE
 0001:001b8430 00000028H .text$_ZNSt3__127__do_deallocate_handle_sizeB6v15007IJSt11align_val_tEEEvPvyDpT_ CODE
 0001:001b8460 0000001eH .text$_ZNSt3__127__do_deallocate_handle_sizeB6v15007IJEEEvPvyDpT_ CODE
 0001:001b8480 00000023H .text$_ZNSt3__124__libcpp_operator_deleteB6v15007IJPvSt11align_val_tEEEvDpT_ CODE
 0001:001b84b0 00000019H .text$_ZNSt3__124__libcpp_operator_deleteB6v15007IJPvEEEvDpT_ CODE
 0001:001b84d0 0000001dH .text$_ZNKSt3__114__split_bufferIN5Eigen7TripletIdiEERNS_9allocatorIS3_EEE9__end_capB6v15007Ev CODE
 0001:001b84f0 00000019H .text$_ZNKSt3__117__compressed_pairIPN5Eigen7TripletIdiEERNS_9allocatorIS3_EEE5firstB6v15007Ev CODE
 0001:001b8510 00000088H .text$_ZNSt3__16vectorIN5Eigen7TripletIdiEENS_9allocatorIS3_EEE12emplace_backIJRlS8_dEEERS3_DpOT_ CODE
 0001:001b85a0 000000c0H .text$_ZNSt3__16vectorIN5Eigen7TripletIdiEENS_9allocatorIS3_EEE22__construct_one_at_endB6v15007IJRlS8_dEEEvDpOT_ CODE
 0001:001b8660 00000124H .text$_ZNSt3__16vectorIN5Eigen7TripletIdiEENS_9allocatorIS3_EEE24__emplace_back_slow_pathIJRlS8_dEEEvDpOT_ CODE
 0001:001b8790 00000046H .text$_ZNSt3__116allocator_traitsINS_9allocatorIN5Eigen7TripletIdiEEEEE9constructB6v15007IS4_JRlS8_dEvEEvRS5_PT_DpOT0_ CODE
 0001:001b87e0 00000052H .text$_ZNSt3__19allocatorIN5Eigen7TripletIdiEEE9constructB6v15007IS3_JRlS6_dEEEvPT_DpOT0_ CODE
 0001:001b8840 00000023H .text$_Z6strstrB6v15007Ua9enable_ifILb1EEPcPKc CODE
 0001:001b8870 00000023H .text$_Z15__libcpp_strstrB6v15007PKcS0_ CODE
 0001:001b88a0 00000021H .text$_Z7strrchrB6v15007Ua9enable_ifILb1EEPci CODE
 0001:001b88d0 0000001dH .text$_ZN5Eigen12setNbThreadsEi CODE
 0001:001b88f0 00000019H .text$_ZNSt3__16vectorIN5Eigen7TripletIdiEENS_9allocatorIS3_EEEC1B6v15007Ev CODE
 0001:001b8910 0000002dH .text$_ZN5Eigen12SparseMatrixIdLi1EiEC1Exx CODE
 0001:001b8940 00000019H .text$_ZN5Eigen8BiCGSTABINS_12SparseMatrixIdLi0EiEENS_13IncompleteLUTIdiEEEC1Ev CODE
 0001:001b8960 0000002fH .text$_ZN5Eigen19IterativeSolverBaseINS_8BiCGSTABINS_12SparseMatrixIdLi0EiEENS_13IncompleteLUTIdiEEEEE12setToleranceERKd CODE
 0001:001b8990 0000002aH .text$_ZN5Eigen19IterativeSolverBaseINS_8BiCGSTABINS_12SparseMatrixIdLi0EiEENS_13IncompleteLUTIdiEEEEE16setMaxIterationsEx CODE
 0001:001b89c0 00000057H .text$_ZN5Eigen12SparseMatrixIdLi1EiE7reserveEx CODE
 0001:001b8a20 0000005aH .text$_ZN5Eigen12SparseMatrixIdLi1EiE15setFromTripletsINSt3__111__wrap_iterIPNS_7TripletIdiEEEEEEvRKT_SB_ CODE
 0001:001b8a80 00000025H .text$_ZNSt3__16vectorIN5Eigen7TripletIdiEENS_9allocatorIS3_EEE5beginB6v15007Ev CODE
 0001:001b8ab0 00000026H .text$_ZNSt3__16vectorIN5Eigen7TripletIdiEENS_9allocatorIS3_EEE3endB6v15007Ev CODE
 0001:001b8ae0 0000008cH .text$_ZN5Eigen19IterativeSolverBaseINS_8BiCGSTABINS_12SparseMatrixIdLi0EiEENS_13IncompleteLUTIdiEEEEE7computeINS2_IdLi1EiEEEERS6_RKNS_9EigenBaseIT_EE CODE
 0001:001b8b70 00000045H .text$_ZNK5Eigen19IterativeSolverBaseINS_8BiCGSTABINS_12SparseMatrixIdLi0EiEENS_13IncompleteLUTIdiEEEEE4infoEv CODE
 0001:001b8bc0 00000038H .text$_ZN5Eigen9DenseBaseINS_6MatrixIdLin1ELi1ELi0ELin1ELi1EEEE4ZeroEx CODE
 0001:001b8c00 00000023H .text$_ZN5Eigen6MatrixIdLin1ELi1ELi0ELin1ELi1EEC1INS_14CwiseNullaryOpINS_8internal18scalar_constant_opIdEES1_EEEERKNS_9EigenBaseIT_EE CODE
 0001:001b8c30 00000077H .text$_ZN5Eigen15DenseCoeffsBaseINS_6MatrixIdLin1ELi1ELi0ELin1ELi1EEELi1EEclEx CODE
 0001:001b8cb0 000000ccH .text$_ZNK5Eigen16SparseSolverBaseINS_8BiCGSTABINS_12SparseMatrixIdLi0EiEENS_13IncompleteLUTIdiEEEEE5solveINS_6MatrixIdLin1ELi1ELi0ELin1ELi1EEEEEKNS_5SolveIS6_T_EERKNS_10MatrixBaseISC_EE CODE
 0001:001b8d80 00000023H .text$_ZN5Eigen6MatrixIdLin1ELi1ELi0ELin1ELi1EEC1INS_5SolveINS_8BiCGSTABINS_12SparseMatrixIdLi0EiEENS_13IncompleteLUTIdiEEEES1_EEEERKNS_9EigenBaseIT_EE CODE
 0001:001b8db0 00000019H .text$_ZN5Eigen6MatrixIdLin1ELi1ELi0ELin1ELi1EED1Ev CODE
 0001:001b8dd0 0000001fH .text$_Z8isfiniteB6v15007IdENSt3__19enable_ifIXaasr3std13is_arithmeticIT_EE5valuesr3std14numeric_limitsIS2_EE12has_infinityEbE4typeES2_ CODE
 0001:001b8df0 00000019H .text$_ZN5Eigen8BiCGSTABINS_12SparseMatrixIdLi0EiEENS_13IncompleteLUTIdiEEED1Ev CODE
 0001:001b8e10 00000019H .text$_ZN5Eigen12SparseMatrixIdLi1EiED1Ev CODE
 0001:001b8e30 00000019H .text$_ZNSt3__16vectorIN5Eigen7TripletIdiEENS_9allocatorIS3_EEED1B6v15007Ev CODE
 0001:001b8e50 00000021H .text$_Z16__libcpp_strrchrB6v15007PKci CODE
 0001:001b8e80 00000082H .text$_ZN5Eigen8internal22manage_multi_threadingENS_6ActionEPi CODE
 0001:001b8f10 00000007H .text$_ZN5Eigen8internal22ignore_unused_variableIiEEvRKT_ CODE
 0001:001b8f20 00000060H .text$_ZNSt3__16vectorIN5Eigen7TripletIdiEENS_9allocatorIS3_EEEC2B6v15007Ev CODE
 0001:001b8f80 0000002dH .text$_ZNSt3__117__compressed_pairIPN5Eigen7TripletIdiEENS_9allocatorIS3_EEEC1B6v15007IDnNS_18__default_init_tagEEEOT_OT0_ CODE
 0001:001b8fb0 00000007H .text$_ZNSt3__119__debug_db_insert_cB6v15007INS_6vectorIN5Eigen7TripletIdiEENS_9allocatorIS4_EEEEEEvPT_ CODE
 0001:001b8fc0 0000003bH .text$_ZNSt3__117__compressed_pairIPN5Eigen7TripletIdiEENS_9allocatorIS3_EEEC2B6v15007IDnNS_18__default_init_tagEEEOT_OT0_ CODE
 0001:001b9000 0000001dH .text$_ZNSt3__122__compressed_pair_elemINS_9allocatorIN5Eigen7TripletIdiEEEELi1ELb1EEC2B6v15007ENS_18__default_init_tagE CODE
 0001:001b9020 00000019H .text$_ZNSt3__19allocatorIN5Eigen7TripletIdiEEEC2B6v15007Ev CODE
 0001:001b9040 00000007H .text$_ZNSt3__116__non_trivial_ifILb1ENS_9allocatorIN5Eigen7TripletIdiEEEEEC2B6v15007Ev CODE
 0001:001b9050 000000a8H .text$_ZN5Eigen12SparseMatrixIdLi1EiEC2Exx CODE
 0001:001b9100 00000019H .text$_ZN5Eigen20SparseCompressedBaseINS_12SparseMatrixIdLi1EiEEEC2Ev CODE
 0001:001b9120 00000019H .text$_ZN5Eigen8internal17CompressedStorageIdiEC1Ev CODE
 0001:001b9140 00000001H .text$_ZN5Eigen12SparseMatrixIdLi1EiE25check_template_parametersEv CODE
 0001:001b9150 000000f4H .text$_ZN5Eigen12SparseMatrixIdLi1EiE6resizeExx CODE
 0001:001b9250 00000019H .text$_ZN5Eigen8internal17CompressedStorageIdiED1Ev CODE
 0001:001b9270 0000000eH .text$_ZN5Eigen16SparseMatrixBaseINS_12SparseMatrixIdLi1EiEEEC2Ev CODE
 0001:001b9280 0000002aH .text$_ZN5Eigen8internal17CompressedStorageIdiEC2Ev CODE
 0001:001b92b0 00000013H .text$_ZN5Eigen8internal17CompressedStorageIdiE5clearEv CODE
 0001:001b92d0 00000034H .text$_ZN5Eigen8internal19throw_std_bad_allocEv CODE
 0001:001b9310 00000057H .text$_ZN5Eigen8internal17CompressedStorageIdiED2Ev CODE
 0001:001b9370 00000019H .text$_ZN5Eigen8BiCGSTABINS_12SparseMatrixIdLi0EiEENS_13IncompleteLUTIdiEEEC2Ev CODE
 0001:001b9390 000000c4H .text$_ZN5Eigen19IterativeSolverBaseINS_8BiCGSTABINS_12SparseMatrixIdLi0EiEENS_13IncompleteLUTIdiEEEEEC2Ev CODE
 0001:001b9460 00000025H .text$_ZN5Eigen16SparseSolverBaseINS_8BiCGSTABINS_12SparseMatrixIdLi0EiEENS_13IncompleteLUTIdiEEEEEC2Ev CODE
 0001:001b9490 00000019H .text$_ZN5Eigen8internal22generic_matrix_wrapperINS_12SparseMatrixIdLi0EiEELb0EEC1Ev CODE
 0001:001b94b0 00000019H .text$_ZN5Eigen13IncompleteLUTIdiEC1Ev CODE
 0001:001b94d0 00000046H .text$_ZN5Eigen19IterativeSolverBaseINS_8BiCGSTABINS_12SparseMatrixIdLi0EiEENS_13IncompleteLUTIdiEEEEE4initEv CODE
 0001:001b9520 00000019H .text$_ZN5Eigen13IncompleteLUTIdiED1Ev CODE
 0001:001b9540 00000019H .text$_ZN5Eigen8internal22generic_matrix_wrapperINS_12SparseMatrixIdLi0EiEELb0EED1Ev CODE
 0001:001b9560 00000019H .text$_ZN5Eigen16SparseSolverBaseINS_8BiCGSTABINS_12SparseMatrixIdLi0EiEENS_13IncompleteLUTIdiEEEEED2Ev CODE
 0001:001b9580 00000007H .text$_ZN5Eigen8internal11noncopyableC2Ev CODE
 0001:001b9590 00000066H .text$_ZN5Eigen8internal22generic_matrix_wrapperINS_12SparseMatrixIdLi0EiEELb0EEC2Ev CODE
 0001:001b9600 0000002dH .text$_ZN5Eigen12SparseMatrixIdLi0EiEC1Exx CODE
 0001:001b9630 00000023H .text$_ZN5Eigen3RefIKNS_12SparseMatrixIdLi0EiEELi0ENS_11OuterStrideILin1EEEEC1IS2_EERKNS_16SparseMatrixBaseIT_EE CODE
 0001:001b9660 00000019H .text$_ZN5Eigen12SparseMatrixIdLi0EiED1Ev CODE
 0001:001b9680 000000a8H .text$_ZN5Eigen12SparseMatrixIdLi0EiEC2Exx CODE
 0001:001b9730 00000019H .text$_ZN5Eigen20SparseCompressedBaseINS_12SparseMatrixIdLi0EiEEEC2Ev CODE
 0001:001b9750 00000001H .text$_ZN5Eigen12SparseMatrixIdLi0EiE25check_template_parametersEv CODE
 0001:001b9760 000000f4H .text$_ZN5Eigen12SparseMatrixIdLi0EiE6resizeExx CODE
 0001:001b9860 0000000eH .text$_ZN5Eigen16SparseMatrixBaseINS_12SparseMatrixIdLi0EiEEEC2Ev CODE
 0001:001b9870 00000086H .text$_ZN5Eigen3RefIKNS_12SparseMatrixIdLi0EiEELi0ENS_11OuterStrideILin1EEEEC2IS2_EERKNS_16SparseMatrixBaseIT_EE CODE
 0001:001b9900 00000048H .text$_ZN5Eigen8internal13SparseRefBaseINS_3RefIKNS_12SparseMatrixIdLi0EiEELi0ENS_11OuterStrideILin1EEEEEEC2Ev CODE
 0001:001b9950 00000028H .text$_ZN5Eigen3RefIKNS_12SparseMatrixIdLi0EiEELi0ENS_11OuterStrideILin1EEEE9constructIS2_EEvRKT_NS_8internal9true_typeE CODE
 0001:001b9980 0000000bH .text$_ZNK5Eigen16SparseMatrixBaseINS_12SparseMatrixIdLi0EiEEE7derivedEv CODE
 0001:001b9990 00000019H .text$_ZN5Eigen8internal13SparseRefBaseINS_3RefIKNS_12SparseMatrixIdLi0EiEELi0ENS_11OuterStrideILin1EEEEEED2Ev CODE
 0001:001b99b0 000000cbH .text$_ZN5Eigen13SparseMapBaseINS_3RefIKNS_12SparseMatrixIdLi0EiEELi0ENS_11OuterStrideILin1EEEEELi0EEC2ExxxPKiSA_PKdSA_ CODE
 0001:001b9a80 00000019H .text$_ZN5Eigen20SparseCompressedBaseINS_3RefIKNS_12SparseMatrixIdLi0EiEELi0ENS_11OuterStrideILin1EEEEEEC2Ev CODE
 0001:001b9aa0 0000000eH .text$_ZN5Eigen8internal13convert_indexIixEET_RKT0_ CODE
 0001:001b9ab0 0000002dH .text$_ZN5Eigen5ArrayIiLi2ELi1ELi0ELi2ELi1EEC1IiiEERKT_RKT0_ CODE
 0001:001b9ae0 0000000eH .text$_ZN5Eigen16SparseMatrixBaseINS_3RefIKNS_12SparseMatrixIdLi0EiEELi0ENS_11OuterStrideILin1EEEEEEC2Ev CODE
 0001:001b9af0 00000046H .text$_ZN5Eigen5ArrayIiLi2ELi1ELi0ELi2ELi1EEC2IiiEERKT_RKT0_ CODE
 0001:001b9b40 00000028H .text$_ZN5Eigen15PlainObjectBaseINS_5ArrayIiLi2ELi1ELi0ELi2ELi1EEEEC2Ev CODE
 0001:001b9b70 00000001H .text$_ZN5Eigen15PlainObjectBaseINS_5ArrayIiLi2ELi1ELi0ELi2ELi1EEEE22_check_template_paramsEv CODE
 0001:001b9b80 00000059H .text$_ZN5Eigen15PlainObjectBaseINS_5ArrayIiLi2ELi1ELi0ELi2ELi1EEEE6_init2IiiEEvRKT_RKT0_PNS_8internal9enable_ifILb1ES5_E4typeE CODE
 0001:001b9be0 00000019H .text$_ZN5Eigen9ArrayBaseINS_5ArrayIiLi2ELi1ELi0ELi2ELi1EEEEC2Ev CODE
 0001:001b9c00 00000019H .text$_ZN5Eigen12DenseStorageIiLi2ELi2ELi1ELi0EEC1Ev CODE
 0001:001b9c20 00000007H .text$_ZN5Eigen9DenseBaseINS_5ArrayIiLi2ELi1ELi0ELi2ELi1EEEEC2Ev CODE
 0001:001b9c30 00000019H .text$_ZN5Eigen12DenseStorageIiLi2ELi2ELi1ELi0EEC2Ev CODE
 0001:001b9c50 00000019H .text$_ZN5Eigen8internal11plain_arrayIiLi2ELi0ELi0EEC1Ev CODE
 0001:001b9c70 00000014H .text$_ZN5Eigen8internal11plain_arrayIiLi2ELi0ELi0EEC2Ev CODE
 0001:001b9c90 00000001H .text$_ZN5Eigen8internal28check_static_allocation_sizeIiLi2EEEvv CODE
 0001:001b9ca0 0000000bH .text$_ZN5Eigen12DenseStorageIiLi2ELi2ELi1ELi0EE4dataEv CODE
 0001:001b9cb0 00000169H .text$_ZN5Eigen8internal13SparseRefBaseINS_3RefIKNS_12SparseMatrixIdLi0EiEELi0ENS_11OuterStrideILin1EEEEEE9constructIS5_EEvRT_ CODE
 0001:001b9e20 0000000fH .text$_ZNK5Eigen12SparseMatrixIdLi0EiE13outerIndexPtrEv CODE
 0001:001b9e30 00000038H .text$_ZNK5Eigen16SparseMatrixBaseINS_12SparseMatrixIdLi0EiEEE4sizeEv CODE
 0001:001b9e70 000000c8H .text$_ZNK5Eigen20SparseCompressedBaseINS_12SparseMatrixIdLi0EiEEE8nonZerosEv CODE
 0001:001b9f40 0000001dH .text$_ZNK5Eigen12SparseMatrixIdLi0EiE13innerIndexPtrEv CODE
 0001:001b9f60 0000001dH .text$_ZNK5Eigen12SparseMatrixIdLi0EiE8valuePtrEv CODE
 0001:001b9f80 00000046H .text$_ZN5Eigen13SparseMapBaseINS_3RefIKNS_12SparseMatrixIdLi0EiEELi0ENS_11OuterStrideILin1EEEEELi0EEC1ExxPKiPKd CODE
 0001:001b9fd0 0000000fH .text$_ZNK5Eigen12SparseMatrixIdLi0EiE4rowsEv CODE
 0001:001b9fe0 0000000fH .text$_ZNK5Eigen12SparseMatrixIdLi0EiE4colsEv CODE
 0001:001b9ff0 0000000fH .text$_ZNK5Eigen12SparseMatrixIdLi0EiE15innerNonZeroPtrEv CODE
 0001:001ba000 0000008dH .text$_ZN5Eigen13SparseMapBaseINS_3RefIKNS_12SparseMatrixIdLi0EiEELi0ENS_11OuterStrideILin1EEEEELi0EEC1ExxxPKiSA_PKdSA_ CODE
 0001:001ba090 00000021H .text$_ZNK5Eigen16SparseMatrixBaseINS_12SparseMatrixIdLi0EiEEE4rowsEv CODE
 0001:001ba0c0 00000021H .text$_ZNK5Eigen16SparseMatrixBaseINS_12SparseMatrixIdLi0EiEEE4colsEv CODE
 0001:001ba0f0 00000024H .text$_ZNK5Eigen20SparseCompressedBaseINS_12SparseMatrixIdLi0EiEEE12isCompressedEv CODE
 0001:001ba120 00000021H .text$_ZNK5Eigen20SparseCompressedBaseINS_12SparseMatrixIdLi0EiEEE13outerIndexPtrEv CODE
 0001:001ba150 0000000fH .text$_ZNK5Eigen12SparseMatrixIdLi0EiE9outerSizeEv CODE
 0001:001ba160 000000a0H .text$_ZNK5Eigen20SparseCompressedBaseINS_12SparseMatrixIdLi0EiEEE13innerNonZerosEv CODE
 0001:001ba200 00000064H .text$_ZNK5Eigen9DenseBaseINS_3MapIKNS_6MatrixIiLin1ELi1ELi0ELin1ELi1EEELi0ENS_6StrideILi0ELi0EEEEEE3sumEv CODE
 0001:001ba270 00000021H .text$_ZNK5Eigen20SparseCompressedBaseINS_12SparseMatrixIdLi0EiEEE15innerNonZeroPtrEv CODE
 0001:001ba2a0 00000019H .text$_ZN5Eigen6StrideILi0ELi0EEC1Ev CODE
 0001:001ba2c0 00000037H .text$_ZN5Eigen3MapIKNS_6MatrixIiLin1ELi1ELi0ELin1ELi1EEELi0ENS_6StrideILi0ELi0EEEEC1EPKixRKS5_ CODE
 0001:001ba300 00000034H .text$_ZN5Eigen6StrideILi0ELi0EEC2Ev CODE
 0001:001ba340 00000023H .text$_ZN5Eigen8internal19variable_if_dynamicIxLi0EEC1Ex CODE
 0001:001ba370 00000039H .text$_ZN5Eigen8internal19variable_if_dynamicIxLi0EEC2Ex CODE
 0001:001ba3b0 0000005cH .text$_ZN5Eigen3MapIKNS_6MatrixIiLin1ELi1ELi0ELin1ELi1EEELi0ENS_6StrideILi0ELi0EEEEC2EPKixRKS5_ CODE
 0001:001ba410 00000016H .text$_ZN5Eigen3MapIKNS_6MatrixIiLin1ELi1ELi0ELin1ELi1EEELi0ENS_6StrideILi0ELi0EEEE20cast_to_pointer_typeEPKi CODE
 0001:001ba430 000000cfH .text$_ZN5Eigen7MapBaseINS_3MapIKNS_6MatrixIiLin1ELi1ELi0ELin1ELi1EEELi0ENS_6StrideILi0ELi0EEEEELi0EEC2EPKix CODE
 0001:001ba500 00000023H .text$_ZN5Eigen6StrideILi0ELi0EEC1ERKS1_ CODE
 0001:001ba530 00000001H .text$_ZN5Eigen15PlainObjectBaseINS_6MatrixIiLin1ELi1ELi0ELin1ELi1EEEE22_check_template_paramsEv CODE
 0001:001ba540 00000019H .text$_ZN5Eigen10MatrixBaseINS_3MapIKNS_6MatrixIiLin1ELi1ELi0ELin1ELi1EEELi0ENS_6StrideILi0ELi0EEEEEEC2Ev CODE
 0001:001ba560 00000023H .text$_ZN5Eigen8internal19variable_if_dynamicIxLin1EEC1Ex CODE
 0001:001ba590 00000023H .text$_ZN5Eigen8internal19variable_if_dynamicIxLi1EEC1Ex CODE
 0001:001ba5c0 00000012H .text$_ZNK5Eigen7MapBaseINS_3MapIKNS_6MatrixIiLin1ELi1ELi0ELin1ELi1EEELi0ENS_6StrideILi0ELi0EEEEELi0EE11checkSanityIS7_EEvNS_8internal9enable_ifIXeqsr8internal6traitsIT_EE9AlignmentLi0EEPvE4typeE CODE
 0001:001ba5e0 00000007H .text$_ZN5Eigen9DenseBaseINS_3MapIKNS_6MatrixIiLin1ELi1ELi0ELin1ELi1EEELi0ENS_6StrideILi0ELi0EEEEEEC2Ev CODE
 0001:001ba5f0 0000001eH .text$_ZN5Eigen8internal19variable_if_dynamicIxLin1EEC2Ex CODE
 0001:001ba610 00000039H .text$_ZN5Eigen8internal19variable_if_dynamicIxLi1EEC2Ex CODE
 0001:001ba650 0000005aH .text$_ZN5Eigen6StrideILi0ELi0EEC2ERKS1_ CODE
 0001:001ba6b0 00000014H .text$_ZNK5Eigen6StrideILi0ELi0EE5outerEv CODE
 0001:001ba6d0 00000014H .text$_ZNK5Eigen6StrideILi0ELi0EE5innerEv CODE
 0001:001ba6f0 00000003H .text$_ZN5Eigen8internal19variable_if_dynamicIxLi0EE5valueEv CODE
 0001:001ba700 00000038H .text$_ZNK5Eigen9EigenBaseINS_3MapIKNS_6MatrixIiLin1ELi1ELi0ELin1ELi1EEELi0ENS_6StrideILi0ELi0EEEEEE4sizeEv CODE
 0001:001ba740 0000000bH .text$_ZNK5Eigen9EigenBaseINS_3MapIKNS_6MatrixIiLin1ELi1ELi0ELin1ELi1EEELi0ENS_6StrideILi0ELi0EEEEEE7derivedEv CODE
 0001:001ba750 000000d5H .text$_ZNK5Eigen9DenseBaseINS_3MapIKNS_6MatrixIiLin1ELi1ELi0ELin1ELi1EEELi0ENS_6StrideILi0ELi0EEEEEE5reduxINS_8internal13scalar_sum_opIiiEEEEiRKT_ CODE
 0001:001ba830 00000019H .text$_ZN5Eigen8internal13scalar_sum_opIiiEC1Ev CODE
 0001:001ba850 00000036H .text$_ZNK5Eigen9EigenBaseINS_3MapIKNS_6MatrixIiLin1ELi1ELi0ELin1ELi1EEELi0ENS_6StrideILi0ELi0EEEEEE4rowsEv CODE
 0001:001ba890 00000036H .text$_ZNK5Eigen9EigenBaseINS_3MapIKNS_6MatrixIiLin1ELi1ELi0ELin1ELi1EEELi0ENS_6StrideILi0ELi0EEEEEE4colsEv CODE
 0001:001ba8d0 00000034H .text$_ZNK5Eigen7MapBaseINS_3MapIKNS_6MatrixIiLin1ELi1ELi0ELin1ELi1EEELi0ENS_6StrideILi0ELi0EEEEELi0EE4rowsEv CODE
 0001:001ba910 0000000eH .text$_ZNK5Eigen8internal19variable_if_dynamicIxLin1EE5valueEv CODE
 0001:001ba920 0000002bH .text$_ZNK5Eigen7MapBaseINS_3MapIKNS_6MatrixIiLin1ELi1ELi0ELin1ELi1EEELi0ENS_6StrideILi0ELi0EEEEELi0EE4colsEv CODE
 0001:001ba950 00000006H .text$_ZN5Eigen8internal19variable_if_dynamicIxLi1EE5valueEv CODE
 0001:001ba960 00000023H .text$_ZN5Eigen8internal15redux_evaluatorINS_3MapIKNS_6MatrixIiLin1ELi1ELi0ELin1ELi1EEELi0ENS_6StrideILi0ELi0EEEEEEC1ERKS8_ CODE
 0001:001ba990 000004c4H .text$_ZN5Eigen8internal10redux_implINS0_13scalar_sum_opIiiEENS0_15redux_evaluatorINS_3MapIKNS_6MatrixIiLin1ELi1ELi0ELin1ELi1EEELi0ENS_6StrideILi0ELi0EEEEEEELi3ELi0EE3runISB_EEiRKSC_RKS3_RKT_ CODE
 0001:001bae60 00000019H .text$_ZN5Eigen8internal15redux_evaluatorINS_3MapIKNS_6MatrixIiLin1ELi1ELi0ELin1ELi1EEELi0ENS_6StrideILi0ELi0EEEEEED1Ev CODE
 0001:001bae80 00000023H .text$_ZN5Eigen8internal15redux_evaluatorINS_3MapIKNS_6MatrixIiLin1ELi1ELi0ELin1ELi1EEELi0ENS_6StrideILi0ELi0EEEEEEC2ERKS8_ CODE
 0001:001baeb0 00000023H .text$_ZN5Eigen8internal9evaluatorINS_3MapIKNS_6MatrixIiLin1ELi1ELi0ELin1ELi1EEELi0ENS_6StrideILi0ELi0EEEEEEC2ERKS8_ CODE
 0001:001baee0 000000eaH .text$_ZN5Eigen8internal17mapbase_evaluatorINS_3MapIKNS_6MatrixIiLin1ELi1ELi0ELin1ELi1EEELi0ENS_6StrideILi0ELi0EEEEES5_EC2ERKS8_ CODE
 0001:001bafd0 00000007H .text$_ZN5Eigen8internal14evaluator_baseINS_3MapIKNS_6MatrixIiLin1ELi1ELi0ELin1ELi1EEELi0ENS_6StrideILi0ELi0EEEEEEC2Ev CODE
 0001:001bafe0 0000000eH .text$_ZNK5Eigen7MapBaseINS_3MapIKNS_6MatrixIiLin1ELi1ELi0ELin1ELi1EEELi0ENS_6StrideILi0ELi0EEEEELi0EE4dataEv CODE
 0001:001baff0 0000000cH .text$_ZNK5Eigen3MapIKNS_6MatrixIiLin1ELi1ELi0ELin1ELi1EEELi0ENS_6StrideILi0ELi0EEEE11innerStrideEv CODE
 0001:001bb000 00000038H .text$_ZNK5Eigen3MapIKNS_6MatrixIiLin1ELi1ELi0ELin1ELi1EEELi0ENS_6StrideILi0ELi0EEEE11outerStrideEv CODE
 0001:001bb040 00000007H .text$_ZN5Eigen8internal14evaluator_baseINS_3MapIKNS_6MatrixIiLin1ELi1ELi0ELin1ELi1EEELi0ENS_6StrideILi0ELi0EEEEEED2Ev CODE
 0001:001bb050 00000077H .text$_ZNK5Eigen8internal17mapbase_evaluatorINS_3MapIKNS_6MatrixIiLin1ELi1ELi0ELin1ELi1EEELi0ENS_6StrideILi0ELi0EEEEES5_E6packetILi0ENS0_20eigen_packet_wrapperIDv2_xLi0EEEEET0_x CODE
 0001:001bb0d0 0000003fH .text$_ZNK5Eigen8internal13scalar_sum_opIiiE8packetOpINS0_20eigen_packet_wrapperIDv2_xLi0EEEEET_RKS7_S9_ CODE
 0001:001bb110 0000001eH .text$_ZNK5Eigen8internal13scalar_sum_opIiiE6preduxINS0_20eigen_packet_wrapperIDv2_xLi0EEEEEiRKT_ CODE
 0001:001bb130 00000024H .text$_ZNK5Eigen8internal13scalar_sum_opIiiEclERKiS4_ CODE
 0001:001bb160 00000043H .text$_ZNK5Eigen8internal17mapbase_evaluatorINS_3MapIKNS_6MatrixIiLin1ELi1ELi0ELin1ELi1EEELi0ENS_6StrideILi0ELi0EEEEES5_E5coeffEx CODE
 0001:001bb1b0 00000035H .text$_ZN5Eigen8internal18first_aligned_implILi16ENS_3MapIKNS_6MatrixIiLin1ELi1ELi0ELin1ELi1EEELi0ENS_6StrideILi0ELi0EEEEELb0EE3runERKS8_ CODE
 0001:001bb1f0 000000a3H .text$_ZN5Eigen8internal13first_alignedILi16EixEET1_PKT0_S2_ CODE
 0001:001bb2a0 00000061H .text$_ZN5Eigen8internal6ploaduINS0_20eigen_packet_wrapperIDv2_xLi0EEEEET_PKNS0_15unpacket_traitsIS5_E4typeE CODE
 0001:001bb310 000000a1H .text$_ZN5Eigen8internal4paddINS0_20eigen_packet_wrapperIDv2_xLi0EEEEET_RKS5_S7_ CODE
 0001:001bb3c0 00000190H .text$_ZN5Eigen8internal6preduxINS0_20eigen_packet_wrapperIDv2_xLi0EEEEENS0_15unpacket_traitsIT_E4typeERKS6_ CODE
 0001:001bb550 00000031H .text$_ZN5Eigen8internal6pfirstINS0_20eigen_packet_wrapperIDv2_xLi0EEEEENS0_15unpacket_traitsIT_E4typeERKS6_ CODE
 0001:001bb590 00000019H .text$_ZN5Eigen8internal15redux_evaluatorINS_3MapIKNS_6MatrixIiLin1ELi1ELi0ELin1ELi1EEELi0ENS_6StrideILi0ELi0EEEEEED2Ev CODE
 0001:001bb5b0 00000019H .text$_ZN5Eigen8internal9evaluatorINS_3MapIKNS_6MatrixIiLin1ELi1ELi0ELin1ELi1EEELi0ENS_6StrideILi0ELi0EEEEEED2Ev CODE
 0001:001bb5d0 00000019H .text$_ZN5Eigen8internal17mapbase_evaluatorINS_3MapIKNS_6MatrixIiLin1ELi1ELi0ELin1ELi1EEELi0ENS_6StrideILi0ELi0EEEEES5_ED2Ev CODE
 0001:001bb5f0 00000007H .text$_ZN5Eigen8internal13scalar_sum_opIiiEC2Ev CODE
 0001:001bb600 0000000fH .text$_ZNK5Eigen8internal17CompressedStorageIdiE8indexPtrEv CODE
 0001:001bb610 0000000eH .text$_ZNK5Eigen8internal17CompressedStorageIdiE8valuePtrEv CODE
 0001:001bb620 000000b4H .text$_ZN5Eigen13SparseMapBaseINS_3RefIKNS_12SparseMatrixIdLi0EiEELi0ENS_11OuterStrideILin1EEEEELi0EEC2ExxPKiPKd CODE
 0001:001bb6e0 00000019H .text$_ZN5Eigen15PlainObjectBaseINS_5ArrayIiLi2ELi1ELi0ELi2ELi1EEEE4dataEv CODE
 0001:001bb700 00000007H .text$_ZN5Eigen13SparseMapBaseINS_3RefIKNS_12SparseMatrixIdLi0EiEELi0ENS_11OuterStrideILin1EEEEELi0EED2Ev CODE
 0001:001bb710 00000051H .text$_ZN5Eigen12SparseMatrixIdLi0EiED2Ev CODE
 0001:001bb770 00000101H .text$_ZN5Eigen13IncompleteLUTIdiEC2Ev CODE
 0001:001bb880 00000025H .text$_ZN5Eigen16SparseSolverBaseINS_13IncompleteLUTIdiEEEC2Ev CODE
 0001:001bb8b0 00000019H .text$_ZN5Eigen12SparseMatrixIdLi1EiEC1Ev CODE
 0001:001bb8d0 00000009H .text$_ZN5Eigen9NumTraitsIdE15dummy_precisionEv CODE
 0001:001bb8e0 00000019H .text$_ZN5Eigen17PermutationMatrixILin1ELin1EiEC1Ev CODE
 0001:001bb900 00000019H .text$_ZN5Eigen17PermutationMatrixILin1ELin1EiED1Ev CODE
 0001:001bb920 00000019H .text$_ZN5Eigen16SparseSolverBaseINS_13IncompleteLUTIdiEEED2Ev CODE
 0001:001bb940 00000097H .text$_ZN5Eigen12SparseMatrixIdLi1EiEC2Ev CODE
 0001:001bb9e0 00000019H .text$_ZN5Eigen17PermutationMatrixILin1ELin1EiEC2Ev CODE
 0001:001bba00 00000019H .text$_ZN5Eigen6MatrixIiLin1ELi1ELi0ELin1ELi1EEC1Ev CODE
 0001:001bba20 0000001eH .text$_ZN5Eigen6MatrixIiLin1ELi1ELi0ELin1ELi1EEC2Ev CODE
 0001:001bba40 00000028H .text$_ZN5Eigen15PlainObjectBaseINS_6MatrixIiLin1ELi1ELi0ELin1ELi1EEEEC2Ev CODE
 0001:001bba70 00000019H .text$_ZN5Eigen10MatrixBaseINS_6MatrixIiLin1ELi1ELi0ELin1ELi1EEEEC2Ev CODE
 0001:001bba90 00000019H .text$_ZN5Eigen12DenseStorageIiLin1ELin1ELi1ELi0EEC1Ev CODE
 0001:001bbab0 00000007H .text$_ZN5Eigen9DenseBaseINS_6MatrixIiLin1ELi1ELi0ELin1ELi1EEEEC2Ev CODE
 0001:001bbac0 0000001aH .text$_ZN5Eigen12DenseStorageIiLin1ELin1ELi1ELi0EEC2Ev CODE
 0001:001bbae0 00000019H .text$_ZN5Eigen17PermutationMatrixILin1ELin1EiED2Ev CODE
 0001:001bbb00 00000019H .text$_ZN5Eigen6MatrixIiLin1ELi1ELi0ELin1ELi1EED1Ev CODE
 0001:001bbb20 00000019H .text$_ZN5Eigen6MatrixIiLin1ELi1ELi0ELin1ELi1EED2Ev CODE
 0001:001bbb40 00000019H .text$_ZN5Eigen15PlainObjectBaseINS_6MatrixIiLin1ELi1ELi0ELin1ELi1EEEED2Ev CODE
 0001:001bbb60 00000019H .text$_ZN5Eigen12DenseStorageIiLin1ELin1ELi1ELi0EED1Ev CODE
 0001:001bbb80 0000002dH .text$_ZN5Eigen12DenseStorageIiLin1ELin1ELi1ELi0EED2Ev CODE
 0001:001bbbb0 0000001eH .text$_ZN5Eigen8internal31conditional_aligned_delete_autoIiLb1EEEvPT_y CODE
 0001:001bbbd0 00000019H .text$_ZN5Eigen8internal24conditional_aligned_freeILb1EEEvPv CODE
 0001:001bbbf0 00000019H .text$_ZN5Eigen8internal12aligned_freeEPv CODE
 0001:001bbc10 00000007H .text$_ZN5Eigen8internal11noncopyableD2Ev CODE
 0001:001bbc20 0000000fH .text$_ZN5Eigen16GenericNumTraitsIdE7epsilonEv CODE
 0001:001bbc30 0000000fH .text$_ZNSt3__114numeric_limitsIdE7epsilonB6v15007Ev CODE
 0001:001bbc40 00000009H .text$_ZNSt3__123__libcpp_numeric_limitsIdLb1EE7epsilonB6v15007Ev CODE
 0001:001bbc50 00000048H .text$_ZN5Eigen13IncompleteLUTIdiED2Ev CODE
 0001:001bbca0 0000002cH .text$_ZN5Eigen8internal22generic_matrix_wrapperINS_12SparseMatrixIdLi0EiEELb0EED2Ev CODE
 0001:001bbcd0 00000019H .text$_ZN5Eigen3RefIKNS_12SparseMatrixIdLi0EiEELi0ENS_11OuterStrideILin1EEEED1Ev CODE
 0001:001bbcf0 00000048H .text$_ZN5Eigen3RefIKNS_12SparseMatrixIdLi0EiEELi0ENS_11OuterStrideILin1EEEED2Ev CODE
 0001:001bbd40 0000000bH .text$_ZN5Eigen16SparseSolverBaseINS_8BiCGSTABINS_12SparseMatrixIdLi0EiEENS_13IncompleteLUTIdiEEEEE7derivedEv CODE
 0001:001bbd50 00000024H .text$_ZNK5Eigen20SparseCompressedBaseINS_12SparseMatrixIdLi1EiEEE12isCompressedEv CODE
 0001:001bbd80 0000004aH .text$_ZN5Eigen8internal17CompressedStorageIdiE7reserveEx CODE
 0001:001bbdd0 00000021H .text$_ZNK5Eigen20SparseCompressedBaseINS_12SparseMatrixIdLi1EiEEE15innerNonZeroPtrEv CODE
 0001:001bbe00 0000000bH .text$_ZNK5Eigen16SparseMatrixBaseINS_12SparseMatrixIdLi1EiEEE7derivedEv CODE
 0001:001bbe10 0000000fH .text$_ZNK5Eigen12SparseMatrixIdLi1EiE15innerNonZeroPtrEv CODE
 0001:001bbe20 0000022cH .text$_ZN5Eigen8internal17CompressedStorageIdiE10reallocateEx CODE
 0001:001bc050 00000023H .text$_ZN5Eigen8internal12scoped_arrayIdEC1Ex CODE
 0001:001bc080 00000023H .text$_ZN5Eigen8internal12scoped_arrayIiEC1Ex CODE
 0001:001bc0b0 00000028H .text$_ZNSt3__13minB6v15007IxEERKT_S3_S3_ CODE
 0001:001bc0e0 0000002dH .text$_ZN5Eigen8internal10smart_copyIdEEvPKT_S4_PS2_ CODE
 0001:001bc110 0000000bH .text$_ZN5Eigen8internal12scoped_arrayIdE3ptrEv CODE
 0001:001bc120 0000002dH .text$_ZN5Eigen8internal10smart_copyIiEEvPKT_S4_PS2_ CODE
 0001:001bc150 0000000bH .text$_ZN5Eigen8internal12scoped_arrayIiE3ptrEv CODE
 0001:001bc160 0000003bH .text$_ZNSt3__14swapB6v15007IPdEENS_9enable_ifIXaasr21is_move_constructibleIT_EE5valuesr18is_move_assignableIS3_EE5valueEvE4typeERS3_S6_ CODE
 0001:001bc1a0 0000003bH .text$_ZNSt3__14swapB6v15007IPiEENS_9enable_ifIXaasr21is_move_constructibleIT_EE5valuesr18is_move_assignableIS3_EE5valueEvE4typeERS3_S6_ CODE
 0001:001bc1e0 00000019H .text$_ZN5Eigen8internal12scoped_arrayIiED1Ev CODE
 0001:001bc200 00000019H .text$_ZN5Eigen8internal12scoped_arrayIdED1Ev CODE
 0001:001bc220 00000084H .text$_ZN5Eigen8internal12scoped_arrayIdEC2Ex CODE
 0001:001bc2b0 00000084H .text$_ZN5Eigen8internal12scoped_arrayIiEC2Ex CODE
 0001:001bc340 00000057H .text$_ZNSt3__13minB6v15007IxNS_6__lessIxxEEEERKT_S5_S5_T0_ CODE
 0001:001bc3a0 0000002eH .text$_ZNKSt3__16__lessIxxEclB6v15007ERKxS3_ CODE
 0001:001bc3d0 00000050H .text$_ZN5Eigen8internal17smart_copy_helperIdLb1EE3runEPKdS4_Pd CODE
 0001:001bc420 00000050H .text$_ZN5Eigen8internal17smart_copy_helperIiLb1EE3runEPKiS4_Pi CODE
 0001:001bc470 0000003fH .text$_ZN5Eigen8internal12scoped_arrayIiED2Ev CODE
 0001:001bc4b0 0000003fH .text$_ZN5Eigen8internal12scoped_arrayIdED2Ev CODE
 0001:001bc4f0 0000047cH .text$_ZN5Eigen8internal17set_from_tripletsINSt3__111__wrap_iterIPNS_7TripletIdiEEEENS_12SparseMatrixIdLi1EiEENS0_13scalar_sum_opIddEEEEvRKT_SE_RT0_T1_ CODE
 0001:001bc970 00000019H .text$_ZN5Eigen8internal13scalar_sum_opIddEC1Ev CODE
 0001:001bc990 0000000fH .text$_ZNK5Eigen12SparseMatrixIdLi1EiE4rowsEv CODE
 0001:001bc9a0 0000000fH .text$_ZNK5Eigen12SparseMatrixIdLi1EiE4colsEv CODE
 0001:001bc9b0 00000029H .text$_ZNSt3__1neB6v15007IPN5Eigen7TripletIdiEEEEbRKNS_11__wrap_iterIT_EES9_ CODE
 0001:001bc9e0 00000023H .text$_ZN5Eigen6MatrixIiLin1ELi1ELi0ELin1ELi1EEC1IxEERKT_ CODE
 0001:001bca10 00000026H .text$_ZN5Eigen9DenseBaseINS_6MatrixIiLin1ELi1ELi0ELin1ELi1EEEE7setZeroEv CODE
 0001:001bca40 0000001cH .text$_ZNKSt3__111__wrap_iterIPN5Eigen7TripletIdiEEEptB6v15007Ev CODE
 0001:001bca60 0000000bH .text$_ZNK5Eigen7TripletIdiE3rowEv CODE
 0001:001bca70 0000000fH .text$_ZNK5Eigen7TripletIdiE3colEv CODE
 0001:001bca80 00000077H .text$_ZN5Eigen15DenseCoeffsBaseINS_6MatrixIiLin1ELi1ELi0ELin1ELi1EEELi1EEclEx CODE
 0001:001bcb00 00000015H .text$_ZNSt3__111__wrap_iterIPN5Eigen7TripletIdiEEEppB6v15007Ev CODE
 0001:001bcb20 0000003cH .text$_ZN5Eigen12SparseMatrixIdLi0EiE7reserveINS_6MatrixIiLin1ELi1ELi0ELin1ELi1EEEEEvRKT_RKNS5_10value_typeE CODE
 0001:001bcb60 0000000fH .text$_ZNK5Eigen7TripletIdiE5valueEv CODE
 0001:001bcb70 00000121H .text$_ZN5Eigen12SparseMatrixIdLi0EiE22insertBackUncompressedExx CODE
 0001:001bcca0 00000434H .text$_ZN5Eigen12SparseMatrixIdLi0EiE18collapseDuplicatesINS_8internal13scalar_sum_opIddEEEEvT_ CODE
 0001:001bd0e0 00000023H .text$_ZN5Eigen8internal13scalar_sum_opIddEC1ERKS2_ CODE
 0001:001bd110 00000637H .text$_ZN5Eigen12SparseMatrixIdLi1EiEaSINS0_IdLi0EiEEEERS1_RKNS_16SparseMatrixBaseIT_EE CODE
 0001:001bd750 0000003fH .text$_ZNSt3__1eqB6v15007IPN5Eigen7TripletIdiEEEEbRKNS_11__wrap_iterIT_EES9_ CODE
 0001:001bd790 0000000eH .text$_ZNKSt3__111__wrap_iterIPN5Eigen7TripletIdiEEE4baseB6v15007Ev CODE
 0001:001bd7a0 0000006eH .text$_ZN5Eigen6MatrixIiLin1ELi1ELi0ELin1ELi1EEC2IxEERKT_ CODE
 0001:001bd810 00000041H .text$_ZN5Eigen15PlainObjectBaseINS_6MatrixIiLin1ELi1ELi0ELin1ELi1EEEE6_init1IxEEvxPNS_8internal9enable_ifIXaaooneLNS_9DenseBaseIS2_EUt_En1ELi1Entsr8internal14is_convertibleIT_iEE5valueoontLNS5_7is_sameINS_9MatrixXprENS_8ArrayXprEEUt_E0EeqLS9_n1EL_ZNS_L7DynamicEEESA_E4typeE CODE
 0001:001bd860 00000007H .text$_ZN5Eigen8internal22ignore_unused_variableIbEEvRKT_ CODE
 0001:001bd870 0000005dH .text$_ZN5Eigen15PlainObjectBaseINS_6MatrixIiLin1ELi1ELi0ELin1ELi1EEEE6resizeEx CODE
 0001:001bd8d0 00000097H .text$_ZN5Eigen12DenseStorageIiLin1ELin1ELi1ELi0EE6resizeExxx CODE
 0001:001bd970 0000006eH .text$_ZN5Eigen8internal28conditional_aligned_new_autoIiLb1EEEPT_y CODE
 0001:001bd9e0 00000019H .text$_ZN5Eigen8internal26conditional_aligned_mallocILb1EEEPvy CODE
 0001:001bda00 0000007cH .text$_ZN5Eigen8internal14aligned_mallocEy CODE
 0001:001bda80 00000001H .text$_ZN5Eigen8internal28check_that_malloc_is_allowedEv CODE
 0001:001bda90 00000060H .text$_ZN5Eigen9DenseBaseINS_6MatrixIiLin1ELi1ELi0ELin1ELi1EEEE11setConstantERKi CODE
 0001:001bdaf0 0000006bH .text$_ZN5Eigen9DenseBaseINS_6MatrixIiLin1ELi1ELi0ELin1ELi1EEEE8ConstantExxRKi CODE
 0001:001bdb60 00000036H .text$_ZNK5Eigen9EigenBaseINS_6MatrixIiLin1ELi1ELi0ELin1ELi1EEEE4rowsEv CODE
 0001:001bdba0 00000021H .text$_ZNK5Eigen9EigenBaseINS_6MatrixIiLin1ELi1ELi0ELin1ELi1EEEE4colsEv CODE
 0001:001bdbd0 0000000bH .text$_ZN5Eigen9EigenBaseINS_6MatrixIiLin1ELi1ELi0ELin1ELi1EEEE7derivedEv CODE
 0001:001bdbe0 00000023H .text$_ZN5Eigen6MatrixIiLin1ELi1ELi0ELin1ELi1EEaSINS_14CwiseNullaryOpINS_8internal18scalar_constant_opIiEES1_EEEERS1_RKNS_9DenseBaseIT_EE CODE
 0001:001bdc10 0000003eH .text$_ZN5Eigen9DenseBaseINS_6MatrixIiLin1ELi1ELi0ELin1ELi1EEEE11NullaryExprINS_8internal18scalar_constant_opIiEEEEKNS_14CwiseNullaryOpIT_S2_EExxRKS9_ CODE
 0001:001bdc50 00000023H .text$_ZN5Eigen8internal18scalar_constant_opIiEC1ERKi CODE
 0001:001bdc80 00000037H .text$_ZN5Eigen14CwiseNullaryOpINS_8internal18scalar_constant_opIiEENS_6MatrixIiLin1ELi1ELi0ELin1ELi1EEEEC1ExxRKS3_ CODE
 0001:001bdcc0 000000a3H .text$_ZN5Eigen14CwiseNullaryOpINS_8internal18scalar_constant_opIiEENS_6MatrixIiLin1ELi1ELi0ELin1ELi1EEEEC2ExxRKS3_ CODE
 0001:001bdd70 00000019H .text$_ZN5Eigen10MatrixBaseINS_14CwiseNullaryOpINS_8internal18scalar_constant_opIiEENS_6MatrixIiLin1ELi1ELi0ELin1ELi1EEEEEEC2Ev CODE
 0001:001bdd90 00000023H .text$_ZN5Eigen8internal18scalar_constant_opIiEC1ERKS2_ CODE
 0001:001bddc0 00000007H .text$_ZN5Eigen9DenseBaseINS_14CwiseNullaryOpINS_8internal18scalar_constant_opIiEENS_6MatrixIiLin1ELi1ELi0ELin1ELi1EEEEEEC2Ev CODE
 0001:001bddd0 0000001fH .text$_ZN5Eigen8internal18scalar_constant_opIiEC2ERKS2_ CODE
 0001:001bddf0 0000001fH .text$_ZN5Eigen8internal18scalar_constant_opIiEC2ERKi CODE
 0001:001bde10 0000000bH .text$_ZNK5Eigen9EigenBaseINS_6MatrixIiLin1ELi1ELi0ELin1ELi1EEEE7derivedEv CODE
 0001:001bde20 00000019H .text$_ZNK5Eigen15PlainObjectBaseINS_6MatrixIiLin1ELi1ELi0ELin1ELi1EEEE4rowsEv CODE
 0001:001bde40 0000000fH .text$_ZNK5Eigen12DenseStorageIiLin1ELin1ELi1ELi0EE4rowsEv CODE
 0001:001bde50 0000002bH .text$_ZNK5Eigen15PlainObjectBaseINS_6MatrixIiLin1ELi1ELi0ELin1ELi1EEEE4colsEv CODE
 0001:001bde80 00000006H .text$_ZN5Eigen12DenseStorageIiLin1ELin1ELi1ELi0EE4colsEv CODE
 0001:001bde90 00000049H .text$_ZN5Eigen15PlainObjectBaseINS_6MatrixIiLin1ELi1ELi0ELin1ELi1EEEE4_setINS_14CwiseNullaryOpINS_8internal18scalar_constant_opIiEES2_EEEERS2_RKNS_9DenseBaseIT_EE CODE
 0001:001bdee0 0000004bH .text$_ZN5Eigen8internal15call_assignmentINS_6MatrixIiLin1ELi1ELi0ELin1ELi1EEENS_14CwiseNullaryOpINS0_18scalar_constant_opIiEES3_EEEEvRT_RKT0_ CODE
 0001:001bdf30 0000000bH .text$_ZNK5Eigen9EigenBaseINS_14CwiseNullaryOpINS_8internal18scalar_constant_opIiEENS_6MatrixIiLin1ELi1ELi0ELin1ELi1EEEEEE7derivedEv CODE
 0001:001bdf40 00000032H .text$_ZN5Eigen8internal15call_assignmentINS_6MatrixIiLin1ELi1ELi0ELin1ELi1EEENS_14CwiseNullaryOpINS0_18scalar_constant_opIiEES3_EENS0_9assign_opIiiEEEEvRT_RKT0_RKT1_NS0_9enable_ifIXntsr25evaluator_assume_aliasingISC_EE5valueEPvE4typeE CODE
 0001:001bdf80 00000019H .text$_ZN5Eigen8internal9assign_opIiiEC1Ev CODE
 0001:001bdfa0 00000037H .text$_ZN5Eigen8internal24call_assignment_no_aliasINS_6MatrixIiLin1ELi1ELi0ELin1ELi1EEENS_14CwiseNullaryOpINS0_18scalar_constant_opIiEES3_EENS0_9assign_opIiiEEEEvRT_RKT0_RKT1_ CODE
 0001:001bdfe0 0000003cH .text$_ZN5Eigen8internal10AssignmentINS_6MatrixIiLin1ELi1ELi0ELin1ELi1EEENS_14CwiseNullaryOpINS0_18scalar_constant_opIiEES3_EENS0_9assign_opIiiEENS0_11Dense2DenseEvE3runERS3_RKS7_RKS9_ CODE
 0001:001be020 00000012H .text$_ZN5Eigen8internal18check_for_aliasingINS_6MatrixIiLin1ELi1ELi0ELin1ELi1EEENS_14CwiseNullaryOpINS0_18scalar_constant_opIiEES3_EEEEvRKT_RKT0_ CODE
 0001:001be040 00000075H .text$_ZN5Eigen8internal26call_dense_assignment_loopINS_6MatrixIiLin1ELi1ELi0ELin1ELi1EEEEEvRT_RKNS_14CwiseNullaryOpINS0_18scalar_constant_opINS4_6ScalarEEES4_EERKNS0_9assign_opIS8_S8_EE CODE
 0001:001be0c0 000000b8H .text$_ZN5Eigen8internal17resize_if_allowedINS_6MatrixIiLin1ELi1ELi0ELin1ELi1EEENS_14CwiseNullaryOpINS0_18scalar_constant_opIiEES3_EEiiEEvRT_RKT0_RKNS0_9assign_opIT1_T2_EE CODE
 0001:001be180 0000003fH .text$_ZNSt3__16fill_nB6v15007IPixiEET_S2_T0_RKT1_ CODE
 0001:001be1c0 00000019H .text$_ZN5Eigen15PlainObjectBaseINS_6MatrixIiLin1ELi1ELi0ELin1ELi1EEEE4dataEv CODE
 0001:001be1e0 00000038H .text$_ZNK5Eigen9EigenBaseINS_6MatrixIiLin1ELi1ELi0ELin1ELi1EEEE4sizeEv CODE
 0001:001be220 0000000fH .text$_ZNK5Eigen14CwiseNullaryOpINS_8internal18scalar_constant_opIiEENS_6MatrixIiLin1ELi1ELi0ELin1ELi1EEEE7functorEv CODE
 0001:001be230 0000000dH .text$_ZNK5Eigen8internal18scalar_constant_opIiEclEv CODE
 0001:001be240 00000019H .text$_ZNK5Eigen14CwiseNullaryOpINS_8internal18scalar_constant_opIiEENS_6MatrixIiLin1ELi1ELi0ELin1ELi1EEEE4rowsEv CODE
 0001:001be260 00000014H .text$_ZNK5Eigen14CwiseNullaryOpINS_8internal18scalar_constant_opIiEENS_6MatrixIiLin1ELi1ELi0ELin1ELi1EEEE4colsEv CODE
 0001:001be280 00000107H .text$_ZN5Eigen15PlainObjectBaseINS_6MatrixIiLin1ELi1ELi0ELin1ELi1EEEE6resizeExx CODE
 0001:001be390 00000056H .text$_ZNSt3__18__fill_nB6v15007IPixiEET_S2_T0_RKT1_ CODE
 0001:001be3f0 0000000bH .text$_ZNSt3__121__convert_to_integralB6v15007Ex CODE
 0001:001be400 0000000eH .text$_ZN5Eigen12DenseStorageIiLin1ELin1ELi1ELi0EE4dataEv CODE
 0001:001be410 00000007H .text$_ZN5Eigen8internal9assign_opIiiEC2Ev CODE
 0001:001be420 0000007aH .text$_ZN5Eigen15DenseCoeffsBaseINS_6MatrixIiLin1ELi1ELi0ELin1ELi1EEELi1EE8coeffRefEx CODE
 0001:001be4a0 00000023H .text$_ZN5Eigen8internal9evaluatorINS_6MatrixIiLin1ELi1ELi0ELin1ELi1EEEEC1ERKS3_ CODE
 0001:001be4d0 00000025H .text$_ZN5Eigen8internal9evaluatorINS_15PlainObjectBaseINS_6MatrixIiLin1ELi1ELi0ELin1ELi1EEEEEE8coeffRefEx CODE
 0001:001be500 00000019H .text$_ZN5Eigen8internal9evaluatorINS_6MatrixIiLin1ELi1ELi0ELin1ELi1EEEED1Ev CODE
 0001:001be520 00000023H .text$_ZN5Eigen8internal9evaluatorINS_6MatrixIiLin1ELi1ELi0ELin1ELi1EEEEC2ERKS3_ CODE
 0001:001be550 00000082H .text$_ZN5Eigen8internal9evaluatorINS_15PlainObjectBaseINS_6MatrixIiLin1ELi1ELi0ELin1ELi1EEEEEEC2ERKS5_ CODE
 0001:001be5e0 00000007H .text$_ZN5Eigen8internal14evaluator_baseINS_6MatrixIiLin1ELi1ELi0ELin1ELi1EEEEC2Ev CODE
 0001:001be5f0 00000019H .text$_ZNK5Eigen15PlainObjectBaseINS_6MatrixIiLin1ELi1ELi0ELin1ELi1EEEE4dataEv CODE
 0001:001be610 0000002dH .text$_ZN5Eigen8internal30plainobjectbase_evaluator_dataIiLi0EEC1EPKix CODE
 0001:001be640 00000007H .text$_ZN5Eigen8internal14evaluator_baseINS_6MatrixIiLin1ELi1ELi0ELin1ELi1EEEED2Ev CODE
 0001:001be650 0000000eH .text$_ZNK5Eigen12DenseStorageIiLin1ELin1ELi1ELi0EE4dataEv CODE
 0001:001be660 00000030H .text$_ZN5Eigen8internal30plainobjectbase_evaluator_dataIiLi0EEC2EPKix CODE
 0001:001be690 00000007H .text$_ZN5Eigen8internal22ignore_unused_variableIxEEvRKT_ CODE
 0001:001be6a0 00000019H .text$_ZN5Eigen8internal9evaluatorINS_6MatrixIiLin1ELi1ELi0ELin1ELi1EEEED2Ev CODE
 0001:001be6c0 00000019H .text$_ZN5Eigen8internal9evaluatorINS_15PlainObjectBaseINS_6MatrixIiLin1ELi1ELi0ELin1ELi1EEEEEED2Ev CODE
 0001:001be6e0 0000066aH .text$_ZN5Eigen12SparseMatrixIdLi0EiE19reserveInnerVectorsINS_6MatrixIiLin1ELi1ELi0ELin1ELi1EEEEEvRKT_ CODE
 0001:001bed50 00000077H .text$_ZNK5Eigen15DenseCoeffsBaseINS_6MatrixIiLin1ELi1ELi0ELin1ELi1EEELi0EEixEx CODE
 0001:001bedd0 00000026H .text$_ZN5Eigen8internal17CompressedStorageIdiE5indexEx CODE
 0001:001bee00 00000025H .text$_ZN5Eigen8internal17CompressedStorageIdiE5valueEx CODE
 0001:001bee30 000000aaH .text$_ZN5Eigen8internal17CompressedStorageIdiE6resizeExd CODE
 0001:001beee0 00000028H .text$_ZNSt3__13maxB6v15007IiEERKT_S3_S3_ CODE
 0001:001bef10 0000007aH .text$_ZNK5Eigen15DenseCoeffsBaseINS_6MatrixIiLin1ELi1ELi0ELin1ELi1EEELi0EE5coeffEx CODE
 0001:001bef90 00000025H .text$_ZNK5Eigen8internal9evaluatorINS_15PlainObjectBaseINS_6MatrixIiLin1ELi1ELi0ELin1ELi1EEEEEE5coeffEx CODE
 0001:001befc0 0000000fH .text$_ZN5Eigen16GenericNumTraitsIiE7highestEv CODE
 0001:001befd0 0000000fH .text$_ZNSt3__114numeric_limitsIiE3maxB6v15007Ev CODE
 0001:001befe0 00000006H .text$_ZNSt3__123__libcpp_numeric_limitsIiLb1EE3maxB6v15007Ev CODE
 0001:001beff0 00000057H .text$_ZNSt3__13maxB6v15007IiNS_6__lessIiiEEEERKT_S5_S5_T0_ CODE
 0001:001bf050 0000002cH .text$_ZNKSt3__16__lessIiiEclB6v15007ERKiS3_ CODE
 0001:001bf080 00000019H .text$_ZN5Eigen16SparseMatrixBaseINS_12SparseMatrixIdLi0EiEEE13convert_indexEx CODE
 0001:001bf0a0 0000000fH .text$_ZNK5Eigen12SparseMatrixIdLi0EiE9innerSizeEv CODE
 0001:001bf0b0 00000023H .text$_ZN5Eigen9DenseBaseINS_6MatrixIiLin1ELi1ELi0ELin1ELi1EEEE4fillERKi CODE
 0001:001bf0e0 00000028H .text$_ZNK5Eigen8internal13scalar_sum_opIddEclERKdS4_ CODE
 0001:001bf110 00000012H .text$_ZN5Eigen8internal13scalar_sum_opIddEC2ERKS2_ CODE
 0001:001bf130 00000023H .text$_ZN5Eigen8internal9evaluatorINS_12SparseMatrixIdLi0EiEEEC1ERKS3_ CODE
 0001:001bf160 0000000fH .text$_ZNK5Eigen12SparseMatrixIdLi1EiE9outerSizeEv CODE
 0001:001bf170 00000037H .text$_ZN5Eigen3MapINS_6MatrixIiLin1ELi1ELi0ELin1ELi1EEELi0ENS_6StrideILi0ELi0EEEEC1EPixRKS4_ CODE
 0001:001bf1b0 00000026H .text$_ZN5Eigen9DenseBaseINS_3MapINS_6MatrixIiLin1ELi1ELi0ELin1ELi1EEELi0ENS_6StrideILi0ELi0EEEEEE7setZeroEv CODE
 0001:001bf1e0 0000001cH .text$_ZN5Eigen8internal9evaluatorINS_20SparseCompressedBaseINS_12SparseMatrixIdLi0EiEEEEEcvRS4_Ev CODE
 0001:001bf200 0000002dH .text$_ZN5Eigen20SparseCompressedBaseINS_12SparseMatrixIdLi0EiEEE13InnerIteratorC1ERKS3_x CODE
 0001:001bf230 0000001bH .text$_ZNK5Eigen20SparseCompressedBaseINS_12SparseMatrixIdLi0EiEEE13InnerIteratorcvbEv CODE
 0001:001bf250 00000016H .text$_ZNK5Eigen20SparseCompressedBaseINS_12SparseMatrixIdLi0EiEEE13InnerIterator5indexEv CODE
 0001:001bf270 00000017H .text$_ZN5Eigen20SparseCompressedBaseINS_12SparseMatrixIdLi0EiEEE13InnerIteratorppEv CODE
 0001:001bf290 00000077H .text$_ZN5Eigen15DenseCoeffsBaseINS_6MatrixIiLin1ELi1ELi0ELin1ELi1EEELi1EEixEx CODE
 0001:001bf310 00000019H .text$_ZNK5Eigen20SparseCompressedBaseINS_12SparseMatrixIdLi0EiEEE13InnerIterator5valueEv CODE
 0001:001bf330 0000008cH .text$_ZN5Eigen12SparseMatrixIdLi1EiE4swapERS1_ CODE
 0001:001bf3c0 00000019H .text$_ZN5Eigen8internal9evaluatorINS_12SparseMatrixIdLi0EiEEED1Ev CODE
 0001:001bf3e0 00000023H .text$_ZN5Eigen8internal9evaluatorINS_12SparseMatrixIdLi0EiEEEC2ERKS3_ CODE
 0001:001bf410 00000037H .text$_ZN5Eigen8internal9evaluatorINS_20SparseCompressedBaseINS_12SparseMatrixIdLi0EiEEEEEC2ERKS4_ CODE
 0001:001bf450 00000007H .text$_ZN5Eigen8internal14evaluator_baseINS_12SparseMatrixIdLi0EiEEEC2Ev CODE
 0001:001bf460 0000005cH .text$_ZN5Eigen3MapINS_6MatrixIiLin1ELi1ELi0ELin1ELi1EEELi0ENS_6StrideILi0ELi0EEEEC2EPixRKS4_ CODE
 0001:001bf4c0 00000016H .text$_ZN5Eigen3MapINS_6MatrixIiLin1ELi1ELi0ELin1ELi1EEELi0ENS_6StrideILi0ELi0EEEE20cast_to_pointer_typeEPi CODE
 0001:001bf4e0 0000002dH .text$_ZN5Eigen7MapBaseINS_3MapINS_6MatrixIiLin1ELi1ELi0ELin1ELi1EEELi0ENS_6StrideILi0ELi0EEEEELi1EEC2EPix CODE
 0001:001bf510 000000cfH .text$_ZN5Eigen7MapBaseINS_3MapINS_6MatrixIiLin1ELi1ELi0ELin1ELi1EEELi0ENS_6StrideILi0ELi0EEEEELi0EEC2EPix CODE
 0001:001bf5e0 00000019H .text$_ZN5Eigen10MatrixBaseINS_3MapINS_6MatrixIiLin1ELi1ELi0ELin1ELi1EEELi0ENS_6StrideILi0ELi0EEEEEEC2Ev CODE
 0001:001bf600 00000012H .text$_ZNK5Eigen7MapBaseINS_3MapINS_6MatrixIiLin1ELi1ELi0ELin1ELi1EEELi0ENS_6StrideILi0ELi0EEEEELi0EE11checkSanityIS6_EEvNS_8internal9enable_ifIXeqsr8internal6traitsIT_EE9AlignmentLi0EEPvE4typeE CODE
 0001:001bf620 00000007H .text$_ZN5Eigen9DenseBaseINS_3MapINS_6MatrixIiLin1ELi1ELi0ELin1ELi1EEELi0ENS_6StrideILi0ELi0EEEEEEC2Ev CODE
 0001:001bf630 00000060H .text$_ZN5Eigen9DenseBaseINS_3MapINS_6MatrixIiLin1ELi1ELi0ELin1ELi1EEELi0ENS_6StrideILi0ELi0EEEEEE11setConstantERKi CODE
 0001:001bf690 0000006bH .text$_ZN5Eigen9DenseBaseINS_3MapINS_6MatrixIiLin1ELi1ELi0ELin1ELi1EEELi0ENS_6StrideILi0ELi0EEEEEE8ConstantExxRKi CODE
 0001:001bf700 00000036H .text$_ZNK5Eigen9EigenBaseINS_3MapINS_6MatrixIiLin1ELi1ELi0ELin1ELi1EEELi0ENS_6StrideILi0ELi0EEEEEE4rowsEv CODE
 0001:001bf740 00000021H .text$_ZNK5Eigen9EigenBaseINS_3MapINS_6MatrixIiLin1ELi1ELi0ELin1ELi1EEELi0ENS_6StrideILi0ELi0EEEEEE4colsEv CODE
 0001:001bf770 0000000bH .text$_ZN5Eigen9EigenBaseINS_3MapINS_6MatrixIiLin1ELi1ELi0ELin1ELi1EEELi0ENS_6StrideILi0ELi0EEEEEE7derivedEv CODE
 0001:001bf780 00000039H .text$_ZN5Eigen3MapINS_6MatrixIiLin1ELi1ELi0ELin1ELi1EEELi0ENS_6StrideILi0ELi0EEEEaSINS_14CwiseNullaryOpINS_8internal18scalar_constant_opIiEES2_EEEERS5_RKNS_9DenseBaseIT_EE CODE
 0001:001bf7c0 0000003eH .text$_ZN5Eigen9DenseBaseINS_3MapINS_6MatrixIiLin1ELi1ELi0ELin1ELi1EEELi0ENS_6StrideILi0ELi0EEEEEE11NullaryExprINS_8internal18scalar_constant_opIiEEEEKNS_14CwiseNullaryOpIT_S3_EExxRKSD_ CODE
 0001:001bf800 0000000bH .text$_ZNK5Eigen9EigenBaseINS_3MapINS_6MatrixIiLin1ELi1ELi0ELin1ELi1EEELi0ENS_6StrideILi0ELi0EEEEEE7derivedEv CODE
 0001:001bf810 0000001dH .text$_ZNK5Eigen7MapBaseINS_3MapINS_6MatrixIiLin1ELi1ELi0ELin1ELi1EEELi0ENS_6StrideILi0ELi0EEEEELi0EE4rowsEv CODE
 0001:001bf830 00000014H .text$_ZNK5Eigen7MapBaseINS_3MapINS_6MatrixIiLin1ELi1ELi0ELin1ELi1EEELi0ENS_6StrideILi0ELi0EEEEELi0EE4colsEv CODE
 0001:001bf850 00000049H .text$_ZN5Eigen10MatrixBaseINS_3MapINS_6MatrixIiLin1ELi1ELi0ELin1ELi1EEELi0ENS_6StrideILi0ELi0EEEEEEaSINS_14CwiseNullaryOpINS_8internal18scalar_constant_opIiEES3_EEEERS6_RKNS_9DenseBaseIT_EE CODE
 0001:001bf8a0 0000004bH .text$_ZN5Eigen8internal15call_assignmentINS_3MapINS_6MatrixIiLin1ELi1ELi0ELin1ELi1EEELi0ENS_6StrideILi0ELi0EEEEENS_14CwiseNullaryOpINS0_18scalar_constant_opIiEES4_EEEEvRT_RKT0_ CODE
 0001:001bf8f0 00000032H .text$_ZN5Eigen8internal15call_assignmentINS_3MapINS_6MatrixIiLin1ELi1ELi0ELin1ELi1EEELi0ENS_6StrideILi0ELi0EEEEENS_14CwiseNullaryOpINS0_18scalar_constant_opIiEES4_EENS0_9assign_opIiiEEEEvRT_RKT0_RKT1_NS0_9enable_ifIXntsr25evaluator_assume_aliasingISG_EE5valueEPvE4typeE CODE
 0001:001bf930 00000037H .text$_ZN5Eigen8internal24call_assignment_no_aliasINS_3MapINS_6MatrixIiLin1ELi1ELi0ELin1ELi1EEELi0ENS_6StrideILi0ELi0EEEEENS_14CwiseNullaryOpINS0_18scalar_constant_opIiEES4_EENS0_9assign_opIiiEEEEvRT_RKT0_RKT1_ CODE
 0001:001bf970 0000003cH .text$_ZN5Eigen8internal10AssignmentINS_3MapINS_6MatrixIiLin1ELi1ELi0ELin1ELi1EEELi0ENS_6StrideILi0ELi0EEEEENS_14CwiseNullaryOpINS0_18scalar_constant_opIiEES4_EENS0_9assign_opIiiEENS0_11Dense2DenseEvE3runERS7_RKSB_RKSD_ CODE
 0001:001bf9b0 00000012H .text$_ZN5Eigen8internal18check_for_aliasingINS_3MapINS_6MatrixIiLin1ELi1ELi0ELin1ELi1EEELi0ENS_6StrideILi0ELi0EEEEENS_14CwiseNullaryOpINS0_18scalar_constant_opIiEES4_EEEEvRKT_RKT0_ CODE
 0001:001bf9d0 00000139H .text$_ZN5Eigen8internal26call_dense_assignment_loopINS_3MapINS_6MatrixIiLin1ELi1ELi0ELin1ELi1EEELi0ENS_6StrideILi0ELi0EEEEENS_14CwiseNullaryOpINS0_18scalar_constant_opIiEES4_EENS0_9assign_opIiiEEEEvRT_RKT0_RKT1_ CODE
 0001:001bfb10 00000023H .text$_ZN5Eigen8internal9evaluatorINS_14CwiseNullaryOpINS0_18scalar_constant_opIiEENS_6MatrixIiLin1ELi1ELi0ELin1ELi1EEEEEEC1ERKS7_ CODE
 0001:001bfb40 000000b8H .text$_ZN5Eigen8internal17resize_if_allowedINS_3MapINS_6MatrixIiLin1ELi1ELi0ELin1ELi1EEELi0ENS_6StrideILi0ELi0EEEEENS_14CwiseNullaryOpINS0_18scalar_constant_opIiEES4_EEiiEEvRT_RKT0_RKNS0_9assign_opIT1_T2_EE CODE
 0001:001bfc00 00000023H .text$_ZN5Eigen8internal9evaluatorINS_3MapINS_6MatrixIiLin1ELi1ELi0ELin1ELi1EEELi0ENS_6StrideILi0ELi0EEEEEEC1ERKS7_ CODE
 0001:001bfc30 0000000bH .text$_ZNK5Eigen9EigenBaseINS_3MapINS_6MatrixIiLin1ELi1ELi0ELin1ELi1EEELi0ENS_6StrideILi0ELi0EEEEEE18const_cast_derivedEv CODE
 0001:001bfc40 00000046H .text$_ZN5Eigen8internal31generic_dense_assignment_kernelINS0_9evaluatorINS_3MapINS_6MatrixIiLin1ELi1ELi0ELin1ELi1EEELi0ENS_6StrideILi0ELi0EEEEEEENS2_INS_14CwiseNullaryOpINS0_18scalar_constant_opIiEES5_EEEENS0_9assign_opIiiEELi0EEC1ERS9_RKSE_RKSG_RS8_ CODE
 0001:001bfc90 000000cfH .text$_ZN5Eigen8internal21dense_assignment_loopINS0_31generic_dense_assignment_kernelINS0_9evaluatorINS_3MapINS_6MatrixIiLin1ELi1ELi0ELin1ELi1EEELi0ENS_6StrideILi0ELi0EEEEEEENS3_INS_14CwiseNullaryOpINS0_18scalar_constant_opIiEES6_EEEENS0_9assign_opIiiEELi0EEELi3ELi0EE3runERSI_ CODE
 0001:001bfd60 00000019H .text$_ZN5Eigen8internal9evaluatorINS_3MapINS_6MatrixIiLin1ELi1ELi0ELin1ELi1EEELi0ENS_6StrideILi0ELi0EEEEEED1Ev CODE
 0001:001bfd80 00000019H .text$_ZN5Eigen8internal9evaluatorINS_14CwiseNullaryOpINS0_18scalar_constant_opIiEENS_6MatrixIiLin1ELi1ELi0ELin1ELi1EEEEEED1Ev CODE
 0001:001bfda0 00000069H .text$_ZN5Eigen8internal9evaluatorINS_14CwiseNullaryOpINS0_18scalar_constant_opIiEENS_6MatrixIiLin1ELi1ELi0ELin1ELi1EEEEEEC2ERKS7_ CODE
 0001:001bfe10 00000007H .text$_ZN5Eigen8internal14evaluator_baseINS_14CwiseNullaryOpINS0_18scalar_constant_opIiEENS_6MatrixIiLin1ELi1ELi0ELin1ELi1EEEEEEC2Ev CODE
 0001:001bfe20 00000007H .text$_ZN5Eigen8internal14evaluator_baseINS_14CwiseNullaryOpINS0_18scalar_constant_opIiEENS_6MatrixIiLin1ELi1ELi0ELin1ELi1EEEEEED2Ev CODE
 0001:001bfe30 00000081H .text$_ZN5Eigen9DenseBaseINS_3MapINS_6MatrixIiLin1ELi1ELi0ELin1ELi1EEELi0ENS_6StrideILi0ELi0EEEEEE6resizeExx CODE
 0001:001bfec0 00000023H .text$_ZN5Eigen8internal9evaluatorINS_3MapINS_6MatrixIiLin1ELi1ELi0ELin1ELi1EEELi0ENS_6StrideILi0ELi0EEEEEEC2ERKS7_ CODE
 0001:001bfef0 000000eaH .text$_ZN5Eigen8internal17mapbase_evaluatorINS_3MapINS_6MatrixIiLin1ELi1ELi0ELin1ELi1EEELi0ENS_6StrideILi0ELi0EEEEES4_EC2ERKS7_ CODE
 0001:001bffe0 00000007H .text$_ZN5Eigen8internal14evaluator_baseINS_3MapINS_6MatrixIiLin1ELi1ELi0ELin1ELi1EEELi0ENS_6StrideILi0ELi0EEEEEEC2Ev CODE
 0001:001bfff0 0000000eH .text$_ZNK5Eigen7MapBaseINS_3MapINS_6MatrixIiLin1ELi1ELi0ELin1ELi1EEELi0ENS_6StrideILi0ELi0EEEEELi1EE4dataEv CODE
 0001:001c0000 0000000cH .text$_ZNK5Eigen3MapINS_6MatrixIiLin1ELi1ELi0ELin1ELi1EEELi0ENS_6StrideILi0ELi0EEEE11innerStrideEv CODE
 0001:001c0010 00000038H .text$_ZNK5Eigen3MapINS_6MatrixIiLin1ELi1ELi0ELin1ELi1EEELi0ENS_6StrideILi0ELi0EEEE11outerStrideEv CODE
 0001:001c0050 00000007H .text$_ZN5Eigen8internal14evaluator_baseINS_3MapINS_6MatrixIiLin1ELi1ELi0ELin1ELi1EEELi0ENS_6StrideILi0ELi0EEEEEED2Ev CODE
 0001:001c0060 00000038H .text$_ZNK5Eigen9EigenBaseINS_3MapINS_6MatrixIiLin1ELi1ELi0ELin1ELi1EEELi0ENS_6StrideILi0ELi0EEEEEE4sizeEv CODE
 0001:001c00a0 00000048H .text$_ZN5Eigen8internal31generic_dense_assignment_kernelINS0_9evaluatorINS_3MapINS_6MatrixIiLin1ELi1ELi0ELin1ELi1EEELi0ENS_6StrideILi0ELi0EEEEEEENS2_INS_14CwiseNullaryOpINS0_18scalar_constant_opIiEES5_EEEENS0_9assign_opIiiEELi0EEC2ERS9_RKSE_RKSG_RS8_ CODE
 0001:001c00f0 0000001dH .text$_ZNK5Eigen8internal31generic_dense_assignment_kernelINS0_9evaluatorINS_3MapINS_6MatrixIiLin1ELi1ELi0ELin1ELi1EEELi0ENS_6StrideILi0ELi0EEEEEEENS2_INS_14CwiseNullaryOpINS0_18scalar_constant_opIiEES5_EEEENS0_9assign_opIiiEELi0EE4sizeEv CODE
 0001:001c0110 0000001dH .text$_ZNK5Eigen8internal31generic_dense_assignment_kernelINS0_9evaluatorINS_3MapINS_6MatrixIiLin1ELi1ELi0ELin1ELi1EEELi0ENS_6StrideILi0ELi0EEEEEEENS2_INS_14CwiseNullaryOpINS0_18scalar_constant_opIiEES5_EEEENS0_9assign_opIiiEELi0EE10dstDataPtrEv CODE
 0001:001c0130 00000054H .text$_ZN5Eigen8internal31unaligned_dense_assignment_loopILb0EE3runINS0_31generic_dense_assignment_kernelINS0_9evaluatorINS_3MapINS_6MatrixIiLin1ELi1ELi0ELin1ELi1EEELi0ENS_6StrideILi0ELi0EEEEEEENS5_INS_14CwiseNullaryOpINS0_18scalar_constant_opIiEES8_EEEENS0_9assign_opIiiEELi0EEEEEvRT_xx CODE
 0001:001c0190 00000068H .text$_ZN5Eigen8internal31generic_dense_assignment_kernelINS0_9evaluatorINS_3MapINS_6MatrixIiLin1ELi1ELi0ELin1ELi1EEELi0ENS_6StrideILi0ELi0EEEEEEENS2_INS_14CwiseNullaryOpINS0_18scalar_constant_opIiEES5_EEEENS0_9assign_opIiiEELi0EE12assignPacketILi16ELi0ENS0_20eigen_packet_wrapperIDv2_xLi0EEEEEvx CODE
 0001:001c0200 0000000eH .text$_ZN5Eigen7MapBaseINS_3MapINS_6MatrixIiLin1ELi1ELi0ELin1ELi1EEELi0ENS_6StrideILi0ELi0EEEEELi1EE4dataEv CODE
 0001:001c0210 00000067H .text$_ZN5Eigen8internal31generic_dense_assignment_kernelINS0_9evaluatorINS_3MapINS_6MatrixIiLin1ELi1ELi0ELin1ELi1EEELi0ENS_6StrideILi0ELi0EEEEEEENS2_INS_14CwiseNullaryOpINS0_18scalar_constant_opIiEES5_EEEENS0_9assign_opIiiEELi0EE11assignCoeffEx CODE
 0001:001c0280 00000024H .text$_ZNK5Eigen8internal9assign_opIiiE11assignCoeffERiRKi CODE
 0001:001c02b0 00000047H .text$_ZN5Eigen8internal17mapbase_evaluatorINS_3MapINS_6MatrixIiLin1ELi1ELi0ELin1ELi1EEELi0ENS_6StrideILi0ELi0EEEEES4_E8coeffRefEx CODE
 0001:001c0300 0000002fH .text$_ZNK5Eigen8internal9evaluatorINS_14CwiseNullaryOpINS0_18scalar_constant_opIiEENS_6MatrixIiLin1ELi1ELi0ELin1ELi1EEEEEE5coeffIxEEiT_ CODE
 0001:001c0330 00000028H .text$_ZNK5Eigen8internal15nullary_wrapperIiNS0_18scalar_constant_opIiEELb1ELb0ELb0EEclIxEEiRKS3_T_S8_ CODE
 0001:001c0360 0000003cH .text$_ZNK5Eigen8internal9assign_opIiiE12assignPacketILi16ENS0_20eigen_packet_wrapperIDv2_xLi0EEEEEvPiRKT0_ CODE
 0001:001c03a0 00000046H .text$_ZNK5Eigen8internal9evaluatorINS_14CwiseNullaryOpINS0_18scalar_constant_opIiEENS_6MatrixIiLin1ELi1ELi0ELin1ELi1EEEEEE6packetILi0ENS0_20eigen_packet_wrapperIDv2_xLi0EEExEET0_T1_ CODE
 0001:001c03f0 00000045H .text$_ZN5Eigen8internal6pstoreIiNS0_20eigen_packet_wrapperIDv2_xLi0EEEEEvPT_RKT0_ CODE
 0001:001c0440 00000039H .text$_ZNK5Eigen8internal15nullary_wrapperIiNS0_18scalar_constant_opIiEELb1ELb0ELb0EE8packetOpINS0_20eigen_packet_wrapperIDv2_xLi0EEExEET_RKS3_T0_SC_ CODE
 0001:001c0480 00000030H .text$_ZNK5Eigen8internal18scalar_constant_opIiE8packetOpINS0_20eigen_packet_wrapperIDv2_xLi0EEEEEKT_v CODE
 0001:001c04b0 0000009dH .text$_ZN5Eigen8internal5pset1INS0_20eigen_packet_wrapperIDv2_xLi0EEEEET_RKNS0_15unpacket_traitsIS5_E4typeE CODE
 0001:001c0550 00000019H .text$_ZN5Eigen8internal9evaluatorINS_3MapINS_6MatrixIiLin1ELi1ELi0ELin1ELi1EEELi0ENS_6StrideILi0ELi0EEEEEED2Ev CODE
 0001:001c0570 00000019H .text$_ZN5Eigen8internal17mapbase_evaluatorINS_3MapINS_6MatrixIiLin1ELi1ELi0ELin1ELi1EEELi0ENS_6StrideILi0ELi0EEEEES4_ED2Ev CODE
 0001:001c0590 00000019H .text$_ZN5Eigen8internal9evaluatorINS_14CwiseNullaryOpINS0_18scalar_constant_opIiEENS_6MatrixIiLin1ELi1ELi0ELin1ELi1EEEEEED2Ev CODE
 0001:001c05b0 0000000bH .text$_ZNK5Eigen16SparseMatrixBaseINS_12SparseMatrixIdLi0EiEEE18const_cast_derivedEv CODE
 0001:001c05c0 000000e8H .text$_ZN5Eigen20SparseCompressedBaseINS_12SparseMatrixIdLi0EiEEE13InnerIteratorC2ERKS3_x CODE
 0001:001c06b0 00000021H .text$_ZNK5Eigen20SparseCompressedBaseINS_12SparseMatrixIdLi0EiEEE8valuePtrEv CODE
 0001:001c06e0 00000021H .text$_ZNK5Eigen20SparseCompressedBaseINS_12SparseMatrixIdLi0EiEEE13innerIndexPtrEv CODE
 0001:001c0710 0000003bH .text$_ZNSt3__14swapB6v15007IxEENS_9enable_ifIXaasr21is_move_constructibleIT_EE5valuesr18is_move_assignableIS2_EE5valueEvE4typeERS2_S5_ CODE
 0001:001c0750 0000006dH .text$_ZN5Eigen8internal17CompressedStorageIdiE4swapERS2_ CODE
 0001:001c07c0 00000019H .text$_ZN5Eigen8internal9evaluatorINS_12SparseMatrixIdLi0EiEEED2Ev CODE
 0001:001c07e0 00000019H .text$_ZN5Eigen8internal9evaluatorINS_20SparseCompressedBaseINS_12SparseMatrixIdLi0EiEEEEED2Ev CODE
 0001:001c0800 00000007H .text$_ZN5Eigen8internal14evaluator_baseINS_12SparseMatrixIdLi0EiEEED2Ev CODE
 0001:001c0810 00000007H .text$_ZN5Eigen8internal13scalar_sum_opIddEC2Ev CODE
 0001:001c0820 0000002dH .text$_ZNSt3__111__wrap_iterIPN5Eigen7TripletIdiEEEC1B6v15007EPKvS4_ CODE
 0001:001c0850 00000023H .text$_ZNSt3__111__wrap_iterIPN5Eigen7TripletIdiEEEC2B6v15007EPKvS4_ CODE
 0001:001c0880 00000027H .text$_ZN5Eigen19IterativeSolverBaseINS_8BiCGSTABINS_12SparseMatrixIdLi0EiEENS_13IncompleteLUTIdiEEEEE4grabINS2_IdLi1EiEEEEvRKT_ CODE
 0001:001c08b0 0000000bH .text$_ZNK5Eigen9EigenBaseINS_12SparseMatrixIdLi1EiEEE7derivedEv CODE
 0001:001c08c0 0000003bH .text$_ZN5Eigen13IncompleteLUTIdiE7computeINS_3RefIKNS_12SparseMatrixIdLi0EiEELi0ENS_11OuterStrideILin1EEEEEEERS1_RKT_ CODE
 0001:001c0900 0000001dH .text$_ZNK5Eigen19IterativeSolverBaseINS_8BiCGSTABINS_12SparseMatrixIdLi0EiEENS_13IncompleteLUTIdiEEEEE6matrixEv CODE
 0001:001c0920 00000042H .text$_ZNK5Eigen13IncompleteLUTIdiE4infoEv CODE
 0001:001c0970 0000004cH .text$_ZN5Eigen8internal22generic_matrix_wrapperINS_12SparseMatrixIdLi0EiEELb0EE4grabINS2_IdLi1EiEEEEvRKNS_9EigenBaseIT_EE CODE
 0001:001c09c0 00000023H .text$_ZN5Eigen3RefIKNS_12SparseMatrixIdLi0EiEELi0ENS_11OuterStrideILin1EEEEC1INS1_IdLi1EiEEEERKNS_16SparseMatrixBaseIT_EE CODE
 0001:001c09f0 0000007aH .text$_ZN5Eigen3RefIKNS_12SparseMatrixIdLi0EiEELi0ENS_11OuterStrideILin1EEEEC2INS1_IdLi1EiEEEERKNS_16SparseMatrixBaseIT_EE CODE
 0001:001c0a70 00000051H .text$_ZN5Eigen3RefIKNS_12SparseMatrixIdLi0EiEELi0ENS_11OuterStrideILin1EEEE9constructINS1_IdLi1EiEEEEvRKT_NS_8internal10false_typeE CODE
 0001:001c0ad0 00000023H .text$_ZN5Eigen12SparseMatrixIdLi0EiEC1INS0_IdLi1EiEEEERKNS_16SparseMatrixBaseIT_EE CODE
 0001:001c0b00 00000169H .text$_ZN5Eigen8internal13SparseRefBaseINS_3RefIKNS_12SparseMatrixIdLi0EiEELi0ENS_11OuterStrideILin1EEEEEE9constructIS4_EEvRT_ CODE
 0001:001c0c70 000000a6H .text$_ZN5Eigen12SparseMatrixIdLi0EiEC2INS0_IdLi1EiEEEERKNS_16SparseMatrixBaseIT_EE CODE
 0001:001c0d20 000005f3H .text$_ZN5Eigen12SparseMatrixIdLi0EiEaSINS0_IdLi1EiEEEERS1_RKNS_16SparseMatrixBaseIT_EE CODE
 0001:001c1320 00000023H .text$_ZN5Eigen8internal9evaluatorINS_12SparseMatrixIdLi1EiEEEC1ERKS3_ CODE
 0001:001c1350 00000021H .text$_ZNK5Eigen16SparseMatrixBaseINS_12SparseMatrixIdLi1EiEEE4rowsEv CODE
 0001:001c1380 00000021H .text$_ZNK5Eigen16SparseMatrixBaseINS_12SparseMatrixIdLi1EiEEE4colsEv CODE
 0001:001c13b0 0000001cH .text$_ZN5Eigen8internal9evaluatorINS_20SparseCompressedBaseINS_12SparseMatrixIdLi1EiEEEEEcvRS4_Ev CODE
 0001:001c13d0 0000002dH .text$_ZN5Eigen20SparseCompressedBaseINS_12SparseMatrixIdLi1EiEEE13InnerIteratorC1ERKS3_x CODE
 0001:001c1400 0000001bH .text$_ZNK5Eigen20SparseCompressedBaseINS_12SparseMatrixIdLi1EiEEE13InnerIteratorcvbEv CODE
 0001:001c1420 00000016H .text$_ZNK5Eigen20SparseCompressedBaseINS_12SparseMatrixIdLi1EiEEE13InnerIterator5indexEv CODE
 0001:001c1440 00000017H .text$_ZN5Eigen20SparseCompressedBaseINS_12SparseMatrixIdLi1EiEEE13InnerIteratorppEv CODE
 0001:001c1460 00000019H .text$_ZNK5Eigen20SparseCompressedBaseINS_12SparseMatrixIdLi1EiEEE13InnerIterator5valueEv CODE
 0001:001c1480 0000008cH .text$_ZN5Eigen12SparseMatrixIdLi0EiE4swapERS1_ CODE
 0001:001c1510 00000019H .text$_ZN5Eigen8internal9evaluatorINS_12SparseMatrixIdLi1EiEEED1Ev CODE
 0001:001c1530 00000023H .text$_ZN5Eigen8internal9evaluatorINS_12SparseMatrixIdLi1EiEEEC2ERKS3_ CODE
 0001:001c1560 00000037H .text$_ZN5Eigen8internal9evaluatorINS_20SparseCompressedBaseINS_12SparseMatrixIdLi1EiEEEEEC2ERKS4_ CODE
 0001:001c15a0 00000007H .text$_ZN5Eigen8internal14evaluator_baseINS_12SparseMatrixIdLi1EiEEEC2Ev CODE
 0001:001c15b0 0000000bH .text$_ZNK5Eigen16SparseMatrixBaseINS_12SparseMatrixIdLi1EiEEE18const_cast_derivedEv CODE
 0001:001c15c0 000000e8H .text$_ZN5Eigen20SparseCompressedBaseINS_12SparseMatrixIdLi1EiEEE13InnerIteratorC2ERKS3_x CODE
 0001:001c16b0 00000021H .text$_ZNK5Eigen20SparseCompressedBaseINS_12SparseMatrixIdLi1EiEEE8valuePtrEv CODE
 0001:001c16e0 00000021H .text$_ZNK5Eigen20SparseCompressedBaseINS_12SparseMatrixIdLi1EiEEE13innerIndexPtrEv CODE
 0001:001c1710 00000021H .text$_ZNK5Eigen20SparseCompressedBaseINS_12SparseMatrixIdLi1EiEEE13outerIndexPtrEv CODE
 0001:001c1740 0000001dH .text$_ZNK5Eigen12SparseMatrixIdLi1EiE8valuePtrEv CODE
 0001:001c1760 0000001dH .text$_ZNK5Eigen12SparseMatrixIdLi1EiE13innerIndexPtrEv CODE
 0001:001c1780 0000000fH .text$_ZNK5Eigen12SparseMatrixIdLi1EiE13outerIndexPtrEv CODE
 0001:001c1790 00000019H .text$_ZN5Eigen8internal9evaluatorINS_12SparseMatrixIdLi1EiEEED2Ev CODE
 0001:001c17b0 00000019H .text$_ZN5Eigen8internal9evaluatorINS_20SparseCompressedBaseINS_12SparseMatrixIdLi1EiEEEEED2Ev CODE
 0001:001c17d0 00000007H .text$_ZN5Eigen8internal14evaluator_baseINS_12SparseMatrixIdLi1EiEEED2Ev CODE
 0001:001c17e0 0000000fH .text$_ZN5Eigen12SparseMatrixIdLi0EiE13outerIndexPtrEv CODE
 0001:001c17f0 0000001dH .text$_ZN5Eigen12SparseMatrixIdLi0EiE13innerIndexPtrEv CODE
 0001:001c1810 0000001dH .text$_ZN5Eigen12SparseMatrixIdLi0EiE8valuePtrEv CODE
 0001:001c1830 0000000fH .text$_ZN5Eigen12SparseMatrixIdLi0EiE15innerNonZeroPtrEv CODE
 0001:001c1840 0000000fH .text$_ZN5Eigen8internal17CompressedStorageIdiE8indexPtrEv CODE
 0001:001c1850 0000000eH .text$_ZN5Eigen8internal17CompressedStorageIdiE8valuePtrEv CODE
 0001:001c1860 000001c5H .text$_ZN5Eigen13IncompleteLUTIdiE14analyzePatternINS_3RefIKNS_12SparseMatrixIdLi0EiEELi0ENS_11OuterStrideILin1EEEEEEEvRKT_ CODE
 0001:001c1a30 00001669H .text$_ZN5Eigen13IncompleteLUTIdiE9factorizeINS_3RefIKNS_12SparseMatrixIdLi0EiEELi0ENS_11OuterStrideILin1EEEEEEEvRKT_ CODE
 0001:001c30a0 00000023H .text$_ZN5Eigen12SparseMatrixIdLi0EiEC1INS_3RefIKS1_Li0ENS_11OuterStrideILin1EEEEEEERKNS_16SparseMatrixBaseIT_EE CODE
 0001:001c30d0 0000003cH .text$_ZNK5Eigen16SparseMatrixBaseINS_3RefIKNS_12SparseMatrixIdLi0EiEELi0ENS_11OuterStrideILin1EEEEEE9transposeEv CODE
 0001:001c3110 00000023H .text$_ZN5Eigen12SparseMatrixIdLi0EiEC1INS_9TransposeIKNS_3RefIKS1_Li0ENS_11OuterStrideILin1EEEEEEEEERKNS_16SparseMatrixBaseIT_EE CODE
 0001:001c3140 0000006bH .text$_ZNK5Eigen16SparseMatrixBaseINS_12SparseMatrixIdLi0EiEEEplIS2_EEKNS_13CwiseBinaryOpINS_8internal13scalar_sum_opIdNS6_6traitsIT_E6ScalarEEEKS2_KS9_EERKNS0_IS9_EE CODE
 0001:001c31b0 00000023H .text$_ZN5Eigen12SparseMatrixIdLi0EiEC1INS_13CwiseBinaryOpINS_8internal13scalar_sum_opIddEEKS1_S7_EEEERKNS_16SparseMatrixBaseIT_EE CODE
 0001:001c31e0 00000092H .text$_ZN5Eigen11AMDOrderingIiEclINS_12SparseMatrixIdLi0EiEEEEvRKT_RNS_17PermutationMatrixILin1ELin1EiEE CODE
 0001:001c3280 0000002aH .text$_ZNK5Eigen15PermutationBaseINS_17PermutationMatrixILin1ELin1EiEEE7inverseEv CODE
 0001:001c32b0 00000023H .text$_ZN5Eigen17PermutationMatrixILin1ELin1EiEC1IS1_EERKNS_11InverseImplIT_NS_18PermutationStorageEEE CODE
 0001:001c32e0 0000002cH .text$_ZN5Eigen17PermutationMatrixILin1ELin1EiEaSEOS1_ CODE
 0001:001c3310 000000b2H .text$_ZN5Eigen12SparseMatrixIdLi0EiEC2INS_3RefIKS1_Li0ENS_11OuterStrideILin1EEEEEEERKNS_16SparseMatrixBaseIT_EE CODE
 0001:001c33d0 00000046H .text$_ZN5Eigen8internal24call_assignment_no_aliasINS_12SparseMatrixIdLi0EiEENS_3RefIKS3_Li0ENS_11OuterStrideILin1EEEEEEEvRT_RKT0_ CODE
 0001:001c3420 0000000bH .text$_ZNK5Eigen16SparseMatrixBaseINS_3RefIKNS_12SparseMatrixIdLi0EiEELi0ENS_11OuterStrideILin1EEEEEE7derivedEv CODE
 0001:001c3430 00000037H .text$_ZN5Eigen8internal24call_assignment_no_aliasINS_12SparseMatrixIdLi0EiEENS_3RefIKS3_Li0ENS_11OuterStrideILin1EEEEENS0_9assign_opIddEEEEvRT_RKT0_RKT1_ CODE
 0001:001c3470 00000019H .text$_ZN5Eigen8internal9assign_opIddEC1Ev CODE
 0001:001c3490 0000003fH .text$_ZN5Eigen8internal10AssignmentINS_12SparseMatrixIdLi0EiEENS_3RefIKS3_Li0ENS_11OuterStrideILin1EEEEENS0_9assign_opIddEENS0_13Sparse2SparseEvE3runERS3_RKS8_RKSA_ CODE
 0001:001c34d0 00000755H .text$_ZN5Eigen8internal23assign_sparse_to_sparseINS_12SparseMatrixIdLi0EiEENS_3RefIKS3_Li0ENS_11OuterStrideILin1EEEEEEEvRT_RKT0_ CODE
 0001:001c3c30 0000000bH .text$_ZN5Eigen16SparseMatrixBaseINS_12SparseMatrixIdLi0EiEEE7derivedEv CODE
 0001:001c3c40 00000023H .text$_ZN5Eigen8internal9evaluatorINS_3RefIKNS_12SparseMatrixIdLi0EiEELi0ENS_11OuterStrideILin1EEEEEEC1ERKS8_ CODE
 0001:001c3c70 0000000fH .text$_ZNK5Eigen13SparseMapBaseINS_3RefIKNS_12SparseMatrixIdLi0EiEELi0ENS_11OuterStrideILin1EEEEELi0EE4colsEv CODE
 0001:001c3c80 00000012H .text$_ZNK5Eigen16SparseMatrixBaseINS_3RefIKNS_12SparseMatrixIdLi0EiEELi0ENS_11OuterStrideILin1EEEEEE8isRValueEv CODE
 0001:001c3ca0 0000000fH .text$_ZNK5Eigen13SparseMapBaseINS_3RefIKNS_12SparseMatrixIdLi0EiEELi0ENS_11OuterStrideILin1EEEEELi0EE4rowsEv CODE
 0001:001c3cb0 00000066H .text$_ZN5Eigen12SparseMatrixIdLi0EiE7setZeroEv CODE
 0001:001c3d20 00000057H .text$_ZN5Eigen12SparseMatrixIdLi0EiE7reserveEx CODE
 0001:001c3d80 00000028H .text$_ZNSt3__13maxB6v15007IxEERKT_S3_S3_ CODE
 0001:001c3db0 000000b2H .text$_ZN5Eigen12SparseMatrixIdLi0EiE8startVecEx CODE
 0001:001c3e70 0000001cH .text$_ZN5Eigen8internal9evaluatorINS_20SparseCompressedBaseINS_3RefIKNS_12SparseMatrixIdLi0EiEELi0ENS_11OuterStrideILin1EEEEEEEEcvRS9_Ev CODE
 0001:001c3e90 0000002dH .text$_ZN5Eigen20SparseCompressedBaseINS_3RefIKNS_12SparseMatrixIdLi0EiEELi0ENS_11OuterStrideILin1EEEEEE13InnerIteratorC1ERKS8_x CODE
 0001:001c3ec0 0000001bH .text$_ZNK5Eigen20SparseCompressedBaseINS_3RefIKNS_12SparseMatrixIdLi0EiEELi0ENS_11OuterStrideILin1EEEEEE13InnerIteratorcvbEv CODE
 0001:001c3ee0 00000019H .text$_ZNK5Eigen20SparseCompressedBaseINS_3RefIKNS_12SparseMatrixIdLi0EiEELi0ENS_11OuterStrideILin1EEEEEE13InnerIterator5valueEv CODE
 0001:001c3f00 00000140H .text$_ZN5Eigen12SparseMatrixIdLi0EiE22insertBackByOuterInnerExx CODE
 0001:001c4040 00000016H .text$_ZNK5Eigen20SparseCompressedBaseINS_3RefIKNS_12SparseMatrixIdLi0EiEELi0ENS_11OuterStrideILin1EEEEEE13InnerIterator5indexEv CODE
 0001:001c4060 00000017H .text$_ZN5Eigen20SparseCompressedBaseINS_3RefIKNS_12SparseMatrixIdLi0EiEELi0ENS_11OuterStrideILin1EEEEEE13InnerIteratorppEv CODE
 0001:001c4080 000000f9H .text$_ZN5Eigen12SparseMatrixIdLi0EiE8finalizeEv CODE
 0001:001c4180 0000001cH .text$_ZN5Eigen16SparseMatrixBaseINS_12SparseMatrixIdLi0EiEEE12markAsRValueEv CODE
 0001:001c41a0 000000efH .text$_ZN5Eigen12SparseMatrixIdLi0EiEaSERKS1_ CODE
 0001:001c4290 00000019H .text$_ZN5Eigen8internal9evaluatorINS_3RefIKNS_12SparseMatrixIdLi0EiEELi0ENS_11OuterStrideILin1EEEEEED1Ev CODE
 0001:001c42b0 00000023H .text$_ZN5Eigen8internal9evaluatorINS_3RefIKNS_12SparseMatrixIdLi0EiEELi0ENS_11OuterStrideILin1EEEEEEC2ERKS8_ CODE
 0001:001c42e0 00000037H .text$_ZN5Eigen8internal9evaluatorINS_20SparseCompressedBaseINS_3RefIKNS_12SparseMatrixIdLi0EiEELi0ENS_11OuterStrideILin1EEEEEEEEC2ERKS9_ CODE
 0001:001c4320 00000007H .text$_ZN5Eigen8internal14evaluator_baseINS_3RefIKNS_12SparseMatrixIdLi0EiEELi0ENS_11OuterStrideILin1EEEEEEC2Ev CODE
 0001:001c4330 00000057H .text$_ZNSt3__13maxB6v15007IxNS_6__lessIxxEEEERKT_S5_S5_T0_ CODE
 0001:001c4390 0000000fH .text$_ZNK5Eigen8internal17CompressedStorageIdiE4sizeEv CODE
 0001:001c43a0 0000000bH .text$_ZNK5Eigen16SparseMatrixBaseINS_3RefIKNS_12SparseMatrixIdLi0EiEELi0ENS_11OuterStrideILin1EEEEEE18const_cast_derivedEv CODE
 0001:001c43b0 000000e8H .text$_ZN5Eigen20SparseCompressedBaseINS_3RefIKNS_12SparseMatrixIdLi0EiEELi0ENS_11OuterStrideILin1EEEEEE13InnerIteratorC2ERKS8_x CODE
 0001:001c44a0 00000021H .text$_ZNK5Eigen20SparseCompressedBaseINS_3RefIKNS_12SparseMatrixIdLi0EiEELi0ENS_11OuterStrideILin1EEEEEE8valuePtrEv CODE
 0001:001c44d0 00000021H .text$_ZNK5Eigen20SparseCompressedBaseINS_3RefIKNS_12SparseMatrixIdLi0EiEELi0ENS_11OuterStrideILin1EEEEEE13innerIndexPtrEv CODE
 0001:001c4500 00000021H .text$_ZNK5Eigen20SparseCompressedBaseINS_3RefIKNS_12SparseMatrixIdLi0EiEELi0ENS_11OuterStrideILin1EEEEEE13outerIndexPtrEv CODE
 0001:001c4530 00000024H .text$_ZNK5Eigen20SparseCompressedBaseINS_3RefIKNS_12SparseMatrixIdLi0EiEELi0ENS_11OuterStrideILin1EEEEEE12isCompressedEv CODE
 0001:001c4560 00000021H .text$_ZNK5Eigen20SparseCompressedBaseINS_3RefIKNS_12SparseMatrixIdLi0EiEELi0ENS_11OuterStrideILin1EEEEEE15innerNonZeroPtrEv CODE
 0001:001c4590 0000000fH .text$_ZNK5Eigen13SparseMapBaseINS_3RefIKNS_12SparseMatrixIdLi0EiEELi0ENS_11OuterStrideILin1EEEEELi0EE8valuePtrEv CODE
 0001:001c45a0 0000000fH .text$_ZNK5Eigen13SparseMapBaseINS_3RefIKNS_12SparseMatrixIdLi0EiEELi0ENS_11OuterStrideILin1EEEEELi0EE13innerIndexPtrEv CODE
 0001:001c45b0 0000000fH .text$_ZNK5Eigen13SparseMapBaseINS_3RefIKNS_12SparseMatrixIdLi0EiEELi0ENS_11OuterStrideILin1EEEEELi0EE13outerIndexPtrEv CODE
 0001:001c45c0 0000000fH .text$_ZNK5Eigen13SparseMapBaseINS_3RefIKNS_12SparseMatrixIdLi0EiEELi0ENS_11OuterStrideILin1EEEEELi0EE15innerNonZeroPtrEv CODE
 0001:001c45d0 00000078H .text$_ZN5Eigen8internal17CompressedStorageIdiE6appendERKdx CODE
 0001:001c4650 00000012H .text$_ZNK5Eigen16SparseMatrixBaseINS_12SparseMatrixIdLi0EiEEE8isRValueEv CODE
 0001:001c4670 00000073H .text$_ZN5Eigen12SparseMatrixIdLi0EiE14initAssignmentIS1_EEvRKT_ CODE
 0001:001c46f0 000000a3H .text$_ZN5Eigen8internal17CompressedStorageIdiEaSERKS2_ CODE
 0001:001c47a0 00000049H .text$_ZN5Eigen16SparseMatrixBaseINS_12SparseMatrixIdLi0EiEEEaSERKS2_ CODE
 0001:001c47f0 00000046H .text$_ZN5Eigen8internal24call_assignment_no_aliasINS_12SparseMatrixIdLi0EiEES3_EEvRT_RKT0_ CODE
 0001:001c4840 00000037H .text$_ZN5Eigen8internal24call_assignment_no_aliasINS_12SparseMatrixIdLi0EiEES3_NS0_9assign_opIddEEEEvRT_RKT0_RKT1_ CODE
 0001:001c4880 0000003fH .text$_ZN5Eigen8internal10AssignmentINS_12SparseMatrixIdLi0EiEES3_NS0_9assign_opIddEENS0_13Sparse2SparseEvE3runERS3_RKS3_RKS5_ CODE
 0001:001c48c0 00000608H .text$_ZN5Eigen8internal23assign_sparse_to_sparseINS_12SparseMatrixIdLi0EiEES3_EEvRT_RKT0_ CODE
 0001:001c4ed0 00000019H .text$_ZN5Eigen8internal9evaluatorINS_3RefIKNS_12SparseMatrixIdLi0EiEELi0ENS_11OuterStrideILin1EEEEEED2Ev CODE
 0001:001c4ef0 00000019H .text$_ZN5Eigen8internal9evaluatorINS_20SparseCompressedBaseINS_3RefIKNS_12SparseMatrixIdLi0EiEELi0ENS_11OuterStrideILin1EEEEEEEED2Ev CODE
 0001:001c4f10 00000007H .text$_ZN5Eigen8internal14evaluator_baseINS_3RefIKNS_12SparseMatrixIdLi0EiEELi0ENS_11OuterStrideILin1EEEEEED2Ev CODE
 0001:001c4f20 00000007H .text$_ZN5Eigen8internal9assign_opIddEC2Ev CODE
 0001:001c4f30 00000023H .text$_ZN5Eigen9TransposeIKNS_3RefIKNS_12SparseMatrixIdLi0EiEELi0ENS_11OuterStrideILin1EEEEEEC1ERS8_ CODE
 0001:001c4f60 00000030H .text$_ZN5Eigen9TransposeIKNS_3RefIKNS_12SparseMatrixIdLi0EiEELi0ENS_11OuterStrideILin1EEEEEEC2ERS8_ CODE
 0001:001c4f90 00000019H .text$_ZN5Eigen13TransposeImplIKNS_3RefIKNS_12SparseMatrixIdLi0EiEELi0ENS_11OuterStrideILin1EEEEENS_6SparseEEC2Ev CODE
 0001:001c4fb0 00000019H .text$_ZN5Eigen8internal19SparseTransposeImplIKNS_3RefIKNS_12SparseMatrixIdLi0EiEELi0ENS_11OuterStrideILin1EEEEELi1024EEC2Ev CODE
 0001:001c4fd0 00000019H .text$_ZN5Eigen20SparseCompressedBaseINS_9TransposeIKNS_3RefIKNS_12SparseMatrixIdLi0EiEELi0ENS_11OuterStrideILin1EEEEEEEEC2Ev CODE
 0001:001c4ff0 0000000eH .text$_ZN5Eigen16SparseMatrixBaseINS_9TransposeIKNS_3RefIKNS_12SparseMatrixIdLi0EiEELi0ENS_11OuterStrideILin1EEEEEEEEC2Ev CODE
 0001:001c5000 000000b2H .text$_ZN5Eigen12SparseMatrixIdLi0EiEC2INS_9TransposeIKNS_3RefIKS1_Li0ENS_11OuterStrideILin1EEEEEEEEERKNS_16SparseMatrixBaseIT_EE CODE
 0001:001c50c0 0000000bH .text$_ZNK5Eigen16SparseMatrixBaseINS_9TransposeIKNS_3RefIKNS_12SparseMatrixIdLi0EiEELi0ENS_11OuterStrideILin1EEEEEEEE7derivedEv CODE
 0001:001c50d0 00000584H .text$_ZN5Eigen12SparseMatrixIdLi0EiEaSINS_9TransposeIKNS_3RefIKS1_Li0ENS_11OuterStrideILin1EEEEEEEEERS1_RKNS_16SparseMatrixBaseIT_EE CODE
 0001:001c5660 00000023H .text$_ZN5Eigen8internal9evaluatorINS_9TransposeIKNS_3RefIKNS_12SparseMatrixIdLi0EiEELi0ENS_11OuterStrideILin1EEEEEEEEC1ERKSB_ CODE
 0001:001c5690 00000021H .text$_ZNK5Eigen16SparseMatrixBaseINS_9TransposeIKNS_3RefIKNS_12SparseMatrixIdLi0EiEELi0ENS_11OuterStrideILin1EEEEEEEE4rowsEv CODE
 0001:001c56c0 00000021H .text$_ZNK5Eigen16SparseMatrixBaseINS_9TransposeIKNS_3RefIKNS_12SparseMatrixIdLi0EiEELi0ENS_11OuterStrideILin1EEEEEEEE4colsEv CODE
 0001:001c56f0 00000019H .text$_ZNK5Eigen16SparseMatrixBaseINS_9TransposeIKNS_3RefIKNS_12SparseMatrixIdLi0EiEELi0ENS_11OuterStrideILin1EEEEEEEE9outerSizeEv CODE
 0001:001c5710 0000002dH .text$_ZN5Eigen8internal15unary_evaluatorINS_9TransposeIKNS_3RefIKNS_12SparseMatrixIdLi0EiEELi0ENS_11OuterStrideILin1EEEEEEENS0_13IteratorBasedEdE13InnerIteratorC1ERKSD_x CODE
 0001:001c5740 00000019H .text$_ZN5Eigen8internal9evaluatorINS_9TransposeIKNS_3RefIKNS_12SparseMatrixIdLi0EiEELi0ENS_11OuterStrideILin1EEEEEEEED1Ev CODE
 0001:001c5760 00000023H .text$_ZN5Eigen8internal9evaluatorINS_9TransposeIKNS_3RefIKNS_12SparseMatrixIdLi0EiEELi0ENS_11OuterStrideILin1EEEEEEEEC2ERKSB_ CODE
 0001:001c5790 0000007dH .text$_ZN5Eigen8internal15unary_evaluatorINS_9TransposeIKNS_3RefIKNS_12SparseMatrixIdLi0EiEELi0ENS_11OuterStrideILin1EEEEEEENS0_13IteratorBasedEdEC2ERKSB_ CODE
 0001:001c5810 00000007H .text$_ZN5Eigen8internal14evaluator_baseINS_9TransposeIKNS_3RefIKNS_12SparseMatrixIdLi0EiEELi0ENS_11OuterStrideILin1EEEEEEEEC2Ev CODE
 0001:001c5820 0000000fH .text$_ZNK5Eigen9TransposeIKNS_3RefIKNS_12SparseMatrixIdLi0EiEELi0ENS_11OuterStrideILin1EEEEEE16nestedExpressionEv CODE
 0001:001c5830 00000023H .text$_ZN5Eigen8internal9evaluatorIKNS_3RefIKNS_12SparseMatrixIdLi0EiEELi0ENS_11OuterStrideILin1EEEEEEC1ERS9_ CODE
 0001:001c5860 00000007H .text$_ZN5Eigen8internal14evaluator_baseINS_9TransposeIKNS_3RefIKNS_12SparseMatrixIdLi0EiEELi0ENS_11OuterStrideILin1EEEEEEEED2Ev CODE
 0001:001c5870 00000023H .text$_ZN5Eigen8internal9evaluatorIKNS_3RefIKNS_12SparseMatrixIdLi0EiEELi0ENS_11OuterStrideILin1EEEEEEC2ERS9_ CODE
 0001:001c58a0 0000001dH .text$_ZNK5Eigen9TransposeIKNS_3RefIKNS_12SparseMatrixIdLi0EiEELi0ENS_11OuterStrideILin1EEEEEE4rowsEv CODE
 0001:001c58c0 0000001dH .text$_ZNK5Eigen9TransposeIKNS_3RefIKNS_12SparseMatrixIdLi0EiEELi0ENS_11OuterStrideILin1EEEEEE4colsEv CODE
 0001:001c58e0 0000003fH .text$_ZN5Eigen8internal15unary_evaluatorINS_9TransposeIKNS_3RefIKNS_12SparseMatrixIdLi0EiEELi0ENS_11OuterStrideILin1EEEEEEENS0_13IteratorBasedEdE13InnerIteratorC2ERKSD_x CODE
 0001:001c5920 0000000eH .text$_ZNK5Eigen8internal9evaluatorINS_20SparseCompressedBaseINS_3RefIKNS_12SparseMatrixIdLi0EiEELi0ENS_11OuterStrideILin1EEEEEEEEcvRKS9_Ev CODE
 0001:001c5930 00000019H .text$_ZN5Eigen8internal9evaluatorINS_9TransposeIKNS_3RefIKNS_12SparseMatrixIdLi0EiEELi0ENS_11OuterStrideILin1EEEEEEEED2Ev CODE
 0001:001c5950 00000028H .text$_ZN5Eigen8internal15unary_evaluatorINS_9TransposeIKNS_3RefIKNS_12SparseMatrixIdLi0EiEELi0ENS_11OuterStrideILin1EEEEEEENS0_13IteratorBasedEdED2Ev CODE
 0001:001c5980 00000019H .text$_ZN5Eigen8internal9evaluatorIKNS_3RefIKNS_12SparseMatrixIdLi0EiEELi0ENS_11OuterStrideILin1EEEEEED1Ev CODE
 0001:001c59a0 00000019H .text$_ZN5Eigen8internal9evaluatorIKNS_3RefIKNS_12SparseMatrixIdLi0EiEELi0ENS_11OuterStrideILin1EEEEEED2Ev CODE
 0001:001c59c0 00000037H .text$_ZN5Eigen13CwiseBinaryOpINS_8internal13scalar_sum_opIddEEKNS_12SparseMatrixIdLi0EiEES6_EC1ERS6_S8_RKS3_ CODE
 0001:001c5a00 000000bfH .text$_ZN5Eigen13CwiseBinaryOpINS_8internal13scalar_sum_opIddEEKNS_12SparseMatrixIdLi0EiEES6_EC2ERS6_S8_RKS3_ CODE
 0001:001c5ac0 00000019H .text$_ZN5Eigen17CwiseBinaryOpImplINS_8internal13scalar_sum_opIddEEKNS_12SparseMatrixIdLi0EiEES6_NS_6SparseEEC2Ev CODE
 0001:001c5ae0 0000000eH .text$_ZN5Eigen16SparseMatrixBaseINS_13CwiseBinaryOpINS_8internal13scalar_sum_opIddEEKNS_12SparseMatrixIdLi0EiEES7_EEEC2Ev CODE
 0001:001c5af0 000000b2H .text$_ZN5Eigen12SparseMatrixIdLi0EiEC2INS_13CwiseBinaryOpINS_8internal13scalar_sum_opIddEEKS1_S7_EEEERKNS_16SparseMatrixBaseIT_EE CODE
 0001:001c5bb0 00000046H .text$_ZN5Eigen8internal24call_assignment_no_aliasINS_12SparseMatrixIdLi0EiEENS_13CwiseBinaryOpINS0_13scalar_sum_opIddEEKS3_S7_EEEEvRT_RKT0_ CODE
 0001:001c5c00 0000000bH .text$_ZNK5Eigen16SparseMatrixBaseINS_13CwiseBinaryOpINS_8internal13scalar_sum_opIddEEKNS_12SparseMatrixIdLi0EiEES7_EEE7derivedEv CODE
 0001:001c5c10 00000037H .text$_ZN5Eigen8internal24call_assignment_no_aliasINS_12SparseMatrixIdLi0EiEENS_13CwiseBinaryOpINS0_13scalar_sum_opIddEEKS3_S7_EENS0_9assign_opIddEEEEvRT_RKT0_RKT1_ CODE
 0001:001c5c50 0000003fH .text$_ZN5Eigen8internal10AssignmentINS_12SparseMatrixIdLi0EiEENS_13CwiseBinaryOpINS0_13scalar_sum_opIddEEKS3_S7_EENS0_9assign_opIddEENS0_13Sparse2SparseEvE3runERS3_RKS8_RKSA_ CODE
 0001:001c5c90 00000653H .text$_ZN5Eigen8internal23assign_sparse_to_sparseINS_12SparseMatrixIdLi0EiEENS_13CwiseBinaryOpINS0_13scalar_sum_opIddEEKS3_S7_EEEEvRT_RKT0_ CODE
 0001:001c62f0 00000023H .text$_ZN5Eigen8internal9evaluatorINS_13CwiseBinaryOpINS0_13scalar_sum_opIddEEKNS_12SparseMatrixIdLi0EiEES7_EEEC1ERKS8_ CODE
 0001:001c6320 0000001dH .text$_ZNK5Eigen13CwiseBinaryOpINS_8internal13scalar_sum_opIddEEKNS_12SparseMatrixIdLi0EiEES6_E4colsEv CODE
 0001:001c6340 00000012H .text$_ZNK5Eigen16SparseMatrixBaseINS_13CwiseBinaryOpINS_8internal13scalar_sum_opIddEEKNS_12SparseMatrixIdLi0EiEES7_EEE8isRValueEv CODE
 0001:001c6360 0000001dH .text$_ZNK5Eigen13CwiseBinaryOpINS_8internal13scalar_sum_opIddEEKNS_12SparseMatrixIdLi0EiEES6_E4rowsEv CODE
 0001:001c6380 0000002dH .text$_ZN5Eigen8internal16binary_evaluatorINS_13CwiseBinaryOpINS0_13scalar_sum_opIddEEKNS_12SparseMatrixIdLi0EiEES7_EENS0_13IteratorBasedES9_ddE13InnerIteratorC1ERKSA_x CODE
 0001:001c63b0 00000017H .text$_ZNK5Eigen8internal16binary_evaluatorINS_13CwiseBinaryOpINS0_13scalar_sum_opIddEEKNS_12SparseMatrixIdLi0EiEES7_EENS0_13IteratorBasedES9_ddE13InnerIteratorcvbEv CODE
 0001:001c63d0 00000010H .text$_ZNK5Eigen8internal16binary_evaluatorINS_13CwiseBinaryOpINS0_13scalar_sum_opIddEEKNS_12SparseMatrixIdLi0EiEES7_EENS0_13IteratorBasedES9_ddE13InnerIterator5valueEv CODE
 0001:001c63e0 0000000eH .text$_ZNK5Eigen8internal16binary_evaluatorINS_13CwiseBinaryOpINS0_13scalar_sum_opIddEEKNS_12SparseMatrixIdLi0EiEES7_EENS0_13IteratorBasedES9_ddE13InnerIterator5indexEv CODE
 0001:001c63f0 0000025bH .text$_ZN5Eigen8internal16binary_evaluatorINS_13CwiseBinaryOpINS0_13scalar_sum_opIddEEKNS_12SparseMatrixIdLi0EiEES7_EENS0_13IteratorBasedES9_ddE13InnerIteratorppEv CODE
 0001:001c6650 00000019H .text$_ZN5Eigen8internal9evaluatorINS_13CwiseBinaryOpINS0_13scalar_sum_opIddEEKNS_12SparseMatrixIdLi0EiEES7_EEED1Ev CODE
 0001:001c6670 00000023H .text$_ZN5Eigen8internal9evaluatorINS_13CwiseBinaryOpINS0_13scalar_sum_opIddEEKNS_12SparseMatrixIdLi0EiEES7_EEEC2ERKS8_ CODE
 0001:001c66a0 00000112H .text$_ZN5Eigen8internal16binary_evaluatorINS_13CwiseBinaryOpINS0_13scalar_sum_opIddEEKNS_12SparseMatrixIdLi0EiEES7_EENS0_13IteratorBasedES9_ddEC2ERKS8_ CODE
 0001:001c67c0 00000007H .text$_ZN5Eigen8internal14evaluator_baseINS_13CwiseBinaryOpINS0_13scalar_sum_opIddEEKNS_12SparseMatrixIdLi0EiEES7_EEEC2Ev CODE
 0001:001c67d0 0000000fH .text$_ZNK5Eigen13CwiseBinaryOpINS_8internal13scalar_sum_opIddEEKNS_12SparseMatrixIdLi0EiEES6_E7functorEv CODE
 0001:001c67e0 0000000fH .text$_ZNK5Eigen13CwiseBinaryOpINS_8internal13scalar_sum_opIddEEKNS_12SparseMatrixIdLi0EiEES6_E3lhsEv CODE
 0001:001c67f0 00000023H .text$_ZN5Eigen8internal9evaluatorIKNS_12SparseMatrixIdLi0EiEEEC1ERS4_ CODE
 0001:001c6820 0000000fH .text$_ZNK5Eigen13CwiseBinaryOpINS_8internal13scalar_sum_opIddEEKNS_12SparseMatrixIdLi0EiEES6_E3rhsEv CODE
 0001:001c6830 00000019H .text$_ZN5Eigen8internal9evaluatorIKNS_12SparseMatrixIdLi0EiEEED1Ev CODE
 0001:001c6850 00000007H .text$_ZN5Eigen8internal14evaluator_baseINS_13CwiseBinaryOpINS0_13scalar_sum_opIddEEKNS_12SparseMatrixIdLi0EiEES7_EEED2Ev CODE
 0001:001c6860 00000023H .text$_ZN5Eigen8internal9evaluatorIKNS_12SparseMatrixIdLi0EiEEEC2ERS4_ CODE
 0001:001c6890 00000019H .text$_ZN5Eigen8internal9evaluatorIKNS_12SparseMatrixIdLi0EiEEED2Ev CODE
 0001:001c68b0 00000084H .text$_ZN5Eigen8internal16binary_evaluatorINS_13CwiseBinaryOpINS0_13scalar_sum_opIddEEKNS_12SparseMatrixIdLi0EiEES7_EENS0_13IteratorBasedES9_ddE13InnerIteratorC2ERKSA_x CODE
 0001:001c6940 0000000eH .text$_ZNK5Eigen8internal9evaluatorINS_20SparseCompressedBaseINS_12SparseMatrixIdLi0EiEEEEEcvRKS4_Ev CODE
 0001:001c6950 00000019H .text$_ZN5Eigen8internal9evaluatorINS_13CwiseBinaryOpINS0_13scalar_sum_opIddEEKNS_12SparseMatrixIdLi0EiEES7_EEED2Ev CODE
 0001:001c6970 0000003aH .text$_ZN5Eigen8internal16binary_evaluatorINS_13CwiseBinaryOpINS0_13scalar_sum_opIddEEKNS_12SparseMatrixIdLi0EiEES7_EENS0_13IteratorBasedES9_ddED2Ev CODE
 0001:001c69b0 00000019H .text$_ZN5Eigen12SparseMatrixIdLi0EiEC1Ev CODE
 0001:001c69d0 00000193H .text$_ZN5Eigen8internal25ordering_helper_at_plus_aINS_12SparseMatrixIdLi0EiEEEEvRKT_RS4_ CODE
 0001:001c6b70 00001ea6H .text$_ZN5Eigen8internal23minimum_degree_orderingIdiEEvRNS_12SparseMatrixIT_Li0ET0_EERNS_17PermutationMatrixILin1ELin1ES4_EE CODE
 0001:001c8a20 00000097H .text$_ZN5Eigen12SparseMatrixIdLi0EiEC2Ev CODE
 0001:001c8ac0 0000003cH .text$_ZNK5Eigen16SparseMatrixBaseINS_12SparseMatrixIdLi0EiEEE9transposeEv CODE
 0001:001c8b00 00000584H .text$_ZN5Eigen12SparseMatrixIdLi0EiEaSINS_9TransposeIKS1_EEEERS1_RKNS_16SparseMatrixBaseIT_EE CODE
 0001:001c9090 00000019H .text$_ZN5Eigen20SparseCompressedBaseINS_12SparseMatrixIdLi0EiEEE13InnerIterator8valueRefEv CODE
 0001:001c90b0 00000068H .text$_ZN5Eigen12SparseMatrixIdLi0EiEaSINS_13CwiseBinaryOpINS_8internal13scalar_sum_opIddEEKS1_S7_EEEERS1_RKNS_16SparseMatrixBaseIT_EE CODE
 0001:001c9120 00000023H .text$_ZN5Eigen9TransposeIKNS_12SparseMatrixIdLi0EiEEEC1ERS3_ CODE
 0001:001c9150 00000030H .text$_ZN5Eigen9TransposeIKNS_12SparseMatrixIdLi0EiEEEC2ERS3_ CODE
 0001:001c9180 00000019H .text$_ZN5Eigen13TransposeImplIKNS_12SparseMatrixIdLi0EiEENS_6SparseEEC2Ev CODE
 0001:001c91a0 00000019H .text$_ZN5Eigen8internal19SparseTransposeImplIKNS_12SparseMatrixIdLi0EiEELi1024EEC2Ev CODE
 0001:001c91c0 00000019H .text$_ZN5Eigen20SparseCompressedBaseINS_9TransposeIKNS_12SparseMatrixIdLi0EiEEEEEC2Ev CODE
 0001:001c91e0 0000000eH .text$_ZN5Eigen16SparseMatrixBaseINS_9TransposeIKNS_12SparseMatrixIdLi0EiEEEEEC2Ev CODE
 0001:001c91f0 0000000bH .text$_ZNK5Eigen16SparseMatrixBaseINS_9TransposeIKNS_12SparseMatrixIdLi0EiEEEEE7derivedEv CODE
 0001:001c9200 00000023H .text$_ZN5Eigen8internal9evaluatorINS_9TransposeIKNS_12SparseMatrixIdLi0EiEEEEEC1ERKS6_ CODE
 0001:001c9230 00000021H .text$_ZNK5Eigen16SparseMatrixBaseINS_9TransposeIKNS_12SparseMatrixIdLi0EiEEEEE4rowsEv CODE
 0001:001c9260 00000021H .text$_ZNK5Eigen16SparseMatrixBaseINS_9TransposeIKNS_12SparseMatrixIdLi0EiEEEEE4colsEv CODE
 0001:001c9290 00000019H .text$_ZNK5Eigen16SparseMatrixBaseINS_9TransposeIKNS_12SparseMatrixIdLi0EiEEEEE9outerSizeEv CODE
 0001:001c92b0 0000002dH .text$_ZN5Eigen8internal15unary_evaluatorINS_9TransposeIKNS_12SparseMatrixIdLi0EiEEEENS0_13IteratorBasedEdE13InnerIteratorC1ERKS8_x CODE
 0001:001c92e0 00000019H .text$_ZN5Eigen8internal9evaluatorINS_9TransposeIKNS_12SparseMatrixIdLi0EiEEEEED1Ev CODE
 0001:001c9300 00000023H .text$_ZN5Eigen8internal9evaluatorINS_9TransposeIKNS_12SparseMatrixIdLi0EiEEEEEC2ERKS6_ CODE
 0001:001c9330 0000007dH .text$_ZN5Eigen8internal15unary_evaluatorINS_9TransposeIKNS_12SparseMatrixIdLi0EiEEEENS0_13IteratorBasedEdEC2ERKS6_ CODE
 0001:001c93b0 00000007H .text$_ZN5Eigen8internal14evaluator_baseINS_9TransposeIKNS_12SparseMatrixIdLi0EiEEEEEC2Ev CODE
 0001:001c93c0 0000000fH .text$_ZNK5Eigen9TransposeIKNS_12SparseMatrixIdLi0EiEEE16nestedExpressionEv CODE
 0001:001c93d0 00000007H .text$_ZN5Eigen8internal14evaluator_baseINS_9TransposeIKNS_12SparseMatrixIdLi0EiEEEEED2Ev CODE
 0001:001c93e0 0000001dH .text$_ZNK5Eigen9TransposeIKNS_12SparseMatrixIdLi0EiEEE4rowsEv CODE
 0001:001c9400 0000001dH .text$_ZNK5Eigen9TransposeIKNS_12SparseMatrixIdLi0EiEEE4colsEv CODE
 0001:001c9420 0000003fH .text$_ZN5Eigen8internal15unary_evaluatorINS_9TransposeIKNS_12SparseMatrixIdLi0EiEEEENS0_13IteratorBasedEdE13InnerIteratorC2ERKS8_x CODE
 0001:001c9460 00000019H .text$_ZN5Eigen8internal9evaluatorINS_9TransposeIKNS_12SparseMatrixIdLi0EiEEEEED2Ev CODE
 0001:001c9480 00000028H .text$_ZN5Eigen8internal15unary_evaluatorINS_9TransposeIKNS_12SparseMatrixIdLi0EiEEEENS0_13IteratorBasedEdED2Ev CODE
 0001:001c94b0 00000073H .text$_ZN5Eigen12SparseMatrixIdLi0EiE14initAssignmentINS_13CwiseBinaryOpINS_8internal13scalar_sum_opIddEEKS1_S7_EEEEvRKT_ CODE
 0001:001c9530 0000005fH .text$_ZN5Eigen16SparseMatrixBaseINS_12SparseMatrixIdLi0EiEEEaSINS_13CwiseBinaryOpINS_8internal13scalar_sum_opIddEEKS2_S9_EEEERS2_RKNS0_IT_EE CODE
 0001:001c9590 00000028H .text$_ZNSt3__13minB6v15007IiEERKT_S3_S3_ CODE
 0001:001c95c0 0000002bH .text$_ZN5Eigen15PermutationBaseINS_17PermutationMatrixILin1ELin1EiEEE6resizeEx CODE
 0001:001c95f0 0000002aH .text$_ZN5Eigen12SparseMatrixIdLi0EiE14resizeNonZerosEx CODE
 0001:001c9620 0000003fH .text$_ZN5Eigen8internal28aligned_stack_memory_handlerIiEC1EPiyb CODE
 0001:001c9660 0000000bH .text$_ZN5Eigen17PermutationMatrixILin1ELin1EiE7indicesEv CODE
 0001:001c9670 00000012H .text$_ZN5Eigen8internal8amd_flipIiEET_RKS2_ CODE
 0001:001c9690 00000121H .text$_ZN5Eigen8internal7cs_tdfsIiEET_S2_S2_PS2_PKS2_S3_S3_ CODE
 0001:001c97c0 00000023H .text$_ZN5Eigen15PlainObjectBaseINS_6MatrixIiLin1ELi1ELi0ELin1ELi1EEEE18conservativeResizeEx CODE
 0001:001c97f0 00000019H .text$_ZN5Eigen8internal28aligned_stack_memory_handlerIiED1Ev CODE
 0001:001c9810 00000057H .text$_ZNSt3__13minB6v15007IiNS_6__lessIiiEEEERKT_S5_S5_T0_ CODE
 0001:001c9870 00000021H .text$_ZN5Eigen15PermutationBaseINS_17PermutationMatrixILin1ELin1EiEEE7indicesEv CODE
 0001:001c98a0 0000000bH .text$_ZN5Eigen9EigenBaseINS_17PermutationMatrixILin1ELin1EiEEE7derivedEv CODE
 0001:001c98b0 00000050H .text$_ZN5Eigen8internal28aligned_stack_memory_handlerIiEC2EPiyb CODE
 0001:001c9900 00000049H .text$_ZN5Eigen8internal29conservative_resize_like_implINS_6MatrixIiLin1ELi1ELi0ELin1ELi1EEES3_Lb1EE3runERNS_9DenseBaseIS3_EEx CODE
 0001:001c9950 00000050H .text$_ZN5Eigen12DenseStorageIiLin1ELin1ELi1ELi0EE18conservativeResizeExxx CODE
 0001:001c99a0 00000086H .text$_ZN5Eigen8internal36conditional_aligned_realloc_new_autoIiLb1EEEPT_S3_yy CODE
 0001:001c9a30 0000002dH .text$_ZN5Eigen8internal27conditional_aligned_reallocILb1EEEPvS2_yy CODE
 0001:001c9a60 00000058H .text$_ZN5Eigen8internal15aligned_reallocEPvyy CODE
 0001:001c9ac0 00000007H .text$_ZN5Eigen8internal22ignore_unused_variableIyEEvRKT_ CODE
 0001:001c9ad0 0000004dH .text$_ZN5Eigen8internal28aligned_stack_memory_handlerIiED2Ev CODE
 0001:001c9b20 0000000bH .text$_ZNK5Eigen9EigenBaseINS_17PermutationMatrixILin1ELin1EiEEE7derivedEv CODE
 0001:001c9b30 00000023H .text$_ZN5Eigen7InverseINS_17PermutationMatrixILin1ELin1EiEEEC1ERKS2_ CODE
 0001:001c9b60 0000002fH .text$_ZN5Eigen7InverseINS_17PermutationMatrixILin1ELin1EiEEEC2ERKS2_ CODE
 0001:001c9b90 00000007H .text$_ZN5Eigen11InverseImplINS_17PermutationMatrixILin1ELin1EiEENS_18PermutationStorageEEC2Ev CODE
 0001:001c9ba0 00000158H .text$_ZN5Eigen17PermutationMatrixILin1ELin1EiEC2IS1_EERKNS_11InverseImplIT_NS_18PermutationStorageEEE CODE
 0001:001c9d00 0000000bH .text$_ZNK5Eigen9EigenBaseINS_7InverseINS_17PermutationMatrixILin1ELin1EiEEEEE7derivedEv CODE
 0001:001c9d10 0000000eH .text$_ZNK5Eigen7InverseINS_17PermutationMatrixILin1ELin1EiEEE16nestedExpressionEv CODE
 0001:001c9d20 00000021H .text$_ZNK5Eigen15PermutationBaseINS_17PermutationMatrixILin1ELin1EiEEE4sizeEv CODE
 0001:001c9d50 00000029H .text$_ZN5Eigen15PlainObjectBaseINS_6MatrixIiLin1ELi1ELi0ELin1ELi1EEEE8coeffRefEx CODE
 0001:001c9d80 0000000bH .text$_ZNK5Eigen17PermutationMatrixILin1ELin1EiE7indicesEv CODE
 0001:001c9d90 00000029H .text$_ZNK5Eigen15PlainObjectBaseINS_6MatrixIiLin1ELi1ELi0ELin1ELi1EEEE5coeffEx CODE
 0001:001c9dc0 00000021H .text$_ZNK5Eigen15PermutationBaseINS_17PermutationMatrixILin1ELin1EiEEE7indicesEv CODE
 0001:001c9df0 0000002cH .text$_ZN5Eigen6MatrixIiLin1ELi1ELi0ELin1ELi1EEaSEOS1_ CODE
 0001:001c9e20 00000036H .text$_ZN5Eigen15PlainObjectBaseINS_6MatrixIiLin1ELi1ELi0ELin1ELi1EEEEaSEOS3_ CODE
 0001:001c9e60 00000056H .text$_ZN5Eigen12DenseStorageIiLin1ELin1ELi1ELi0EEaSEOS1_ CODE
 0001:001c9ec0 00000023H .text$_ZN5Eigen6numext4swapIPiEEvRT_S4_ CODE
 0001:001c9ef0 00000023H .text$_ZN5Eigen6numext4swapIxEEvRT_S3_ CODE
 0001:001c9f20 00000023H .text$_ZN5Eigen6MatrixIdLin1ELi1ELi0ELin1ELi1EEC1IxEERKT_ CODE
 0001:001c9f50 00000046H .text$_ZNK5Eigen16SparseMatrixBaseINS_3RefIKNS_12SparseMatrixIdLi0EiEELi0ENS_11OuterStrideILin1EEEEEE9twistedByERKNS_17PermutationMatrixILin1ELin1EiEE CODE
 0001:001c9fa0 00000035H .text$_ZN5Eigen12SparseMatrixIdLi1EiEaSINS_33SparseSymmetricPermutationProductINS_3RefIKNS0_IdLi0EiEELi0ENS_11OuterStrideILin1EEEEELi3EEEEERS1_RKNS_9EigenBaseIT_EE CODE
 0001:001c9fe0 00000023H .text$_ZN5Eigen9DenseBaseINS_6MatrixIdLin1ELi1ELi0ELin1ELi1EEEE4fillERKd CODE
 0001:001ca010 00000024H .text$_ZNK5Eigen13SparseMapBaseINS_3RefIKNS_12SparseMatrixIdLi0EiEELi0ENS_11OuterStrideILin1EEEEELi0EE8nonZerosEv CODE
 0001:001ca040 00000019H .text$_ZN5Eigen6numext4abs2IdEENS_8internal11abs2_retvalINS2_36global_math_functions_filtering_baseIT_vE4typeEE4typeERKS5_ CODE
 0001:001ca060 00000069H .text$_ZN5Eigen9DenseBaseINS_6MatrixIiLin1ELi1ELi0ELin1ELi1EEEE7segmentIxEENS3_22FixedSegmentReturnTypeIXsr8internal15get_fixed_valueIT_EE5valueEE4TypeExS6_ CODE
 0001:001ca0d0 00000023H .text$_ZNK5Eigen9DenseBaseINS_5BlockINS_6MatrixIiLin1ELi1ELi0ELin1ELi1EEELin1ELi1ELb0EEEE8minCoeffIxEEiPT_ CODE
 0001:001ca100 00000037H .text$_ZNSt3__14swapB6v15007IiEENS_9enable_ifIXaasr21is_move_constructibleIT_EE5valuesr18is_move_assignableIS2_EE5valueEvE4typeERS2_S5_ CODE
 0001:001ca140 00000041H .text$_ZNSt3__14swapB6v15007IdEENS_9enable_ifIXaasr21is_move_constructibleIT_EE5valuesr18is_move_assignableIS2_EE5valueEvE4typeERS2_S5_ CODE
 0001:001ca190 00000069H .text$_ZN5Eigen9DenseBaseINS_6MatrixIdLin1ELi1ELi0ELin1ELi1EEEE7segmentIxEENS3_22FixedSegmentReturnTypeIXsr8internal15get_fixed_valueIT_EE5valueEE4TypeExS6_ CODE
 0001:001ca200 0000026eH .text$_ZN5Eigen8internal10QuickSplitINS_11VectorBlockINS_6MatrixIdLin1ELi1ELi0ELin1ELi1EEELin1EEENS2_INS3_IiLin1ELi1ELi0ELin1ELi1EEELin1EEEEExRT_RT0_x CODE
 0001:001ca470 000000b2H .text$_ZN5Eigen12SparseMatrixIdLi1EiE8startVecEx CODE
 0001:001ca530 0000007cH .text$_ZN5Eigen12SparseMatrixIdLi1EiE31insertBackByOuterInnerUnorderedExx CODE
 0001:001ca5b0 000000f9H .text$_ZN5Eigen12SparseMatrixIdLi1EiE8finalizeEv CODE
 0001:001ca6b0 00000213H .text$_ZN5Eigen12SparseMatrixIdLi1EiE14makeCompressedEv CODE
 0001:001ca8d0 00000073H .text$_ZN5Eigen6MatrixIdLin1ELi1ELi0ELin1ELi1EEC2IxEERKT_ CODE
 0001:001ca950 00000028H .text$_ZN5Eigen15PlainObjectBaseINS_6MatrixIdLin1ELi1ELi0ELin1ELi1EEEEC2Ev CODE
 0001:001ca980 00000001H .text$_ZN5Eigen15PlainObjectBaseINS_6MatrixIdLin1ELi1ELi0ELin1ELi1EEEE22_check_template_paramsEv CODE
 0001:001ca990 00000041H .text$_ZN5Eigen15PlainObjectBaseINS_6MatrixIdLin1ELi1ELi0ELin1ELi1EEEE6_init1IxEEvxPNS_8internal9enable_ifIXaaooneLNS_9DenseBaseIS2_EUt_En1ELi1Entsr8internal14is_convertibleIT_dEE5valueoontLNS5_7is_sameINS_9MatrixXprENS_8ArrayXprEEUt_E0EeqLS9_n1EL_ZNS_L7DynamicEEESA_E4typeE CODE
 0001:001ca9e0 00000019H .text$_ZN5Eigen15PlainObjectBaseINS_6MatrixIdLin1ELi1ELi0ELin1ELi1EEEED2Ev CODE
 0001:001caa00 00000019H .text$_ZN5Eigen10MatrixBaseINS_6MatrixIdLin1ELi1ELi0ELin1ELi1EEEEC2Ev CODE
 0001:001caa20 00000019H .text$_ZN5Eigen12DenseStorageIdLin1ELin1ELi1ELi0EEC1Ev CODE
 0001:001caa40 00000007H .text$_ZN5Eigen9DenseBaseINS_6MatrixIdLin1ELi1ELi0ELin1ELi1EEEEC2Ev CODE
 0001:001caa50 0000001aH .text$_ZN5Eigen12DenseStorageIdLin1ELin1ELi1ELi0EEC2Ev CODE
 0001:001caa70 0000005dH .text$_ZN5Eigen15PlainObjectBaseINS_6MatrixIdLin1ELi1ELi0ELin1ELi1EEEE6resizeEx CODE
 0001:001caad0 00000097H .text$_ZN5Eigen12DenseStorageIdLin1ELin1ELi1ELi0EE6resizeExxx CODE
 0001:001cab70 0000001eH .text$_ZN5Eigen8internal31conditional_aligned_delete_autoIdLb1EEEvPT_y CODE
 0001:001cab90 0000006eH .text$_ZN5Eigen8internal28conditional_aligned_new_autoIdLb1EEEPT_y CODE
 0001:001cac00 00000019H .text$_ZN5Eigen12DenseStorageIdLin1ELin1ELi1ELi0EED1Ev CODE
 0001:001cac20 0000002dH .text$_ZN5Eigen12DenseStorageIdLin1ELin1ELi1ELi0EED2Ev CODE
 0001:001cac50 0000002dH .text$_ZN5Eigen33SparseSymmetricPermutationProductINS_3RefIKNS_12SparseMatrixIdLi0EiEELi0ENS_11OuterStrideILin1EEEEELi3EEC1ERKS7_RKNS_17PermutationMatrixILin1ELin1EiEE CODE
 0001:001cac80 0000002cH .text$_ZN5Eigen33SparseSymmetricPermutationProductINS_3RefIKNS_12SparseMatrixIdLi0EiEELi0ENS_11OuterStrideILin1EEEEELi3EEC2ERKS7_RKNS_17PermutationMatrixILin1ELin1EiEE CODE
 0001:001cacb0 00000049H .text$_ZN5Eigen16SparseMatrixBaseINS_12SparseMatrixIdLi1EiEEEaSINS_33SparseSymmetricPermutationProductINS_3RefIKNS1_IdLi0EiEELi0ENS_11OuterStrideILin1EEEEELi3EEEEERS2_RKNS_9EigenBaseIT_EE CODE
 0001:001cad00 0000000bH .text$_ZNK5Eigen9EigenBaseINS_33SparseSymmetricPermutationProductINS_3RefIKNS_12SparseMatrixIdLi0EiEELi0ENS_11OuterStrideILin1EEEEELi3EEEE7derivedEv CODE
 0001:001cad10 00000046H .text$_ZN5Eigen8internal24call_assignment_no_aliasINS_12SparseMatrixIdLi1EiEENS_33SparseSymmetricPermutationProductINS_3RefIKNS2_IdLi0EiEELi0ENS_11OuterStrideILin1EEEEELi3EEEEEvRT_RKT0_ CODE
 0001:001cad60 0000000bH .text$_ZN5Eigen16SparseMatrixBaseINS_12SparseMatrixIdLi1EiEEE7derivedEv CODE
 0001:001cad70 00000037H .text$_ZN5Eigen8internal24call_assignment_no_aliasINS_12SparseMatrixIdLi1EiEENS_33SparseSymmetricPermutationProductINS_3RefIKNS2_IdLi0EiEELi0ENS_11OuterStrideILin1EEEEELi3EEENS0_9assign_opIddEEEEvRT_RKT0_RKT1_ CODE
 0001:001cadb0 000000d9H .text$_ZN5Eigen8internal10AssignmentINS_12SparseMatrixIdLi1EiEENS_33SparseSymmetricPermutationProductINS_3RefIKNS2_IdLi0EiEELi0ENS_11OuterStrideILin1EEEEELi3EEENS0_9assign_opIddEENS0_13Sparse2SparseEvE3runILi1EEEvRNS2_IdXT_EiEERKSB_RKSD_ CODE
 0001:001cae90 000006fcH .text$_ZN5Eigen8internal24permute_symm_to_fullsymmILi3ENS_3RefIKNS_12SparseMatrixIdLi0EiEELi0ENS_11OuterStrideILin1EEEEELi0EEEvRKT0_RNS3_INS9_6ScalarEXT1_ENS9_12StorageIndexEEEPKSD_ CODE
 0001:001cb590 0000000eH .text$_ZNK5Eigen33SparseSymmetricPermutationProductINS_3RefIKNS_12SparseMatrixIdLi0EiEELi0ENS_11OuterStrideILin1EEEEELi3EE6matrixEv CODE
 0001:001cb5a0 0000000fH .text$_ZNK5Eigen33SparseSymmetricPermutationProductINS_3RefIKNS_12SparseMatrixIdLi0EiEELi0ENS_11OuterStrideILin1EEEEELi3EE4permEv CODE
 0001:001cb5b0 0000001aH .text$_ZNK5Eigen20SparseCompressedBaseINS_3RefIKNS_12SparseMatrixIdLi0EiEELi0ENS_11OuterStrideILin1EEEEEE13InnerIterator3rowEv CODE
 0001:001cb5d0 0000001dH .text$_ZNK5Eigen20SparseCompressedBaseINS_3RefIKNS_12SparseMatrixIdLi0EiEELi0ENS_11OuterStrideILin1EEEEEE13InnerIterator3colEv CODE
 0001:001cb5f0 00000064H .text$_ZNK5Eigen9DenseBaseINS_6MatrixIiLin1ELi1ELi0ELin1ELi1EEEE3sumEv CODE
 0001:001cb660 0000000dH .text$_ZN5Eigen8internal13convert_indexIiiEET_RKT0_ CODE
 0001:001cb670 000000d5H .text$_ZNK5Eigen9DenseBaseINS_6MatrixIiLin1ELi1ELi0ELin1ELi1EEEE5reduxINS_8internal13scalar_sum_opIiiEEEEiRKT_ CODE
 0001:001cb750 00000023H .text$_ZN5Eigen8internal15redux_evaluatorINS_6MatrixIiLin1ELi1ELi0ELin1ELi1EEEEC1ERKS3_ CODE
 0001:001cb780 000004aeH .text$_ZN5Eigen8internal10redux_implINS0_13scalar_sum_opIiiEENS0_15redux_evaluatorINS_6MatrixIiLin1ELi1ELi0ELin1ELi1EEEEELi3ELi0EE3runIS6_EEiRKS7_RKS3_RKT_ CODE
 0001:001cbc30 00000019H .text$_ZN5Eigen8internal15redux_evaluatorINS_6MatrixIiLin1ELi1ELi0ELin1ELi1EEEED1Ev CODE
 0001:001cbc50 00000023H .text$_ZN5Eigen8internal15redux_evaluatorINS_6MatrixIiLin1ELi1ELi0ELin1ELi1EEEEC2ERKS3_ CODE
 0001:001cbc80 00000053H .text$_ZNK5Eigen8internal9evaluatorINS_15PlainObjectBaseINS_6MatrixIiLin1ELi1ELi0ELin1ELi1EEEEEE6packetILi16ENS0_20eigen_packet_wrapperIDv2_xLi0EEEEET0_x CODE
 0001:001cbce0 00000009H .text$_ZN5Eigen8internal18first_aligned_implILi16ENS_6MatrixIiLin1ELi1ELi0ELin1ELi1EEELb1EE3runERKS3_ CODE
 0001:001cbcf0 00000061H .text$_ZN5Eigen8internal5ploadINS0_20eigen_packet_wrapperIDv2_xLi0EEEEET_PKNS0_15unpacket_traitsIS5_E4typeE CODE
 0001:001cbd60 00000019H .text$_ZN5Eigen8internal15redux_evaluatorINS_6MatrixIiLin1ELi1ELi0ELin1ELi1EEEED2Ev CODE
 0001:001cbd80 00000060H .text$_ZN5Eigen9DenseBaseINS_6MatrixIdLin1ELi1ELi0ELin1ELi1EEEE11setConstantERKd CODE
 0001:001cbde0 0000006bH .text$_ZN5Eigen9DenseBaseINS_6MatrixIdLin1ELi1ELi0ELin1ELi1EEEE8ConstantExxRKd CODE
 0001:001cbe50 00000036H .text$_ZNK5Eigen9EigenBaseINS_6MatrixIdLin1ELi1ELi0ELin1ELi1EEEE4rowsEv CODE
 0001:001cbe90 00000021H .text$_ZNK5Eigen9EigenBaseINS_6MatrixIdLin1ELi1ELi0ELin1ELi1EEEE4colsEv CODE
 0001:001cbec0 0000000bH .text$_ZN5Eigen9EigenBaseINS_6MatrixIdLin1ELi1ELi0ELin1ELi1EEEE7derivedEv CODE
 0001:001cbed0 00000023H .text$_ZN5Eigen6MatrixIdLin1ELi1ELi0ELin1ELi1EEaSINS_14CwiseNullaryOpINS_8internal18scalar_constant_opIdEES1_EEEERS1_RKNS_9DenseBaseIT_EE CODE
 0001:001cbf00 0000003eH .text$_ZN5Eigen9DenseBaseINS_6MatrixIdLin1ELi1ELi0ELin1ELi1EEEE11NullaryExprINS_8internal18scalar_constant_opIdEEEEKNS_14CwiseNullaryOpIT_S2_EExxRKS9_ CODE
 0001:001cbf40 00000023H .text$_ZN5Eigen8internal18scalar_constant_opIdEC1ERKd CODE
 0001:001cbf70 00000037H .text$_ZN5Eigen14CwiseNullaryOpINS_8internal18scalar_constant_opIdEENS_6MatrixIdLin1ELi1ELi0ELin1ELi1EEEEC1ExxRKS3_ CODE
 0001:001cbfb0 000000a3H .text$_ZN5Eigen14CwiseNullaryOpINS_8internal18scalar_constant_opIdEENS_6MatrixIdLin1ELi1ELi0ELin1ELi1EEEEC2ExxRKS3_ CODE
 0001:001cc060 00000019H .text$_ZN5Eigen10MatrixBaseINS_14CwiseNullaryOpINS_8internal18scalar_constant_opIdEENS_6MatrixIdLin1ELi1ELi0ELin1ELi1EEEEEEC2Ev CODE
 0001:001cc080 00000023H .text$_ZN5Eigen8internal18scalar_constant_opIdEC1ERKS2_ CODE
 0001:001cc0b0 00000007H .text$_ZN5Eigen9DenseBaseINS_14CwiseNullaryOpINS_8internal18scalar_constant_opIdEENS_6MatrixIdLin1ELi1ELi0ELin1ELi1EEEEEEC2Ev CODE
 0001:001cc0c0 00000023H .text$_ZN5Eigen8internal18scalar_constant_opIdEC2ERKS2_ CODE
 0001:001cc0f0 00000023H .text$_ZN5Eigen8internal18scalar_constant_opIdEC2ERKd CODE
 0001:001cc120 0000000bH .text$_ZNK5Eigen9EigenBaseINS_6MatrixIdLin1ELi1ELi0ELin1ELi1EEEE7derivedEv CODE
 0001:001cc130 00000019H .text$_ZNK5Eigen15PlainObjectBaseINS_6MatrixIdLin1ELi1ELi0ELin1ELi1EEEE4rowsEv CODE
 0001:001cc150 0000000fH .text$_ZNK5Eigen12DenseStorageIdLin1ELin1ELi1ELi0EE4rowsEv CODE
 0001:001cc160 0000002bH .text$_ZNK5Eigen15PlainObjectBaseINS_6MatrixIdLin1ELi1ELi0ELin1ELi1EEEE4colsEv CODE
 0001:001cc190 00000006H .text$_ZN5Eigen12DenseStorageIdLin1ELin1ELi1ELi0EE4colsEv CODE
 0001:001cc1a0 00000049H .text$_ZN5Eigen15PlainObjectBaseINS_6MatrixIdLin1ELi1ELi0ELin1ELi1EEEE4_setINS_14CwiseNullaryOpINS_8internal18scalar_constant_opIdEES2_EEEERS2_RKNS_9DenseBaseIT_EE CODE
 0001:001cc1f0 0000004bH .text$_ZN5Eigen8internal15call_assignmentINS_6MatrixIdLin1ELi1ELi0ELin1ELi1EEENS_14CwiseNullaryOpINS0_18scalar_constant_opIdEES3_EEEEvRT_RKT0_ CODE
 0001:001cc240 0000000bH .text$_ZNK5Eigen9EigenBaseINS_14CwiseNullaryOpINS_8internal18scalar_constant_opIdEENS_6MatrixIdLin1ELi1ELi0ELin1ELi1EEEEEE7derivedEv CODE
 0001:001cc250 00000032H .text$_ZN5Eigen8internal15call_assignmentINS_6MatrixIdLin1ELi1ELi0ELin1ELi1EEENS_14CwiseNullaryOpINS0_18scalar_constant_opIdEES3_EENS0_9assign_opIddEEEEvRT_RKT0_RKT1_NS0_9enable_ifIXntsr25evaluator_assume_aliasingISC_EE5valueEPvE4typeE CODE
 0001:001cc290 00000037H .text$_ZN5Eigen8internal24call_assignment_no_aliasINS_6MatrixIdLin1ELi1ELi0ELin1ELi1EEENS_14CwiseNullaryOpINS0_18scalar_constant_opIdEES3_EENS0_9assign_opIddEEEEvRT_RKT0_RKT1_ CODE
 0001:001cc2d0 0000003cH .text$_ZN5Eigen8internal10AssignmentINS_6MatrixIdLin1ELi1ELi0ELin1ELi1EEENS_14CwiseNullaryOpINS0_18scalar_constant_opIdEES3_EENS0_9assign_opIddEENS0_11Dense2DenseEvE3runERS3_RKS7_RKS9_ CODE
 0001:001cc310 00000012H .text$_ZN5Eigen8internal18check_for_aliasingINS_6MatrixIdLin1ELi1ELi0ELin1ELi1EEENS_14CwiseNullaryOpINS0_18scalar_constant_opIdEES3_EEEEvRKT_RKT0_ CODE
 0001:001cc330 00000077H .text$_ZN5Eigen8internal26call_dense_assignment_loopINS_6MatrixIdLin1ELi1ELi0ELin1ELi1EEEEEvRT_RKNS_14CwiseNullaryOpINS0_18scalar_constant_opINS4_6ScalarEEES4_EERKNS0_9assign_opIS8_S8_EE CODE
 0001:001cc3b0 000000b8H .text$_ZN5Eigen8internal17resize_if_allowedINS_6MatrixIdLin1ELi1ELi0ELin1ELi1EEENS_14CwiseNullaryOpINS0_18scalar_constant_opIdEES3_EEddEEvRT_RKT0_RKNS0_9assign_opIT1_T2_EE CODE
 0001:001cc470 0000003fH .text$_ZNSt3__16fill_nB6v15007IPdxdEET_S2_T0_RKT1_ CODE
 0001:001cc4b0 00000019H .text$_ZN5Eigen15PlainObjectBaseINS_6MatrixIdLin1ELi1ELi0ELin1ELi1EEEE4dataEv CODE
 0001:001cc4d0 00000038H .text$_ZNK5Eigen9EigenBaseINS_6MatrixIdLin1ELi1ELi0ELin1ELi1EEEE4sizeEv CODE
 0001:001cc510 0000000fH .text$_ZNK5Eigen14CwiseNullaryOpINS_8internal18scalar_constant_opIdEENS_6MatrixIdLin1ELi1ELi0ELin1ELi1EEEE7functorEv CODE
 0001:001cc520 0000000fH .text$_ZNK5Eigen8internal18scalar_constant_opIdEclEv CODE
 0001:001cc530 00000019H .text$_ZNK5Eigen14CwiseNullaryOpINS_8internal18scalar_constant_opIdEENS_6MatrixIdLin1ELi1ELi0ELin1ELi1EEEE4rowsEv CODE
 0001:001cc550 00000014H .text$_ZNK5Eigen14CwiseNullaryOpINS_8internal18scalar_constant_opIdEENS_6MatrixIdLin1ELi1ELi0ELin1ELi1EEEE4colsEv CODE
 0001:001cc570 00000107H .text$_ZN5Eigen15PlainObjectBaseINS_6MatrixIdLin1ELi1ELi0ELin1ELi1EEEE6resizeExx CODE
 0001:001cc680 0000005aH .text$_ZNSt3__18__fill_nB6v15007IPdxdEET_S2_T0_RKT1_ CODE
 0001:001cc6e0 0000000eH .text$_ZN5Eigen12DenseStorageIdLin1ELin1ELi1ELi0EE4dataEv CODE
 0001:001cc6f0 00000077H .text$_ZNK5Eigen15DenseCoeffsBaseINS_5ArrayIiLi2ELi1ELi0ELi2ELi1EEELi0EEixEx CODE
 0001:001cc770 00000038H .text$_ZNK5Eigen9EigenBaseINS_5ArrayIiLi2ELi1ELi0ELi2ELi1EEEE4sizeEv CODE
 0001:001cc7b0 0000007aH .text$_ZNK5Eigen15DenseCoeffsBaseINS_5ArrayIiLi2ELi1ELi0ELi2ELi1EEELi0EE5coeffEx CODE
 0001:001cc830 00000036H .text$_ZNK5Eigen9EigenBaseINS_5ArrayIiLi2ELi1ELi0ELi2ELi1EEEE4rowsEv CODE
 0001:001cc870 00000021H .text$_ZNK5Eigen9EigenBaseINS_5ArrayIiLi2ELi1ELi0ELi2ELi1EEEE4colsEv CODE
 0001:001cc8a0 0000000bH .text$_ZNK5Eigen9EigenBaseINS_5ArrayIiLi2ELi1ELi0ELi2ELi1EEEE7derivedEv CODE
 0001:001cc8b0 00000014H .text$_ZNK5Eigen15PlainObjectBaseINS_5ArrayIiLi2ELi1ELi0ELi2ELi1EEEE4rowsEv CODE
 0001:001cc8d0 00000006H .text$_ZN5Eigen12DenseStorageIiLi2ELi2ELi1ELi0EE4rowsEv CODE
 0001:001cc8e0 00000014H .text$_ZNK5Eigen15PlainObjectBaseINS_5ArrayIiLi2ELi1ELi0ELi2ELi1EEEE4colsEv CODE
 0001:001cc900 00000006H .text$_ZN5Eigen12DenseStorageIiLi2ELi2ELi1ELi0EE4colsEv CODE
 0001:001cc910 00000023H .text$_ZN5Eigen8internal9evaluatorINS_5ArrayIiLi2ELi1ELi0ELi2ELi1EEEEC1ERKS3_ CODE
 0001:001cc940 00000025H .text$_ZNK5Eigen8internal9evaluatorINS_15PlainObjectBaseINS_5ArrayIiLi2ELi1ELi0ELi2ELi1EEEEEE5coeffEx CODE
 0001:001cc970 00000019H .text$_ZN5Eigen8internal9evaluatorINS_5ArrayIiLi2ELi1ELi0ELi2ELi1EEEED1Ev CODE
 0001:001cc990 00000023H .text$_ZN5Eigen8internal9evaluatorINS_5ArrayIiLi2ELi1ELi0ELi2ELi1EEEEC2ERKS3_ CODE
 0001:001cc9c0 00000082H .text$_ZN5Eigen8internal9evaluatorINS_15PlainObjectBaseINS_5ArrayIiLi2ELi1ELi0ELi2ELi1EEEEEEC2ERKS5_ CODE
 0001:001cca50 00000007H .text$_ZN5Eigen8internal14evaluator_baseINS_5ArrayIiLi2ELi1ELi0ELi2ELi1EEEEC2Ev CODE
 0001:001cca60 00000019H .text$_ZNK5Eigen15PlainObjectBaseINS_5ArrayIiLi2ELi1ELi0ELi2ELi1EEEE4dataEv CODE
 0001:001cca80 00000007H .text$_ZN5Eigen8internal14evaluator_baseINS_5ArrayIiLi2ELi1ELi0ELi2ELi1EEEED2Ev CODE
 0001:001cca90 0000000bH .text$_ZNK5Eigen12DenseStorageIiLi2ELi2ELi1ELi0EE4dataEv CODE
 0001:001ccaa0 00000019H .text$_ZN5Eigen8internal9evaluatorINS_5ArrayIiLi2ELi1ELi0ELi2ELi1EEEED2Ev CODE
 0001:001ccac0 00000019H .text$_ZN5Eigen8internal9evaluatorINS_15PlainObjectBaseINS_5ArrayIiLi2ELi1ELi0ELi2ELi1EEEEEED2Ev CODE
 0001:001ccae0 00000019H .text$_ZN5Eigen8internal9abs2_implIdE3runERKd CODE
 0001:001ccb00 00000017H .text$_ZN5Eigen8internal17abs2_impl_defaultIdLb0EE3runERKd CODE
 0001:001ccb20 0000000eH .text$_ZN5Eigen8internal17get_runtime_valueIxEExRKT_ CODE
 0001:001ccb30 00000037H .text$_ZN5Eigen11VectorBlockINS_6MatrixIiLin1ELi1ELi0ELin1ELi1EEELin1EEC1ERS2_xx CODE
 0001:001ccb70 00000048H .text$_ZN5Eigen11VectorBlockINS_6MatrixIiLin1ELi1ELi0ELin1ELi1EEELin1EEC2ERS2_xx CODE
 0001:001ccbc0 00000136H .text$_ZN5Eigen5BlockINS_6MatrixIiLin1ELi1ELi0ELin1ELi1EEELin1ELi1ELb0EEC2ERS2_xxxx CODE
 0001:001ccd00 00000061H .text$_ZN5Eigen9BlockImplINS_6MatrixIiLin1ELi1ELi0ELin1ELi1EEELin1ELi1ELb0ENS_5DenseEEC2ERS2_xxxx CODE
 0001:001ccd70 000000daH .text$_ZN5Eigen8internal15BlockImpl_denseINS_6MatrixIiLin1ELi1ELi0ELin1ELi1EEELin1ELi1ELb0ELb1EEC2ERS3_xxxx CODE
 0001:001cce50 0000000cH .text$_ZNK5Eigen6MatrixIiLin1ELi1ELi0ELin1ELi1EE11innerStrideEv CODE
 0001:001cce60 00000030H .text$_ZNK5Eigen6MatrixIiLin1ELi1ELi0ELin1ELi1EE11outerStrideEv CODE
 0001:001cce90 00000037H .text$_ZN5Eigen7MapBaseINS_5BlockINS_6MatrixIiLin1ELi1ELi0ELin1ELi1EEELin1ELi1ELb0EEELi1EEC2EPixx CODE
 0001:001cced0 0000002dH .text$_ZN5Eigen8internal15BlockImpl_denseINS_6MatrixIiLin1ELi1ELi0ELin1ELi1EEELin1ELi1ELb0ELb1EE4initEv CODE
 0001:001ccf00 00000019H .text$_ZNK5Eigen9DenseBaseINS_6MatrixIiLin1ELi1ELi0ELin1ELi1EEEE9innerSizeEv CODE
 0001:001ccf20 000000b6H .text$_ZN5Eigen7MapBaseINS_5BlockINS_6MatrixIiLin1ELi1ELi0ELin1ELi1EEELin1ELi1ELb0EEELi0EEC2EPixx CODE
 0001:001ccfe0 00000019H .text$_ZN5Eigen10MatrixBaseINS_5BlockINS_6MatrixIiLin1ELi1ELi0ELin1ELi1EEELin1ELi1ELb0EEEEC2Ev CODE
 0001:001cd000 00000012H .text$_ZNK5Eigen7MapBaseINS_5BlockINS_6MatrixIiLin1ELi1ELi0ELin1ELi1EEELin1ELi1ELb0EEELi0EE11checkSanityIS4_EEvNS_8internal9enable_ifIXeqsr8internal6traitsIT_EE9AlignmentLi0EEPvE4typeE CODE
 0001:001cd020 00000007H .text$_ZN5Eigen9DenseBaseINS_5BlockINS_6MatrixIiLin1ELi1ELi0ELin1ELi1EEELin1ELi1ELb0EEEEC2Ev CODE
 0001:001cd030 00000083H .text$_ZNK5Eigen9DenseBaseINS_5BlockINS_6MatrixIiLin1ELi1ELi0ELin1ELi1EEELin1ELi1ELb0EEEE8minCoeffILi0ExEEiPT0_ CODE
 0001:001cd0c0 00000036H .text$_ZNK5Eigen9EigenBaseINS_5BlockINS_6MatrixIiLin1ELi1ELi0ELin1ELi1EEELin1ELi1ELb0EEEE4rowsEv CODE
 0001:001cd100 00000021H .text$_ZNK5Eigen9EigenBaseINS_5BlockINS_6MatrixIiLin1ELi1ELi0ELin1ELi1EEELin1ELi1ELb0EEEE4colsEv CODE
 0001:001cd130 00000019H .text$_ZN5Eigen8internal17min_coeff_visitorINS_5BlockINS_6MatrixIiLin1ELi1ELi0ELin1ELi1EEELin1ELi1ELb0EEELi0EEC1Ev CODE
 0001:001cd150 00000098H .text$_ZNK5Eigen9DenseBaseINS_5BlockINS_6MatrixIiLin1ELi1ELi0ELin1ELi1EEELin1ELi1ELb0EEEE5visitINS_8internal17min_coeff_visitorIS4_Li0EEEEEvRT_ CODE
 0001:001cd1f0 0000000bH .text$_ZNK5Eigen9EigenBaseINS_5BlockINS_6MatrixIiLin1ELi1ELi0ELin1ELi1EEELin1ELi1ELb0EEEE7derivedEv CODE
 0001:001cd200 0000001dH .text$_ZNK5Eigen7MapBaseINS_5BlockINS_6MatrixIiLin1ELi1ELi0ELin1ELi1EEELin1ELi1ELb0EEELi0EE4rowsEv CODE
 0001:001cd220 00000014H .text$_ZNK5Eigen7MapBaseINS_5BlockINS_6MatrixIiLin1ELi1ELi0ELin1ELi1EEELin1ELi1ELb0EEELi0EE4colsEv CODE
 0001:001cd240 00000019H .text$_ZN5Eigen8internal17min_coeff_visitorINS_5BlockINS_6MatrixIiLin1ELi1ELi0ELin1ELi1EEELin1ELi1ELb0EEELi0EEC2Ev CODE
 0001:001cd260 00000021H .text$_ZN5Eigen8internal13coeff_visitorINS_5BlockINS_6MatrixIiLin1ELi1ELi0ELin1ELi1EEELin1ELi1ELb0EEEEC2Ev CODE
 0001:001cd290 00000038H .text$_ZNK5Eigen9EigenBaseINS_5BlockINS_6MatrixIiLin1ELi1ELi0ELin1ELi1EEELin1ELi1ELb0EEEE4sizeEv CODE
 0001:001cd2d0 00000023H .text$_ZN5Eigen8internal17visitor_evaluatorINS_5BlockINS_6MatrixIiLin1ELi1ELi0ELin1ELi1EEELin1ELi1ELb0EEEEC1ERKS5_ CODE
 0001:001cd300 00000176H .text$_ZN5Eigen8internal12visitor_implINS0_17min_coeff_visitorINS_5BlockINS_6MatrixIiLin1ELi1ELi0ELin1ELi1EEELin1ELi1ELb0EEELi0EEENS0_17visitor_evaluatorIS6_EELin1EE3runERKS9_RS7_ CODE
 0001:001cd480 00000019H .text$_ZN5Eigen8internal17visitor_evaluatorINS_5BlockINS_6MatrixIiLin1ELi1ELi0ELin1ELi1EEELin1ELi1ELb0EEEED1Ev CODE
 0001:001cd4a0 00000035H .text$_ZN5Eigen8internal17visitor_evaluatorINS_5BlockINS_6MatrixIiLin1ELi1ELi0ELin1ELi1EEELin1ELi1ELb0EEEEC2ERKS5_ CODE
 0001:001cd4e0 00000023H .text$_ZN5Eigen8internal9evaluatorINS_5BlockINS_6MatrixIiLin1ELi1ELi0ELin1ELi1EEELin1ELi1ELb0EEEEC1ERKS5_ CODE
 0001:001cd510 00000023H .text$_ZN5Eigen8internal9evaluatorINS_5BlockINS_6MatrixIiLin1ELi1ELi0ELin1ELi1EEELin1ELi1ELb0EEEEC2ERKS5_ CODE
 0001:001cd540 0000009cH .text$_ZN5Eigen8internal15block_evaluatorINS_6MatrixIiLin1ELi1ELi0ELin1ELi1EEELin1ELi1ELb0ELb1EEC2ERKNS_5BlockIS3_Lin1ELi1ELb0EEE CODE
 0001:001cd5e0 000000c6H .text$_ZN5Eigen8internal17mapbase_evaluatorINS_5BlockINS_6MatrixIiLin1ELi1ELi0ELin1ELi1EEELin1ELi1ELb0EEES4_EC2ERKS5_ CODE
 0001:001cd6b0 0000000eH .text$_ZNK5Eigen7MapBaseINS_5BlockINS_6MatrixIiLin1ELi1ELi0ELin1ELi1EEELin1ELi1ELb0EEELi1EE4dataEv CODE
 0001:001cd6c0 00000019H .text$_ZN5Eigen8internal17mapbase_evaluatorINS_5BlockINS_6MatrixIiLin1ELi1ELi0ELin1ELi1EEELin1ELi1ELb0EEES4_ED2Ev CODE
 0001:001cd6e0 00000007H .text$_ZN5Eigen8internal14evaluator_baseINS_5BlockINS_6MatrixIiLin1ELi1ELi0ELin1ELi1EEELin1ELi1ELb0EEEEC2Ev CODE
 0001:001cd6f0 0000001dH .text$_ZNK5Eigen8internal15BlockImpl_denseINS_6MatrixIiLin1ELi1ELi0ELin1ELi1EEELin1ELi1ELb0ELb1EE11innerStrideEv CODE
 0001:001cd710 0000001dH .text$_ZNK5Eigen8internal15BlockImpl_denseINS_6MatrixIiLin1ELi1ELi0ELin1ELi1EEELin1ELi1ELb0ELb1EE11outerStrideEv CODE
 0001:001cd730 00000007H .text$_ZN5Eigen8internal14evaluator_baseINS_5BlockINS_6MatrixIiLin1ELi1ELi0ELin1ELi1EEELin1ELi1ELb0EEEED2Ev CODE
 0001:001cd740 0000003bH .text$_ZN5Eigen8internal13coeff_visitorINS_5BlockINS_6MatrixIiLin1ELi1ELi0ELin1ELi1EEELin1ELi1ELb0EEEE4initERKixx CODE
 0001:001cd780 0000002dH .text$_ZNK5Eigen8internal17visitor_evaluatorINS_5BlockINS_6MatrixIiLin1ELi1ELi0ELin1ELi1EEELin1ELi1ELb0EEEE5coeffExx CODE
 0001:001cd7b0 0000001dH .text$_ZNK5Eigen8internal17visitor_evaluatorINS_5BlockINS_6MatrixIiLin1ELi1ELi0ELin1ELi1EEELin1ELi1ELb0EEEE4rowsEv CODE
 0001:001cd7d0 00000055H .text$_ZN5Eigen8internal17min_coeff_visitorINS_5BlockINS_6MatrixIiLin1ELi1ELi0ELin1ELi1EEELin1ELi1ELb0EEELi0EEclERKixx CODE
 0001:001cd830 0000001dH .text$_ZNK5Eigen8internal17visitor_evaluatorINS_5BlockINS_6MatrixIiLin1ELi1ELi0ELin1ELi1EEELin1ELi1ELb0EEEE4colsEv CODE
 0001:001cd850 0000007eH .text$_ZNK5Eigen8internal17mapbase_evaluatorINS_5BlockINS_6MatrixIiLin1ELi1ELi0ELin1ELi1EEELin1ELi1ELb0EEES4_E5coeffExx CODE
 0001:001cd8d0 0000001dH .text$_ZNK5Eigen8internal17mapbase_evaluatorINS_5BlockINS_6MatrixIiLin1ELi1ELi0ELin1ELi1EEELin1ELi1ELb0EEES4_E9colStrideEv CODE
 0001:001cd8f0 00000014H .text$_ZNK5Eigen8internal17mapbase_evaluatorINS_5BlockINS_6MatrixIiLin1ELi1ELi0ELin1ELi1EEELin1ELi1ELb0EEES4_E9rowStrideEv CODE
 0001:001cd910 00000019H .text$_ZN5Eigen8internal17visitor_evaluatorINS_5BlockINS_6MatrixIiLin1ELi1ELi0ELin1ELi1EEELin1ELi1ELb0EEEED2Ev CODE
 0001:001cd930 00000019H .text$_ZN5Eigen8internal9evaluatorINS_5BlockINS_6MatrixIiLin1ELi1ELi0ELin1ELi1EEELin1ELi1ELb0EEEED1Ev CODE
 0001:001cd950 00000019H .text$_ZN5Eigen8internal9evaluatorINS_5BlockINS_6MatrixIiLin1ELi1ELi0ELin1ELi1EEELin1ELi1ELb0EEEED2Ev CODE
 0001:001cd970 00000019H .text$_ZN5Eigen8internal15block_evaluatorINS_6MatrixIiLin1ELi1ELi0ELin1ELi1EEELin1ELi1ELb0ELb1EED2Ev CODE
 0001:001cd990 00000037H .text$_ZN5Eigen11VectorBlockINS_6MatrixIdLin1ELi1ELi0ELin1ELi1EEELin1EEC1ERS2_xx CODE
 0001:001cd9d0 00000048H .text$_ZN5Eigen11VectorBlockINS_6MatrixIdLin1ELi1ELi0ELin1ELi1EEELin1EEC2ERS2_xx CODE
 0001:001cda20 00000136H .text$_ZN5Eigen5BlockINS_6MatrixIdLin1ELi1ELi0ELin1ELi1EEELin1ELi1ELb0EEC2ERS2_xxxx CODE
 0001:001cdb60 00000061H .text$_ZN5Eigen9BlockImplINS_6MatrixIdLin1ELi1ELi0ELin1ELi1EEELin1ELi1ELb0ENS_5DenseEEC2ERS2_xxxx CODE
 0001:001cdbd0 000000daH .text$_ZN5Eigen8internal15BlockImpl_denseINS_6MatrixIdLin1ELi1ELi0ELin1ELi1EEELin1ELi1ELb0ELb1EEC2ERS3_xxxx CODE
 0001:001cdcb0 0000000cH .text$_ZNK5Eigen6MatrixIdLin1ELi1ELi0ELin1ELi1EE11innerStrideEv CODE
 0001:001cdcc0 00000030H .text$_ZNK5Eigen6MatrixIdLin1ELi1ELi0ELin1ELi1EE11outerStrideEv CODE
 0001:001cdcf0 00000037H .text$_ZN5Eigen7MapBaseINS_5BlockINS_6MatrixIdLin1ELi1ELi0ELin1ELi1EEELin1ELi1ELb0EEELi1EEC2EPdxx CODE
 0001:001cdd30 0000002dH .text$_ZN5Eigen8internal15BlockImpl_denseINS_6MatrixIdLin1ELi1ELi0ELin1ELi1EEELin1ELi1ELb0ELb1EE4initEv CODE
 0001:001cdd60 00000019H .text$_ZNK5Eigen9DenseBaseINS_6MatrixIdLin1ELi1ELi0ELin1ELi1EEEE9innerSizeEv CODE
 0001:001cdd80 000000b6H .text$_ZN5Eigen7MapBaseINS_5BlockINS_6MatrixIdLin1ELi1ELi0ELin1ELi1EEELin1ELi1ELb0EEELi0EEC2EPdxx CODE
 0001:001cde40 00000019H .text$_ZN5Eigen10MatrixBaseINS_5BlockINS_6MatrixIdLin1ELi1ELi0ELin1ELi1EEELin1ELi1ELb0EEEEC2Ev CODE
 0001:001cde60 00000012H .text$_ZNK5Eigen7MapBaseINS_5BlockINS_6MatrixIdLin1ELi1ELi0ELin1ELi1EEELin1ELi1ELb0EEELi0EE11checkSanityIS4_EEvNS_8internal9enable_ifIXeqsr8internal6traitsIT_EE9AlignmentLi0EEPvE4typeE CODE
 0001:001cde80 00000007H .text$_ZN5Eigen9DenseBaseINS_5BlockINS_6MatrixIdLin1ELi1ELi0ELin1ELi1EEELin1ELi1ELb0EEEEC2Ev CODE
 0001:001cde90 00000038H .text$_ZNK5Eigen9EigenBaseINS_5BlockINS_6MatrixIdLin1ELi1ELi0ELin1ELi1EEELin1ELi1ELb0EEEE4sizeEv CODE
 0001:001cded0 00000077H .text$_ZN5Eigen15DenseCoeffsBaseINS_5BlockINS_6MatrixIdLin1ELi1ELi0ELin1ELi1EEELin1ELi1ELb0EEELi1EEclEx CODE
 0001:001cdf50 00000077H .text$_ZN5Eigen15DenseCoeffsBaseINS_5BlockINS_6MatrixIiLin1ELi1ELi0ELin1ELi1EEELin1ELi1ELb0EEELi1EEclEx CODE
 0001:001cdfd0 00000036H .text$_ZNK5Eigen9EigenBaseINS_5BlockINS_6MatrixIdLin1ELi1ELi0ELin1ELi1EEELin1ELi1ELb0EEEE4rowsEv CODE
 0001:001ce010 00000021H .text$_ZNK5Eigen9EigenBaseINS_5BlockINS_6MatrixIdLin1ELi1ELi0ELin1ELi1EEELin1ELi1ELb0EEEE4colsEv CODE
 0001:001ce040 0000000bH .text$_ZNK5Eigen9EigenBaseINS_5BlockINS_6MatrixIdLin1ELi1ELi0ELin1ELi1EEELin1ELi1ELb0EEEE7derivedEv CODE
 0001:001ce050 0000001dH .text$_ZNK5Eigen7MapBaseINS_5BlockINS_6MatrixIdLin1ELi1ELi0ELin1ELi1EEELin1ELi1ELb0EEELi0EE4rowsEv CODE
 0001:001ce070 00000014H .text$_ZNK5Eigen7MapBaseINS_5BlockINS_6MatrixIdLin1ELi1ELi0ELin1ELi1EEELin1ELi1ELb0EEELi0EE4colsEv CODE
 0001:001ce090 0000007aH .text$_ZN5Eigen15DenseCoeffsBaseINS_5BlockINS_6MatrixIdLin1ELi1ELi0ELin1ELi1EEELin1ELi1ELb0EEELi1EE8coeffRefEx CODE
 0001:001ce110 0000000bH .text$_ZN5Eigen9EigenBaseINS_5BlockINS_6MatrixIdLin1ELi1ELi0ELin1ELi1EEELin1ELi1ELb0EEEE7derivedEv CODE
 0001:001ce120 00000023H .text$_ZN5Eigen8internal9evaluatorINS_5BlockINS_6MatrixIdLin1ELi1ELi0ELin1ELi1EEELin1ELi1ELb0EEEEC1ERKS5_ CODE
 0001:001ce150 00000047H .text$_ZN5Eigen8internal17mapbase_evaluatorINS_5BlockINS_6MatrixIdLin1ELi1ELi0ELin1ELi1EEELin1ELi1ELb0EEES4_E8coeffRefEx CODE
 0001:001ce1a0 00000019H .text$_ZN5Eigen8internal9evaluatorINS_5BlockINS_6MatrixIdLin1ELi1ELi0ELin1ELi1EEELin1ELi1ELb0EEEED1Ev CODE
 0001:001ce1c0 00000023H .text$_ZN5Eigen8internal9evaluatorINS_5BlockINS_6MatrixIdLin1ELi1ELi0ELin1ELi1EEELin1ELi1ELb0EEEEC2ERKS5_ CODE
 0001:001ce1f0 0000009cH .text$_ZN5Eigen8internal15block_evaluatorINS_6MatrixIdLin1ELi1ELi0ELin1ELi1EEELin1ELi1ELb0ELb1EEC2ERKNS_5BlockIS3_Lin1ELi1ELb0EEE CODE
 0001:001ce290 000000c6H .text$_ZN5Eigen8internal17mapbase_evaluatorINS_5BlockINS_6MatrixIdLin1ELi1ELi0ELin1ELi1EEELin1ELi1ELb0EEES4_EC2ERKS5_ CODE
 0001:001ce360 0000000eH .text$_ZNK5Eigen7MapBaseINS_5BlockINS_6MatrixIdLin1ELi1ELi0ELin1ELi1EEELin1ELi1ELb0EEELi1EE4dataEv CODE
 0001:001ce370 00000019H .text$_ZN5Eigen8internal17mapbase_evaluatorINS_5BlockINS_6MatrixIdLin1ELi1ELi0ELin1ELi1EEELin1ELi1ELb0EEES4_ED2Ev CODE
 0001:001ce390 00000007H .text$_ZN5Eigen8internal14evaluator_baseINS_5BlockINS_6MatrixIdLin1ELi1ELi0ELin1ELi1EEELin1ELi1ELb0EEEEC2Ev CODE
 0001:001ce3a0 0000001dH .text$_ZNK5Eigen8internal15BlockImpl_denseINS_6MatrixIdLin1ELi1ELi0ELin1ELi1EEELin1ELi1ELb0ELb1EE11innerStrideEv CODE
 0001:001ce3c0 0000001dH .text$_ZNK5Eigen8internal15BlockImpl_denseINS_6MatrixIdLin1ELi1ELi0ELin1ELi1EEELin1ELi1ELb0ELb1EE11outerStrideEv CODE
 0001:001ce3e0 00000007H .text$_ZN5Eigen8internal14evaluator_baseINS_5BlockINS_6MatrixIdLin1ELi1ELi0ELin1ELi1EEELin1ELi1ELb0EEEED2Ev CODE
 0001:001ce3f0 00000019H .text$_ZN5Eigen8internal9evaluatorINS_5BlockINS_6MatrixIdLin1ELi1ELi0ELin1ELi1EEELin1ELi1ELb0EEEED2Ev CODE
 0001:001ce410 00000019H .text$_ZN5Eigen8internal15block_evaluatorINS_6MatrixIdLin1ELi1ELi0ELin1ELi1EEELin1ELi1ELb0ELb1EED2Ev CODE
 0001:001ce430 0000007aH .text$_ZN5Eigen15DenseCoeffsBaseINS_5BlockINS_6MatrixIiLin1ELi1ELi0ELin1ELi1EEELin1ELi1ELb0EEELi1EE8coeffRefEx CODE
 0001:001ce4b0 0000000bH .text$_ZN5Eigen9EigenBaseINS_5BlockINS_6MatrixIiLin1ELi1ELi0ELin1ELi1EEELin1ELi1ELb0EEEE7derivedEv CODE
 0001:001ce4c0 00000047H .text$_ZN5Eigen8internal17mapbase_evaluatorINS_5BlockINS_6MatrixIiLin1ELi1ELi0ELin1ELi1EEELin1ELi1ELb0EEES4_E8coeffRefEx CODE
 0001:001ce510 00000035H .text$_ZN5Eigen8internal17CompressedStorageIdiE7squeezeEv CODE
 0001:001ce550 0000000fH .text$_ZNK5Eigen8internal22generic_matrix_wrapperINS_12SparseMatrixIdLi0EiEELb0EE6matrixEv CODE
 0001:001ce560 00000057H .text$_ZN5Eigen9DenseBaseINS_6MatrixIdLin1ELi1ELi0ELin1ELi1EEEE8ConstantExRKd CODE
 0001:001ce5c0 0000003aH .text$_ZN5Eigen9DenseBaseINS_6MatrixIdLin1ELi1ELi0ELin1ELi1EEEE11NullaryExprINS_8internal18scalar_constant_opIdEEEEKNS_14CwiseNullaryOpIT_S2_EExRKS9_ CODE
 0001:001ce600 00000035H .text$_ZN5Eigen6MatrixIdLin1ELi1ELi0ELin1ELi1EEC2INS_14CwiseNullaryOpINS_8internal18scalar_constant_opIdEES1_EEEERKNS_9EigenBaseIT_EE CODE
 0001:001ce640 0000008cH .text$_ZN5Eigen15PlainObjectBaseINS_6MatrixIdLin1ELi1ELi0ELin1ELi1EEEEC2INS_14CwiseNullaryOpINS_8internal18scalar_constant_opIdEES2_EEEERKNS_9DenseBaseIT_EE CODE
 0001:001ce6d0 00000158H .text$_ZN5Eigen15PlainObjectBaseINS_6MatrixIdLin1ELi1ELi0ELin1ELi1EEEE10resizeLikeINS_14CwiseNullaryOpINS_8internal18scalar_constant_opIdEES2_EEEEvRKNS_9EigenBaseIT_EE CODE
 0001:001ce830 0000005fH .text$_ZN5Eigen15PlainObjectBaseINS_6MatrixIdLin1ELi1ELi0ELin1ELi1EEEE12_set_noaliasINS_14CwiseNullaryOpINS_8internal18scalar_constant_opIdEES2_EEEERS2_RKNS_9DenseBaseIT_EE CODE
 0001:001ce890 0000007aH .text$_ZN5Eigen15DenseCoeffsBaseINS_6MatrixIdLin1ELi1ELi0ELin1ELi1EEELi1EE8coeffRefEx CODE
 0001:001ce910 00000023H .text$_ZN5Eigen8internal9evaluatorINS_6MatrixIdLin1ELi1ELi0ELin1ELi1EEEEC1ERKS3_ CODE
 0001:001ce940 00000025H .text$_ZN5Eigen8internal9evaluatorINS_15PlainObjectBaseINS_6MatrixIdLin1ELi1ELi0ELin1ELi1EEEEEE8coeffRefEx CODE
 0001:001ce970 00000019H .text$_ZN5Eigen8internal9evaluatorINS_6MatrixIdLin1ELi1ELi0ELin1ELi1EEEED1Ev CODE
 0001:001ce990 00000023H .text$_ZN5Eigen8internal9evaluatorINS_6MatrixIdLin1ELi1ELi0ELin1ELi1EEEEC2ERKS3_ CODE
 0001:001ce9c0 00000082H .text$_ZN5Eigen8internal9evaluatorINS_15PlainObjectBaseINS_6MatrixIdLin1ELi1ELi0ELin1ELi1EEEEEEC2ERKS5_ CODE
 0001:001cea50 00000007H .text$_ZN5Eigen8internal14evaluator_baseINS_6MatrixIdLin1ELi1ELi0ELin1ELi1EEEEC2Ev CODE
 0001:001cea60 00000019H .text$_ZNK5Eigen15PlainObjectBaseINS_6MatrixIdLin1ELi1ELi0ELin1ELi1EEEE4dataEv CODE
 0001:001cea80 0000002dH .text$_ZN5Eigen8internal30plainobjectbase_evaluator_dataIdLi0EEC1EPKdx CODE
 0001:001ceab0 00000007H .text$_ZN5Eigen8internal14evaluator_baseINS_6MatrixIdLin1ELi1ELi0ELin1ELi1EEEED2Ev CODE
 0001:001ceac0 0000000eH .text$_ZNK5Eigen12DenseStorageIdLin1ELin1ELi1ELi0EE4dataEv CODE
 0001:001cead0 00000030H .text$_ZN5Eigen8internal30plainobjectbase_evaluator_dataIdLi0EEC2EPKdx CODE
 0001:001ceb00 00000019H .text$_ZN5Eigen8internal9evaluatorINS_6MatrixIdLin1ELi1ELi0ELin1ELi1EEEED2Ev CODE
 0001:001ceb20 00000019H .text$_ZN5Eigen8internal9evaluatorINS_15PlainObjectBaseINS_6MatrixIdLin1ELi1ELi0ELin1ELi1EEEEEED2Ev CODE
 0001:001ceb40 0000000bH .text$_ZNK5Eigen16SparseSolverBaseINS_8BiCGSTABINS_12SparseMatrixIdLi0EiEENS_13IncompleteLUTIdiEEEEE7derivedEv CODE
 0001:001ceb50 00000036H .text$_ZNK5Eigen19IterativeSolverBaseINS_8BiCGSTABINS_12SparseMatrixIdLi0EiEENS_13IncompleteLUTIdiEEEEE4rowsEv CODE
 0001:001ceb90 0000002dH .text$_ZN5Eigen5SolveINS_8BiCGSTABINS_12SparseMatrixIdLi0EiEENS_13IncompleteLUTIdiEEEENS_6MatrixIdLin1ELi1ELi0ELin1ELi1EEEEC1ERKS6_RKS8_ CODE
 0001:001cebc0 0000003dH .text$_ZN5Eigen5SolveINS_8BiCGSTABINS_12SparseMatrixIdLi0EiEENS_13IncompleteLUTIdiEEEENS_6MatrixIdLin1ELi1ELi0ELin1ELi1EEEEC2ERKS6_RKS8_ CODE
 0001:001cec00 00000019H .text$_ZN5Eigen9SolveImplINS_8BiCGSTABINS_12SparseMatrixIdLi0EiEENS_13IncompleteLUTIdiEEEENS_6MatrixIdLin1ELi1ELi0ELin1ELi1EEENS_5DenseEEC2Ev CODE
 0001:001cec20 00000019H .text$_ZN5Eigen10MatrixBaseINS_5SolveINS_8BiCGSTABINS_12SparseMatrixIdLi0EiEENS_13IncompleteLUTIdiEEEENS_6MatrixIdLin1ELi1ELi0ELin1ELi1EEEEEEC2Ev CODE
 0001:001cec40 00000007H .text$_ZN5Eigen9DenseBaseINS_5SolveINS_8BiCGSTABINS_12SparseMatrixIdLi0EiEENS_13IncompleteLUTIdiEEEENS_6MatrixIdLin1ELi1ELi0ELin1ELi1EEEEEEC2Ev CODE
 0001:001cec50 00000035H .text$_ZN5Eigen6MatrixIdLin1ELi1ELi0ELin1ELi1EEC2INS_5SolveINS_8BiCGSTABINS_12SparseMatrixIdLi0EiEENS_13IncompleteLUTIdiEEEES1_EEEERKNS_9EigenBaseIT_EE CODE
 0001:001cec90 0000000bH .text$_ZNK5Eigen9EigenBaseINS_5SolveINS_8BiCGSTABINS_12SparseMatrixIdLi0EiEENS_13IncompleteLUTIdiEEEENS_6MatrixIdLin1ELi1ELi0ELin1ELi1EEEEEE7derivedEv CODE
 0001:001ceca0 0000008cH .text$_ZN5Eigen15PlainObjectBaseINS_6MatrixIdLin1ELi1ELi0ELin1ELi1EEEEC2INS_5SolveINS_8BiCGSTABINS_12SparseMatrixIdLi0EiEENS_13IncompleteLUTIdiEEEES2_EEEERKNS_9DenseBaseIT_EE CODE
 0001:001ced30 00000158H .text$_ZN5Eigen15PlainObjectBaseINS_6MatrixIdLin1ELi1ELi0ELin1ELi1EEEE10resizeLikeINS_5SolveINS_8BiCGSTABINS_12SparseMatrixIdLi0EiEENS_13IncompleteLUTIdiEEEES2_EEEEvRKNS_9EigenBaseIT_EE CODE
 0001:001cee90 0000005fH .text$_ZN5Eigen15PlainObjectBaseINS_6MatrixIdLin1ELi1ELi0ELin1ELi1EEEE12_set_noaliasINS_5SolveINS_8BiCGSTABINS_12SparseMatrixIdLi0EiEENS_13IncompleteLUTIdiEEEES2_EEEERS2_RKNS_9DenseBaseIT_EE CODE
 0001:001ceef0 0000001cH .text$_ZNK5Eigen5SolveINS_8BiCGSTABINS_12SparseMatrixIdLi0EiEENS_13IncompleteLUTIdiEEEENS_6MatrixIdLin1ELi1ELi0ELin1ELi1EEEE4rowsEv CODE
 0001:001cef10 0000001dH .text$_ZNK5Eigen5SolveINS_8BiCGSTABINS_12SparseMatrixIdLi0EiEENS_13IncompleteLUTIdiEEEENS_6MatrixIdLin1ELi1ELi0ELin1ELi1EEEE4colsEv CODE
 0001:001cef30 00000036H .text$_ZNK5Eigen19IterativeSolverBaseINS_8BiCGSTABINS_12SparseMatrixIdLi0EiEENS_13IncompleteLUTIdiEEEEE4colsEv CODE
 0001:001cef70 00000037H .text$_ZN5Eigen8internal24call_assignment_no_aliasINS_6MatrixIdLin1ELi1ELi0ELin1ELi1EEENS_5SolveINS_8BiCGSTABINS_12SparseMatrixIdLi0EiEENS_13IncompleteLUTIdiEEEES3_EENS0_9assign_opIddEEEEvRT_RKT0_RKT1_ CODE
 0001:001cefb0 000000a0H .text$_ZN5Eigen8internal10AssignmentINS_6MatrixIdLin1ELi1ELi0ELin1ELi1EEENS_5SolveINS_8BiCGSTABINS_12SparseMatrixIdLi0EiEENS_13IncompleteLUTIdiEEEES3_EENS0_9assign_opIddEENS0_11Dense2DenseEvE3runERS3_RKSB_RKSD_ CODE
 0001:001cf050 0000000eH .text$_ZNK5Eigen5SolveINS_8BiCGSTABINS_12SparseMatrixIdLi0EiEENS_13IncompleteLUTIdiEEEENS_6MatrixIdLin1ELi1ELi0ELin1ELi1EEEE3decEv CODE
 0001:001cf060 00000049H .text$_ZNK5Eigen19IterativeSolverBaseINS_8BiCGSTABINS_12SparseMatrixIdLi0EiEENS_13IncompleteLUTIdiEEEEE11_solve_implINS_6MatrixIdLin1ELi1ELi0ELin1ELi1EEESA_EEvRKT_RT0_ CODE
 0001:001cf0b0 0000000fH .text$_ZNK5Eigen5SolveINS_8BiCGSTABINS_12SparseMatrixIdLi0EiEENS_13IncompleteLUTIdiEEEENS_6MatrixIdLin1ELi1ELi0ELin1ELi1EEEE3rhsEv CODE
 0001:001cf0c0 00000027H .text$_ZN5Eigen9DenseBaseINS_6MatrixIdLin1ELi1ELi0ELin1ELi1EEEE7setZeroEv CODE
 0001:001cf0f0 0000004eH .text$_ZNK5Eigen19IterativeSolverBaseINS_8BiCGSTABINS_12SparseMatrixIdLi0EiEENS_13IncompleteLUTIdiEEEEE22_solve_with_guess_implINS_6MatrixIdLin1ELi1ELi0ELin1ELi1EEESA_EENS_8internal9enable_ifIXooeqsrT_17ColsAtCompileTimeLi1EeqsrT0_17ColsAtCompileTimeLi1EEvE4typeERKSD_RNS_10MatrixBaseISE_EE CODE
 0001:001cf140 000000d8H .text$_ZNK5Eigen8BiCGSTABINS_12SparseMatrixIdLi0EiEENS_13IncompleteLUTIdiEEE29_solve_vector_with_guess_implINS_6MatrixIdLin1ELi1ELi0ELin1ELi1EEES8_EEvRKT_RT0_ CODE
 0001:001cf220 0000005cH .text$_ZNK5Eigen19IterativeSolverBaseINS_8BiCGSTABINS_12SparseMatrixIdLi0EiEENS_13IncompleteLUTIdiEEEEE13maxIterationsEv CODE
 0001:001cf280 00000ba9H .text$_ZN5Eigen8internal8bicgstabINS_3RefIKNS_12SparseMatrixIdLi0EiEELi0ENS_11OuterStrideILin1EEEEENS_6MatrixIdLin1ELi1ELi0ELin1ELi1EEESA_NS_13IncompleteLUTIdiEEEEbRKT_RKT0_RT1_RKT2_RxRNSJ_10RealScalarE CODE
 0001:001cfe30 0000006bH .text$_ZNK5Eigen10MatrixBaseINS_6MatrixIdLin1ELi1ELi0ELin1ELi1EEEEmiINS_7ProductINS_3RefIKNS_12SparseMatrixIdLi0EiEELi0ENS_11OuterStrideILin1EEEEES2_Li0EEEEEKNS_13CwiseBinaryOpINS_8internal20scalar_difference_opIdNSF_6traitsIT_E6ScalarEEEKS2_KSI_EERKNS0_ISI_EE CODE
 0001:001cfea0 00000055H .text$_ZNK5Eigen16SparseMatrixBaseINS_3RefIKNS_12SparseMatrixIdLi0EiEELi0ENS_11OuterStrideILin1EEEEEEmlINS_6MatrixIdLin1ELi1ELi0ELin1ELi1EEEEEKNS_7ProductIS7_T_Li0EEERKNS_10MatrixBaseISD_EE CODE
 0001:001cff00 00000023H .text$_ZN5Eigen6MatrixIdLin1ELi1ELi0ELin1ELi1EEC1INS_13CwiseBinaryOpINS_8internal20scalar_difference_opIddEEKS1_KNS_7ProductINS_3RefIKNS_12SparseMatrixIdLi0EiEELi0ENS_11OuterStrideILin1EEEEES1_Li0EEEEEEERKNS_9EigenBaseIT_EE CODE
 0001:001cff30 00000023H .text$_ZN5Eigen6MatrixIdLin1ELi1ELi0ELin1ELi1EEC1ERKS1_ CODE
 0001:001cff60 00000038H .text$_ZNK5Eigen10MatrixBaseINS_6MatrixIdLin1ELi1ELi0ELin1ELi1EEEE11squaredNormEv CODE
 0001:001cffa0 0000006bH .text$_ZNK5Eigen10MatrixBaseINS_6MatrixIdLin1ELi1ELi0ELin1ELi1EEEE3dotIS2_EENS_20ScalarBinaryOpTraitsIdNS_8internal6traitsIT_E6ScalarENS6_17scalar_product_opIdSA_EEE10ReturnTypeERKNS0_IS8_EE CODE
 0001:001d0010 00000023H .text$_ZN5Eigen6MatrixIdLin1ELi1ELi0ELin1ELi1EEaSINS_13CwiseBinaryOpINS_8internal20scalar_difference_opIddEEKS1_KNS_7ProductINS_3RefIKNS_12SparseMatrixIdLi0EiEELi0ENS_11OuterStrideILin1EEEEES1_Li0EEEEEEERS1_RKNS_9DenseBaseIT_EE CODE
 0001:001d0040 00000023H .text$_ZN5Eigen6MatrixIdLin1ELi1ELi0ELin1ELi1EEaSERKS1_ CODE
 0001:001d0070 0000006bH .text$_ZNK5Eigen10MatrixBaseINS_6MatrixIdLin1ELi1ELi0ELin1ELi1EEEEplINS_13CwiseBinaryOpINS_8internal17scalar_product_opIddEEKNS_14CwiseNullaryOpINS6_18scalar_constant_opIdEEKS2_EEKNS5_INS6_20scalar_difference_opIddEESC_KNS5_IS8_SE_SC_EEEEEEEEKNS5_INS6_13scalar_sum_opIdNS6_6traitsIT_E6ScalarEEESC_KSO_EERKNS0_ISO_EE CODE
 0001:001d00e0 000000bbH .text$_ZN5EigenmlIdEEKNS_13CwiseBinaryOpINS_8internal17scalar_product_opINS2_18promote_scalar_argIdT_Xsr5Eigen8internal14has_ReturnTypeINS_20ScalarBinaryOpTraitsIS5_dNS3_IS5_dEEEEEE5valueEE4typeEdEEKNS2_19plain_constant_typeINS1_INS2_20scalar_difference_opIddEEKNS_6MatrixIdLin1ELi1ELi0ELin1ELi1EEEKNS1_INS3_IddEEKNS_14CwiseNullaryOpINS2_18scalar_constant_opIdEESH_EESH_EEEESA_E4typeEKSQ_EERKS5_RKNS_10MatrixBaseISQ_EE CODE
 0001:001d01a0 0000006bH .text$_ZNK5Eigen10MatrixBaseINS_6MatrixIdLin1ELi1ELi0ELin1ELi1EEEEmiINS_13CwiseBinaryOpINS_8internal17scalar_product_opIddEEKNS_14CwiseNullaryOpINS6_18scalar_constant_opIdEEKS2_EESC_EEEEKNS5_INS6_20scalar_difference_opIdNS6_6traitsIT_E6ScalarEEESC_KSI_EERKNS0_ISI_EE CODE
 0001:001d0210 000000bbH .text$_ZN5EigenmlIdEEKNS_13CwiseBinaryOpINS_8internal17scalar_product_opINS2_18promote_scalar_argIdT_Xsr5Eigen8internal14has_ReturnTypeINS_20ScalarBinaryOpTraitsIS5_dNS3_IS5_dEEEEEE5valueEE4typeEdEEKNS2_19plain_constant_typeINS_6MatrixIdLin1ELi1ELi0ELin1ELi1EEESA_E4typeEKSE_EERKS5_RKNS_10MatrixBaseISE_EE CODE
 0001:001d02d0 00000023H .text$_ZN5Eigen6MatrixIdLin1ELi1ELi0ELin1ELi1EEaSINS_13CwiseBinaryOpINS_8internal13scalar_sum_opIddEEKS1_KNS3_INS4_17scalar_product_opIddEEKNS_14CwiseNullaryOpINS4_18scalar_constant_opIdEES7_EEKNS3_INS4_20scalar_difference_opIddEES7_KNS3_IS9_SE_S7_EEEEEEEEEERS1_RKNS_9DenseBaseIT_EE CODE
 0001:001d0300 000000ccH .text$_ZNK5Eigen16SparseSolverBaseINS_13IncompleteLUTIdiEEE5solveINS_6MatrixIdLin1ELi1ELi0ELin1ELi1EEEEEKNS_5SolveIS2_T_EERKNS_10MatrixBaseIS8_EE CODE
 0001:001d03d0 00000023H .text$_ZN5Eigen6MatrixIdLin1ELi1ELi0ELin1ELi1EEaSINS_5SolveINS_13IncompleteLUTIdiEES1_EEEERS1_RKNS_9DenseBaseIT_EE CODE
 0001:001d0400 0000002aH .text$_ZN5Eigen10MatrixBaseINS_6MatrixIdLin1ELi1ELi0ELin1ELi1EEEE7noaliasEv CODE
 0001:001d0430 0000005aH .text$_ZN5Eigen7NoAliasINS_6MatrixIdLin1ELi1ELi0ELin1ELi1EEENS_10MatrixBaseEEaSINS_7ProductINS_3RefIKNS_12SparseMatrixIdLi0EiEELi0ENS_11OuterStrideILin1EEEEES2_Li0EEEEERS2_RKNS3_IT_EE CODE
 0001:001d0490 00000023H .text$_ZN5Eigen6MatrixIdLin1ELi1ELi0ELin1ELi1EEaSINS_13CwiseBinaryOpINS_8internal20scalar_difference_opIddEEKS1_KNS3_INS4_17scalar_product_opIddEEKNS_14CwiseNullaryOpINS4_18scalar_constant_opIdEES7_EES7_EEEEEERS1_RKNS_9DenseBaseIT_EE CODE
 0001:001d04c0 0000006bH .text$_ZNK5Eigen10MatrixBaseINS_13CwiseBinaryOpINS_8internal17scalar_product_opIddEEKNS_14CwiseNullaryOpINS2_18scalar_constant_opIdEEKNS_6MatrixIdLin1ELi1ELi0ELin1ELi1EEEEESA_EEEplISD_EEKNS1_INS2_13scalar_sum_opIdNS2_6traitsIT_E6ScalarEEEKSD_KSI_EERKNS0_ISI_EE CODE
 0001:001d0530 00000064H .text$_ZN5Eigen10MatrixBaseINS_6MatrixIdLin1ELi1ELi0ELin1ELi1EEEEpLINS_13CwiseBinaryOpINS_8internal13scalar_sum_opIddEEKNS5_INS6_17scalar_product_opIddEEKNS_14CwiseNullaryOpINS6_18scalar_constant_opIdEEKS2_EESE_EESI_EEEERS2_RKNS0_IT_EE CODE
 0001:001d05a0 0000000bH .text$_ZNK5Eigen9EigenBaseINS_7ProductINS_3RefIKNS_12SparseMatrixIdLi0EiEELi0ENS_11OuterStrideILin1EEEEENS_6MatrixIdLin1ELi1ELi0ELin1ELi1EEELi0EEEE7derivedEv CODE
 0001:001d05b0 00000019H .text$_ZN5Eigen8internal20scalar_difference_opIddEC1Ev CODE
 0001:001d05d0 00000037H .text$_ZN5Eigen13CwiseBinaryOpINS_8internal20scalar_difference_opIddEEKNS_6MatrixIdLin1ELi1ELi0ELin1ELi1EEEKNS_7ProductINS_3RefIKNS_12SparseMatrixIdLi0EiEELi0ENS_11OuterStrideILin1EEEEES5_Li0EEEEC1ERS6_RSG_RKS3_ CODE
 0001:001d0610 00000007H .text$_ZN5Eigen8internal20scalar_difference_opIddEC2Ev CODE
 0001:001d0620 000000c9H .text$_ZN5Eigen13CwiseBinaryOpINS_8internal20scalar_difference_opIddEEKNS_6MatrixIdLin1ELi1ELi0ELin1ELi1EEEKNS_7ProductINS_3RefIKNS_12SparseMatrixIdLi0EiEELi0ENS_11OuterStrideILin1EEEEES5_Li0EEEEC2ERS6_RSG_RKS3_ CODE
 0001:001d06f0 00000019H .text$_ZN5Eigen17CwiseBinaryOpImplINS_8internal20scalar_difference_opIddEEKNS_6MatrixIdLin1ELi1ELi0ELin1ELi1EEEKNS_7ProductINS_3RefIKNS_12SparseMatrixIdLi0EiEELi0ENS_11OuterStrideILin1EEEEES5_Li0EEENS_5DenseEEC2Ev CODE
 0001:001d0710 00000023H .text$_ZN5Eigen8internal20scalar_difference_opIddEC1ERKS2_ CODE
 0001:001d0740 0000001cH .text$_ZNK5Eigen7ProductINS_3RefIKNS_12SparseMatrixIdLi0EiEELi0ENS_11OuterStrideILin1EEEEENS_6MatrixIdLin1ELi1ELi0ELin1ELi1EEELi0EE4rowsEv CODE
 0001:001d0760 0000001dH .text$_ZNK5Eigen7ProductINS_3RefIKNS_12SparseMatrixIdLi0EiEELi0ENS_11OuterStrideILin1EEEEENS_6MatrixIdLin1ELi1ELi0ELin1ELi1EEELi0EE4colsEv CODE
 0001:001d0780 00000019H .text$_ZN5Eigen10MatrixBaseINS_13CwiseBinaryOpINS_8internal20scalar_difference_opIddEEKNS_6MatrixIdLin1ELi1ELi0ELin1ELi1EEEKNS_7ProductINS_3RefIKNS_12SparseMatrixIdLi0EiEELi0ENS_11OuterStrideILin1EEEEES6_Li0EEEEEEC2Ev CODE
 0001:001d07a0 00000007H .text$_ZN5Eigen9DenseBaseINS_13CwiseBinaryOpINS_8internal20scalar_difference_opIddEEKNS_6MatrixIdLin1ELi1ELi0ELin1ELi1EEEKNS_7ProductINS_3RefIKNS_12SparseMatrixIdLi0EiEELi0ENS_11OuterStrideILin1EEEEES6_Li0EEEEEEC2Ev CODE
 0001:001d07b0 00000012H .text$_ZN5Eigen8internal20scalar_difference_opIddEC2ERKS2_ CODE
 0001:001d07d0 0000002dH .text$_ZN5Eigen7ProductINS_3RefIKNS_12SparseMatrixIdLi0EiEELi0ENS_11OuterStrideILin1EEEEENS_6MatrixIdLin1ELi1ELi0ELin1ELi1EEELi0EEC1ERKS7_RKS9_ CODE
 0001:001d0800 00000081H .text$_ZN5Eigen7ProductINS_3RefIKNS_12SparseMatrixIdLi0EiEELi0ENS_11OuterStrideILin1EEEEENS_6MatrixIdLin1ELi1ELi0ELin1ELi1EEELi0EEC2ERKS7_RKS9_ CODE
 0001:001d0890 00000019H .text$_ZN5Eigen11ProductImplINS_3RefIKNS_12SparseMatrixIdLi0EiEELi0ENS_11OuterStrideILin1EEEEENS_6MatrixIdLin1ELi1ELi0ELin1ELi1EEELi0ENS_5DenseEEC2Ev CODE
 0001:001d08b0 00000019H .text$_ZN5Eigen8internal18dense_product_baseINS_3RefIKNS_12SparseMatrixIdLi0EiEELi0ENS_11OuterStrideILin1EEEEENS_6MatrixIdLin1ELi1ELi0ELin1ELi1EEELi0ELi7EEC2Ev CODE
 0001:001d08d0 00000019H .text$_ZN5Eigen10MatrixBaseINS_7ProductINS_3RefIKNS_12SparseMatrixIdLi0EiEELi0ENS_11OuterStrideILin1EEEEENS_6MatrixIdLin1ELi1ELi0ELin1ELi1EEELi0EEEEC2Ev CODE
 0001:001d08f0 00000007H .text$_ZN5Eigen9DenseBaseINS_7ProductINS_3RefIKNS_12SparseMatrixIdLi0EiEELi0ENS_11OuterStrideILin1EEEEENS_6MatrixIdLin1ELi1ELi0ELin1ELi1EEELi0EEEEC2Ev CODE
 0001:001d0900 00000035H .text$_ZN5Eigen6MatrixIdLin1ELi1ELi0ELin1ELi1EEC2INS_13CwiseBinaryOpINS_8internal20scalar_difference_opIddEEKS1_KNS_7ProductINS_3RefIKNS_12SparseMatrixIdLi0EiEELi0ENS_11OuterStrideILin1EEEEES1_Li0EEEEEEERKNS_9EigenBaseIT_EE CODE
 0001:001d0940 0000000bH .text$_ZNK5Eigen9EigenBaseINS_13CwiseBinaryOpINS_8internal20scalar_difference_opIddEEKNS_6MatrixIdLin1ELi1ELi0ELin1ELi1EEEKNS_7ProductINS_3RefIKNS_12SparseMatrixIdLi0EiEELi0ENS_11OuterStrideILin1EEEEES6_Li0EEEEEE7derivedEv CODE
 0001:001d0950 0000008cH .text$_ZN5Eigen15PlainObjectBaseINS_6MatrixIdLin1ELi1ELi0ELin1ELi1EEEEC2INS_13CwiseBinaryOpINS_8internal20scalar_difference_opIddEEKS2_KNS_7ProductINS_3RefIKNS_12SparseMatrixIdLi0EiEELi0ENS_11OuterStrideILin1EEEEES2_Li0EEEEEEERKNS_9DenseBaseIT_EE CODE
 0001:001d09e0 00000158H .text$_ZN5Eigen15PlainObjectBaseINS_6MatrixIdLin1ELi1ELi0ELin1ELi1EEEE10resizeLikeINS_13CwiseBinaryOpINS_8internal20scalar_difference_opIddEEKS2_KNS_7ProductINS_3RefIKNS_12SparseMatrixIdLi0EiEELi0ENS_11OuterStrideILin1EEEEES2_Li0EEEEEEEvRKNS_9EigenBaseIT_EE CODE
 0001:001d0b40 0000005fH .text$_ZN5Eigen15PlainObjectBaseINS_6MatrixIdLin1ELi1ELi0ELin1ELi1EEEE12_set_noaliasINS_13CwiseBinaryOpINS_8internal20scalar_difference_opIddEEKS2_KNS_7ProductINS_3RefIKNS_12SparseMatrixIdLi0EiEELi0ENS_11OuterStrideILin1EEEEES2_Li0EEEEEEERS2_RKNS_9DenseBaseIT_EE CODE
 0001:001d0ba0 0000001dH .text$_ZNK5Eigen13CwiseBinaryOpINS_8internal20scalar_difference_opIddEEKNS_6MatrixIdLin1ELi1ELi0ELin1ELi1EEEKNS_7ProductINS_3RefIKNS_12SparseMatrixIdLi0EiEELi0ENS_11OuterStrideILin1EEEEES5_Li0EEEE4rowsEv CODE
 0001:001d0bc0 0000001cH .text$_ZNK5Eigen13CwiseBinaryOpINS_8internal20scalar_difference_opIddEEKNS_6MatrixIdLin1ELi1ELi0ELin1ELi1EEEKNS_7ProductINS_3RefIKNS_12SparseMatrixIdLi0EiEELi0ENS_11OuterStrideILin1EEEEES5_Li0EEEE4colsEv CODE
 0001:001d0be0 00000037H .text$_ZN5Eigen8internal24call_assignment_no_aliasINS_6MatrixIdLin1ELi1ELi0ELin1ELi1EEENS_13CwiseBinaryOpINS0_20scalar_difference_opIddEEKS3_KNS_7ProductINS_3RefIKNS_12SparseMatrixIdLi0EiEELi0ENS_11OuterStrideILin1EEEEES3_Li0EEEEENS0_9assign_opIddEEEEvRT_RKT0_RKT1_ CODE
 0001:001d0c20 00000087H .text$_ZN5Eigen8internal30assignment_from_xpr_op_productINS_6MatrixIdLin1ELi1ELi0ELin1ELi1EEES3_NS_7ProductINS_3RefIKNS_12SparseMatrixIdLi0EiEELi0ENS_11OuterStrideILin1EEEEES3_Li0EEENS0_9assign_opIddEENS0_13sub_assign_opIddEEE3runINS_13CwiseBinaryOpINS0_20scalar_difference_opIddEEKS3_KSC_EESE_EEvRS3_RKT_RKT0_ CODE
 0001:001d0cb0 00000037H .text$_ZN5Eigen8internal24call_assignment_no_aliasINS_6MatrixIdLin1ELi1ELi0ELin1ELi1EEES3_NS0_9assign_opIddEEEEvRT_RKT0_RKT1_ CODE
 0001:001d0cf0 0000000eH .text$_ZNK5Eigen13CwiseBinaryOpINS_8internal20scalar_difference_opIddEEKNS_6MatrixIdLin1ELi1ELi0ELin1ELi1EEEKNS_7ProductINS_3RefIKNS_12SparseMatrixIdLi0EiEELi0ENS_11OuterStrideILin1EEEEES5_Li0EEEE3lhsEv CODE
 0001:001d0d00 00000037H .text$_ZN5Eigen8internal24call_assignment_no_aliasINS_6MatrixIdLin1ELi1ELi0ELin1ELi1EEENS_7ProductINS_3RefIKNS_12SparseMatrixIdLi0EiEELi0ENS_11OuterStrideILin1EEEEES3_Li0EEENS0_13sub_assign_opIddEEEEvRT_RKT0_RKT1_ CODE
 0001:001d0d40 0000000fH .text$_ZNK5Eigen13CwiseBinaryOpINS_8internal20scalar_difference_opIddEEKNS_6MatrixIdLin1ELi1ELi0ELin1ELi1EEEKNS_7ProductINS_3RefIKNS_12SparseMatrixIdLi0EiEELi0ENS_11OuterStrideILin1EEEEES5_Li0EEEE3rhsEv CODE
 0001:001d0d50 00000019H .text$_ZN5Eigen8internal13sub_assign_opIddEC1Ev CODE
 0001:001d0d70 0000003cH .text$_ZN5Eigen8internal10AssignmentINS_6MatrixIdLin1ELi1ELi0ELin1ELi1EEES3_NS0_9assign_opIddEENS0_11Dense2DenseEvE3runERS3_RKS3_RKS5_ CODE
 0001:001d0db0 00000012H .text$_ZN5Eigen8internal18check_for_aliasingINS_6MatrixIdLin1ELi1ELi0ELin1ELi1EEES3_EEvRKT_RKT0_ CODE
 0001:001d0dd0 00000124H .text$_ZN5Eigen8internal26call_dense_assignment_loopINS_6MatrixIdLin1ELi1ELi0ELin1ELi1EEES3_NS0_9assign_opIddEEEEvRT_RKT0_RKT1_ CODE
 0001:001d0f00 000000b8H .text$_ZN5Eigen8internal17resize_if_allowedINS_6MatrixIdLin1ELi1ELi0ELin1ELi1EEES3_ddEEvRT_RKT0_RKNS0_9assign_opIT1_T2_EE CODE
 0001:001d0fc0 0000000bH .text$_ZNK5Eigen9EigenBaseINS_6MatrixIdLin1ELi1ELi0ELin1ELi1EEEE18const_cast_derivedEv CODE
 0001:001d0fd0 00000046H .text$_ZN5Eigen8internal31generic_dense_assignment_kernelINS0_9evaluatorINS_6MatrixIdLin1ELi1ELi0ELin1ELi1EEEEES5_NS0_9assign_opIddEELi0EEC1ERS5_RKS5_RKS7_RS4_ CODE
 0001:001d1020 000000a8H .text$_ZN5Eigen8internal21dense_assignment_loopINS0_31generic_dense_assignment_kernelINS0_9evaluatorINS_6MatrixIdLin1ELi1ELi0ELin1ELi1EEEEES6_NS0_9assign_opIddEELi0EEELi3ELi0EE3runERS9_ CODE
 0001:001d10d0 00000048H .text$_ZN5Eigen8internal31generic_dense_assignment_kernelINS0_9evaluatorINS_6MatrixIdLin1ELi1ELi0ELin1ELi1EEEEES5_NS0_9assign_opIddEELi0EEC2ERS5_RKS5_RKS7_RS4_ CODE
 0001:001d1120 0000001dH .text$_ZNK5Eigen8internal31generic_dense_assignment_kernelINS0_9evaluatorINS_6MatrixIdLin1ELi1ELi0ELin1ELi1EEEEES5_NS0_9assign_opIddEELi0EE4sizeEv CODE
 0001:001d1140 00000017H .text$_ZN5Eigen8internal31unaligned_dense_assignment_loopILb1EE3runINS0_31generic_dense_assignment_kernelINS0_9evaluatorINS_6MatrixIdLin1ELi1ELi0ELin1ELi1EEEEES8_NS0_9assign_opIddEELi0EEEEEvRT_xx CODE
 0001:001d1160 00000069H .text$_ZN5Eigen8internal31generic_dense_assignment_kernelINS0_9evaluatorINS_6MatrixIdLin1ELi1ELi0ELin1ELi1EEEEES5_NS0_9assign_opIddEELi0EE12assignPacketILi16ELi16EDv2_dEEvx CODE
 0001:001d11d0 00000054H .text$_ZN5Eigen8internal31unaligned_dense_assignment_loopILb0EE3runINS0_31generic_dense_assignment_kernelINS0_9evaluatorINS_6MatrixIdLin1ELi1ELi0ELin1ELi1EEEEES8_NS0_9assign_opIddEELi0EEEEEvRT_xx CODE
 0001:001d1230 0000003cH .text$_ZNK5Eigen8internal9assign_opIddE12assignPacketILi16EDv2_dEEvPdRKT0_ CODE
 0001:001d1270 00000037H .text$_ZNK5Eigen8internal9evaluatorINS_15PlainObjectBaseINS_6MatrixIdLin1ELi1ELi0ELin1ELi1EEEEEE6packetILi16EDv2_dEET0_x CODE
 0001:001d12b0 00000039H .text$_ZN5Eigen8internal6pstoreIdDv2_dEEvPT_RKT0_ CODE
 0001:001d12f0 0000001fH .text$_ZN5Eigen8internal5ploadIDv2_dEET_PKNS0_15unpacket_traitsIS3_E4typeE CODE
 0001:001d1310 00000061H .text$_ZN5Eigen8internal31generic_dense_assignment_kernelINS0_9evaluatorINS_6MatrixIdLin1ELi1ELi0ELin1ELi1EEEEES5_NS0_9assign_opIddEELi0EE11assignCoeffEx CODE
 0001:001d1380 00000028H .text$_ZNK5Eigen8internal9assign_opIddE11assignCoeffERdRKd CODE
 0001:001d13b0 00000025H .text$_ZNK5Eigen8internal9evaluatorINS_15PlainObjectBaseINS_6MatrixIdLin1ELi1ELi0ELin1ELi1EEEEEE5coeffEx CODE
 0001:001d13e0 000000bbH .text$_ZN5Eigen8internal10AssignmentINS_6MatrixIdLin1ELi1ELi0ELin1ELi1EEENS_7ProductINS_3RefIKNS_12SparseMatrixIdLi0EiEELi0ENS_11OuterStrideILin1EEEEES3_Li0EEENS0_13sub_assign_opIddEENS0_11Dense2DenseEvE3runERS3_RKSC_RKSE_ CODE
 0001:001d14a0 00000040H .text$_ZN5Eigen8internal25generic_product_impl_baseINS_3RefIKNS_12SparseMatrixIdLi0EiEELi0ENS_11OuterStrideILin1EEEEENS_6MatrixIdLin1ELi1ELi0ELin1ELi1EEENS0_20generic_product_implIS8_SA_NS_11SparseShapeENS_10DenseShapeELi7EEEE5subToISA_EEvRT_RKS8_RKSA_ CODE
 0001:001d14e0 0000000eH .text$_ZNK5Eigen7ProductINS_3RefIKNS_12SparseMatrixIdLi0EiEELi0ENS_11OuterStrideILin1EEEEENS_6MatrixIdLin1ELi1ELi0ELin1ELi1EEELi0EE3lhsEv CODE
 0001:001d14f0 0000000fH .text$_ZNK5Eigen7ProductINS_3RefIKNS_12SparseMatrixIdLi0EiEELi0ENS_11OuterStrideILin1EEEEENS_6MatrixIdLin1ELi1ELi0ELin1ELi1EEELi0EE3rhsEv CODE
 0001:001d1500 00000037H .text$_ZN5Eigen8internal25generic_product_impl_baseINS_3RefIKNS_12SparseMatrixIdLi0EiEELi0ENS_11OuterStrideILin1EEEEENS_6MatrixIdLin1ELi1ELi0ELin1ELi1EEENS0_20generic_product_implIS8_SA_NS_11SparseShapeENS_10DenseShapeELi7EEEE13scaleAndAddToISA_EEvRT_RKS8_RKSA_RKd CODE
 0001:001d1540 0000004bH .text$_ZN5Eigen8internal20generic_product_implINS_3RefIKNS_12SparseMatrixIdLi0EiEELi0ENS_11OuterStrideILin1EEEEENS_6MatrixIdLin1ELi1ELi0ELin1ELi1EEENS_11SparseShapeENS_10DenseShapeELi7EE13scaleAndAddToISA_EEvRT_RKS8_RKSA_RKd CODE
 0001:001d1590 00000037H .text$_ZN5Eigen8internal25sparse_time_dense_productINS_3RefIKNS_12SparseMatrixIdLi0EiEELi0ENS_11OuterStrideILin1EEEEENS_6MatrixIdLin1ELi1ELi0ELin1ELi1EEESA_dEEvRKT_RKT0_RT1_RKT2_ CODE
 0001:001d15d0 0000026eH .text$_ZN5Eigen8internal30sparse_time_dense_product_implINS_3RefIKNS_12SparseMatrixIdLi0EiEELi0ENS_11OuterStrideILin1EEEEENS_6MatrixIdLin1ELi1ELi0ELin1ELi1EEESA_dLi0ELb1EE3runERKS8_RKSA_RSA_RKd CODE
 0001:001d1840 0000000fH .text$_ZNK5Eigen13SparseMapBaseINS_3RefIKNS_12SparseMatrixIdLi0EiEELi0ENS_11OuterStrideILin1EEEEELi0EE9outerSizeEv CODE
 0001:001d1850 0000006aH .text$_ZNK5Eigen15PlainObjectBaseINS_6MatrixIdLin1ELi1ELi0ELin1ELi1EEEE5coeffExx CODE
 0001:001d18c0 0000006aH .text$_ZN5Eigen15PlainObjectBaseINS_6MatrixIdLin1ELi1ELi0ELin1ELi1EEEE8coeffRefExx CODE
 0001:001d1930 00000007H .text$_ZN5Eigen8internal13sub_assign_opIddEC2Ev CODE
 0001:001d1940 00000023H .text$_ZN5Eigen6MatrixIdLin1ELi1ELi0ELin1ELi1EEC2ERKS1_ CODE
 0001:001d1970 00000032H .text$_ZN5Eigen15PlainObjectBaseINS_6MatrixIdLin1ELi1ELi0ELin1ELi1EEEEC2ERKS3_ CODE
 0001:001d19b0 00000023H .text$_ZN5Eigen12DenseStorageIdLin1ELin1ELi1ELi0EEC1ERKS1_ CODE
 0001:001d19e0 00000074H .text$_ZN5Eigen12DenseStorageIdLin1ELin1ELi1ELi0EEC2ERKS1_ CODE
 0001:001d1a60 00000019H .text$_ZN5Eigen6numext4realIdEENS_8internal11real_retvalINS2_36global_math_functions_filtering_baseIT_vE4typeEE4typeERKS5_ CODE
 0001:001d1a80 00000052H .text$_ZNK5Eigen10MatrixBaseINS_6MatrixIdLin1ELi1ELi0ELin1ELi1EEEE9cwiseAbs2Ev CODE
 0001:001d1ae0 00000069H .text$_ZNK5Eigen9DenseBaseINS_12CwiseUnaryOpINS_8internal14scalar_abs2_opIdEEKNS_6MatrixIdLin1ELi1ELi0ELin1ELi1EEEEEE3sumEv CODE
 0001:001d1b50 0000000fH .text$_ZN5Eigen8internal17real_default_implIdLb0EE3runERKd CODE
 0001:001d1b60 00000019H .text$_ZN5Eigen8internal14scalar_abs2_opIdEC1Ev CODE
 0001:001d1b80 0000002dH .text$_ZN5Eigen12CwiseUnaryOpINS_8internal14scalar_abs2_opIdEEKNS_6MatrixIdLin1ELi1ELi0ELin1ELi1EEEEC1ERS6_RKS3_ CODE
 0001:001d1bb0 00000007H .text$_ZN5Eigen8internal14scalar_abs2_opIdEC2Ev CODE
 0001:001d1bc0 00000043H .text$_ZN5Eigen12CwiseUnaryOpINS_8internal14scalar_abs2_opIdEEKNS_6MatrixIdLin1ELi1ELi0ELin1ELi1EEEEC2ERS6_RKS3_ CODE
 0001:001d1c10 00000019H .text$_ZN5Eigen16CwiseUnaryOpImplINS_8internal14scalar_abs2_opIdEEKNS_6MatrixIdLin1ELi1ELi0ELin1ELi1EEENS_5DenseEEC2Ev CODE
 0001:001d1c30 00000023H .text$_ZN5Eigen8internal14scalar_abs2_opIdEC1ERKS2_ CODE
 0001:001d1c60 00000019H .text$_ZN5Eigen10MatrixBaseINS_12CwiseUnaryOpINS_8internal14scalar_abs2_opIdEEKNS_6MatrixIdLin1ELi1ELi0ELin1ELi1EEEEEEC2Ev CODE
 0001:001d1c80 00000007H .text$_ZN5Eigen9DenseBaseINS_12CwiseUnaryOpINS_8internal14scalar_abs2_opIdEEKNS_6MatrixIdLin1ELi1ELi0ELin1ELi1EEEEEEC2Ev CODE
 0001:001d1c90 00000012H .text$_ZN5Eigen8internal14scalar_abs2_opIdEC2ERKS2_ CODE
 0001:001d1cb0 00000038H .text$_ZNK5Eigen9EigenBaseINS_12CwiseUnaryOpINS_8internal14scalar_abs2_opIdEEKNS_6MatrixIdLin1ELi1ELi0ELin1ELi1EEEEEE4sizeEv CODE
 0001:001d1cf0 0000000bH .text$_ZNK5Eigen9EigenBaseINS_12CwiseUnaryOpINS_8internal14scalar_abs2_opIdEEKNS_6MatrixIdLin1ELi1ELi0ELin1ELi1EEEEEE7derivedEv CODE
 0001:001d1d00 000000d9H .text$_ZNK5Eigen9DenseBaseINS_12CwiseUnaryOpINS_8internal14scalar_abs2_opIdEEKNS_6MatrixIdLin1ELi1ELi0ELin1ELi1EEEEEE5reduxINS2_13scalar_sum_opIddEEEEdRKT_ CODE
 0001:001d1de0 00000036H .text$_ZNK5Eigen9EigenBaseINS_12CwiseUnaryOpINS_8internal14scalar_abs2_opIdEEKNS_6MatrixIdLin1ELi1ELi0ELin1ELi1EEEEEE4rowsEv CODE
 0001:001d1e20 00000036H .text$_ZNK5Eigen9EigenBaseINS_12CwiseUnaryOpINS_8internal14scalar_abs2_opIdEEKNS_6MatrixIdLin1ELi1ELi0ELin1ELi1EEEEEE4colsEv CODE
 0001:001d1e60 0000001cH .text$_ZNK5Eigen12CwiseUnaryOpINS_8internal14scalar_abs2_opIdEEKNS_6MatrixIdLin1ELi1ELi0ELin1ELi1EEEE4rowsEv CODE
 0001:001d1e80 0000001cH .text$_ZNK5Eigen12CwiseUnaryOpINS_8internal14scalar_abs2_opIdEEKNS_6MatrixIdLin1ELi1ELi0ELin1ELi1EEEE4colsEv CODE
 0001:001d1ea0 00000023H .text$_ZN5Eigen8internal15redux_evaluatorINS_12CwiseUnaryOpINS0_14scalar_abs2_opIdEEKNS_6MatrixIdLin1ELi1ELi0ELin1ELi1EEEEEEC1ERKS8_ CODE
 0001:001d1ed0 0000045fH .text$_ZN5Eigen8internal10redux_implINS0_13scalar_sum_opIddEENS0_15redux_evaluatorINS_12CwiseUnaryOpINS0_14scalar_abs2_opIdEEKNS_6MatrixIdLin1ELi1ELi0ELin1ELi1EEEEEEELi3ELi0EE3runISB_EEdRKSC_RKS3_RKT_ CODE
 0001:001d2330 00000019H .text$_ZN5Eigen8internal15redux_evaluatorINS_12CwiseUnaryOpINS0_14scalar_abs2_opIdEEKNS_6MatrixIdLin1ELi1ELi0ELin1ELi1EEEEEED1Ev CODE
 0001:001d2350 00000023H .text$_ZN5Eigen8internal15redux_evaluatorINS_12CwiseUnaryOpINS0_14scalar_abs2_opIdEEKNS_6MatrixIdLin1ELi1ELi0ELin1ELi1EEEEEEC2ERKS8_ CODE
 0001:001d2380 00000023H .text$_ZN5Eigen8internal9evaluatorINS_12CwiseUnaryOpINS0_14scalar_abs2_opIdEEKNS_6MatrixIdLin1ELi1ELi0ELin1ELi1EEEEEEC2ERKS8_ CODE
 0001:001d23b0 00000061H .text$_ZN5Eigen8internal15unary_evaluatorINS_12CwiseUnaryOpINS0_14scalar_abs2_opIdEEKNS_6MatrixIdLin1ELi1ELi0ELin1ELi1EEEEENS0_10IndexBasedEdEC2ERKS8_ CODE
 0001:001d2420 00000007H .text$_ZN5Eigen8internal14evaluator_baseINS_12CwiseUnaryOpINS0_14scalar_abs2_opIdEEKNS_6MatrixIdLin1ELi1ELi0ELin1ELi1EEEEEEC2Ev CODE
 0001:001d2430 00000023H .text$_ZN5Eigen8internal15unary_evaluatorINS_12CwiseUnaryOpINS0_14scalar_abs2_opIdEEKNS_6MatrixIdLin1ELi1ELi0ELin1ELi1EEEEENS0_10IndexBasedEdE4DataC1ERKS8_ CODE
 0001:001d2460 00000007H .text$_ZN5Eigen8internal14evaluator_baseINS_12CwiseUnaryOpINS0_14scalar_abs2_opIdEEKNS_6MatrixIdLin1ELi1ELi0ELin1ELi1EEEEEED2Ev CODE
 0001:001d2470 0000005aH .text$_ZN5Eigen8internal15unary_evaluatorINS_12CwiseUnaryOpINS0_14scalar_abs2_opIdEEKNS_6MatrixIdLin1ELi1ELi0ELin1ELi1EEEEENS0_10IndexBasedEdE4DataC2ERKS8_ CODE
 0001:001d24d0 0000000fH .text$_ZNK5Eigen12CwiseUnaryOpINS_8internal14scalar_abs2_opIdEEKNS_6MatrixIdLin1ELi1ELi0ELin1ELi1EEEE7functorEv CODE
 0001:001d24e0 0000000eH .text$_ZNK5Eigen12CwiseUnaryOpINS_8internal14scalar_abs2_opIdEEKNS_6MatrixIdLin1ELi1ELi0ELin1ELi1EEEE16nestedExpressionEv CODE
 0001:001d24f0 00000023H .text$_ZN5Eigen8internal9evaluatorIKNS_6MatrixIdLin1ELi1ELi0ELin1ELi1EEEEC1ERS4_ CODE
 0001:001d2520 00000023H .text$_ZN5Eigen8internal9evaluatorIKNS_6MatrixIdLin1ELi1ELi0ELin1ELi1EEEEC2ERS4_ CODE
 0001:001d2550 00000050H .text$_ZNK5Eigen8internal15unary_evaluatorINS_12CwiseUnaryOpINS0_14scalar_abs2_opIdEEKNS_6MatrixIdLin1ELi1ELi0ELin1ELi1EEEEENS0_10IndexBasedEdE6packetILi16EDv2_dEET0_x CODE
 0001:001d25a0 00000028H .text$_ZNK5Eigen8internal13scalar_sum_opIddE8packetOpIDv2_dEET_RKS5_S7_ CODE
 0001:001d25d0 0000001eH .text$_ZNK5Eigen8internal13scalar_sum_opIddE6preduxIDv2_dEEdRKT_ CODE
 0001:001d25f0 00000048H .text$_ZNK5Eigen8internal15unary_evaluatorINS_12CwiseUnaryOpINS0_14scalar_abs2_opIdEEKNS_6MatrixIdLin1ELi1ELi0ELin1ELi1EEEEENS0_10IndexBasedEdE5coeffEx CODE
 0001:001d2640 00000009H .text$_ZN5Eigen8internal18first_aligned_implILi16ENS_12CwiseUnaryOpINS0_14scalar_abs2_opIdEEKNS_6MatrixIdLin1ELi1ELi0ELin1ELi1EEEEELb1EE3runERKS8_ CODE
 0001:001d2650 0000000bH .text$_ZNK5Eigen8internal15unary_evaluatorINS_12CwiseUnaryOpINS0_14scalar_abs2_opIdEEKNS_6MatrixIdLin1ELi1ELi0ELin1ELi1EEEEENS0_10IndexBasedEdE4Data4funcEv CODE
 0001:001d2660 00000023H .text$_ZNK5Eigen8internal14scalar_abs2_opIdE8packetOpIDv2_dEEKT_RS6_ CODE
 0001:001d2690 0000003bH .text$_ZN5Eigen8internal4pmulIDv2_dEET_RKS3_S5_ CODE
 0001:001d26d0 0000003bH .text$_ZN5Eigen8internal4paddIDv2_dEET_RKS3_S5_ CODE
 0001:001d2710 00000072H .text$_ZN5Eigen8internal6preduxIDv2_dEENS0_15unpacket_traitsIT_E4typeERKS4_ CODE
 0001:001d2790 00000023H .text$_ZN5Eigen8internal6pfirstIDv2_dEENS0_15unpacket_traitsIT_E4typeERKS4_ CODE
 0001:001d27c0 0000001eH .text$_ZNK5Eigen8internal14scalar_abs2_opIdEclERKd CODE
 0001:001d27e0 00000019H .text$_ZN5Eigen8internal15redux_evaluatorINS_12CwiseUnaryOpINS0_14scalar_abs2_opIdEEKNS_6MatrixIdLin1ELi1ELi0ELin1ELi1EEEEEED2Ev CODE
 0001:001d2800 00000019H .text$_ZN5Eigen8internal9evaluatorINS_12CwiseUnaryOpINS0_14scalar_abs2_opIdEEKNS_6MatrixIdLin1ELi1ELi0ELin1ELi1EEEEEED2Ev CODE
 0001:001d2820 00000028H .text$_ZN5Eigen8internal15unary_evaluatorINS_12CwiseUnaryOpINS0_14scalar_abs2_opIdEEKNS_6MatrixIdLin1ELi1ELi0ELin1ELi1EEEEENS0_10IndexBasedEdED2Ev CODE
 0001:001d2850 00000019H .text$_ZN5Eigen8internal15unary_evaluatorINS_12CwiseUnaryOpINS0_14scalar_abs2_opIdEEKNS_6MatrixIdLin1ELi1ELi0ELin1ELi1EEEEENS0_10IndexBasedEdE4DataD1Ev CODE
 0001:001d2870 0000001dH .text$_ZN5Eigen8internal15unary_evaluatorINS_12CwiseUnaryOpINS0_14scalar_abs2_opIdEEKNS_6MatrixIdLin1ELi1ELi0ELin1ELi1EEEEENS0_10IndexBasedEdE4DataD2Ev CODE
 0001:001d2890 00000019H .text$_ZN5Eigen8internal9evaluatorIKNS_6MatrixIdLin1ELi1ELi0ELin1ELi1EEEED1Ev CODE
 0001:001d28b0 00000019H .text$_ZN5Eigen8internal9evaluatorIKNS_6MatrixIdLin1ELi1ELi0ELin1ELi1EEEED2Ev CODE
 0001:001d28d0 00000055H .text$_ZN5Eigen8internal11dot_nocheckINS_6MatrixIdLin1ELi1ELi0ELin1ELi1EEES3_Lb0EE3runERKNS_10MatrixBaseIS3_EES8_ CODE
 0001:001d2930 0000005fH .text$_ZNK5Eigen10MatrixBaseINS_6MatrixIdLin1ELi1ELi0ELin1ELi1EEEE10binaryExprINS_8internal22scalar_conj_product_opIddEES2_EEKNS_13CwiseBinaryOpIT_KS2_KT0_EERKNS0_ISB_EERKS9_ CODE
 0001:001d2990 00000019H .text$_ZN5Eigen8internal22scalar_conj_product_opIddEC1Ev CODE
 0001:001d29b0 00000069H .text$_ZNK5Eigen9DenseBaseINS_13CwiseBinaryOpINS_8internal22scalar_conj_product_opIddEEKNS_6MatrixIdLin1ELi1ELi0ELin1ELi1EEES7_EEE3sumEv CODE
 0001:001d2a20 00000037H .text$_ZN5Eigen13CwiseBinaryOpINS_8internal22scalar_conj_product_opIddEEKNS_6MatrixIdLin1ELi1ELi0ELin1ELi1EEES6_EC1ERS6_S8_RKS3_ CODE
 0001:001d2a60 000000beH .text$_ZN5Eigen13CwiseBinaryOpINS_8internal22scalar_conj_product_opIddEEKNS_6MatrixIdLin1ELi1ELi0ELin1ELi1EEES6_EC2ERS6_S8_RKS3_ CODE
 0001:001d2b20 00000019H .text$_ZN5Eigen17CwiseBinaryOpImplINS_8internal22scalar_conj_product_opIddEEKNS_6MatrixIdLin1ELi1ELi0ELin1ELi1EEES6_NS_5DenseEEC2Ev CODE
 0001:001d2b40 00000023H .text$_ZN5Eigen8internal22scalar_conj_product_opIddEC1ERKS2_ CODE
 0001:001d2b70 00000019H .text$_ZN5Eigen10MatrixBaseINS_13CwiseBinaryOpINS_8internal22scalar_conj_product_opIddEEKNS_6MatrixIdLin1ELi1ELi0ELin1ELi1EEES7_EEEC2Ev CODE
 0001:001d2b90 00000007H .text$_ZN5Eigen9DenseBaseINS_13CwiseBinaryOpINS_8internal22scalar_conj_product_opIddEEKNS_6MatrixIdLin1ELi1ELi0ELin1ELi1EEES7_EEEC2Ev CODE
 0001:001d2ba0 00000012H .text$_ZN5Eigen8internal22scalar_conj_product_opIddEC2ERKS2_ CODE
 0001:001d2bc0 00000007H .text$_ZN5Eigen8internal22scalar_conj_product_opIddEC2Ev CODE
 0001:001d2bd0 00000038H .text$_ZNK5Eigen9EigenBaseINS_13CwiseBinaryOpINS_8internal22scalar_conj_product_opIddEEKNS_6MatrixIdLin1ELi1ELi0ELin1ELi1EEES7_EEE4sizeEv CODE
 0001:001d2c10 0000000bH .text$_ZNK5Eigen9EigenBaseINS_13CwiseBinaryOpINS_8internal22scalar_conj_product_opIddEEKNS_6MatrixIdLin1ELi1ELi0ELin1ELi1EEES7_EEE7derivedEv CODE
 0001:001d2c20 000000d9H .text$_ZNK5Eigen9DenseBaseINS_13CwiseBinaryOpINS_8internal22scalar_conj_product_opIddEEKNS_6MatrixIdLin1ELi1ELi0ELin1ELi1EEES7_EEE5reduxINS2_13scalar_sum_opIddEEEEdRKT_ CODE
 0001:001d2d00 00000036H .text$_ZNK5Eigen9EigenBaseINS_13CwiseBinaryOpINS_8internal22scalar_conj_product_opIddEEKNS_6MatrixIdLin1ELi1ELi0ELin1ELi1EEES7_EEE4rowsEv CODE
 0001:001d2d40 00000036H .text$_ZNK5Eigen9EigenBaseINS_13CwiseBinaryOpINS_8internal22scalar_conj_product_opIddEEKNS_6MatrixIdLin1ELi1ELi0ELin1ELi1EEES7_EEE4colsEv CODE
 0001:001d2d80 0000001dH .text$_ZNK5Eigen13CwiseBinaryOpINS_8internal22scalar_conj_product_opIddEEKNS_6MatrixIdLin1ELi1ELi0ELin1ELi1EEES6_E4rowsEv CODE
 0001:001d2da0 0000001cH .text$_ZNK5Eigen13CwiseBinaryOpINS_8internal22scalar_conj_product_opIddEEKNS_6MatrixIdLin1ELi1ELi0ELin1ELi1EEES6_E4colsEv CODE
 0001:001d2dc0 00000023H .text$_ZN5Eigen8internal15redux_evaluatorINS_13CwiseBinaryOpINS0_22scalar_conj_product_opIddEEKNS_6MatrixIdLin1ELi1ELi0ELin1ELi1EEES7_EEEC1ERKS8_ CODE
 0001:001d2df0 0000045fH .text$_ZN5Eigen8internal10redux_implINS0_13scalar_sum_opIddEENS0_15redux_evaluatorINS_13CwiseBinaryOpINS0_22scalar_conj_product_opIddEEKNS_6MatrixIdLin1ELi1ELi0ELin1ELi1EEESA_EEEELi3ELi0EE3runISB_EEdRKSC_RKS3_RKT_ CODE
 0001:001d3250 00000019H .text$_ZN5Eigen8internal15redux_evaluatorINS_13CwiseBinaryOpINS0_22scalar_conj_product_opIddEEKNS_6MatrixIdLin1ELi1ELi0ELin1ELi1EEES7_EEED1Ev CODE
 0001:001d3270 00000023H .text$_ZN5Eigen8internal15redux_evaluatorINS_13CwiseBinaryOpINS0_22scalar_conj_product_opIddEEKNS_6MatrixIdLin1ELi1ELi0ELin1ELi1EEES7_EEEC2ERKS8_ CODE
 0001:001d32a0 00000023H .text$_ZN5Eigen8internal9evaluatorINS_13CwiseBinaryOpINS0_22scalar_conj_product_opIddEEKNS_6MatrixIdLin1ELi1ELi0ELin1ELi1EEES7_EEEC2ERKS8_ CODE
 0001:001d32d0 00000061H .text$_ZN5Eigen8internal16binary_evaluatorINS_13CwiseBinaryOpINS0_22scalar_conj_product_opIddEEKNS_6MatrixIdLin1ELi1ELi0ELin1ELi1EEES7_EENS0_10IndexBasedES9_ddEC2ERKS8_ CODE
 0001:001d3340 00000007H .text$_ZN5Eigen8internal14evaluator_baseINS_13CwiseBinaryOpINS0_22scalar_conj_product_opIddEEKNS_6MatrixIdLin1ELi1ELi0ELin1ELi1EEES7_EEEC2Ev CODE
 0001:001d3350 00000023H .text$_ZN5Eigen8internal16binary_evaluatorINS_13CwiseBinaryOpINS0_22scalar_conj_product_opIddEEKNS_6MatrixIdLin1ELi1ELi0ELin1ELi1EEES7_EENS0_10IndexBasedES9_ddE4DataC1ERKS8_ CODE
 0001:001d3380 00000007H .text$_ZN5Eigen8internal14evaluator_baseINS_13CwiseBinaryOpINS0_22scalar_conj_product_opIddEEKNS_6MatrixIdLin1ELi1ELi0ELin1ELi1EEES7_EEED2Ev CODE
 0001:001d3390 000000baH .text$_ZN5Eigen8internal16binary_evaluatorINS_13CwiseBinaryOpINS0_22scalar_conj_product_opIddEEKNS_6MatrixIdLin1ELi1ELi0ELin1ELi1EEES7_EENS0_10IndexBasedES9_ddE4DataC2ERKS8_ CODE
 0001:001d3450 0000000fH .text$_ZNK5Eigen13CwiseBinaryOpINS_8internal22scalar_conj_product_opIddEEKNS_6MatrixIdLin1ELi1ELi0ELin1ELi1EEES6_E7functorEv CODE
 0001:001d3460 0000000eH .text$_ZNK5Eigen13CwiseBinaryOpINS_8internal22scalar_conj_product_opIddEEKNS_6MatrixIdLin1ELi1ELi0ELin1ELi1EEES6_E3lhsEv CODE
 0001:001d3470 0000000fH .text$_ZNK5Eigen13CwiseBinaryOpINS_8internal22scalar_conj_product_opIddEEKNS_6MatrixIdLin1ELi1ELi0ELin1ELi1EEES6_E3rhsEv CODE
 0001:001d3480 0000006eH .text$_ZNK5Eigen8internal16binary_evaluatorINS_13CwiseBinaryOpINS0_22scalar_conj_product_opIddEEKNS_6MatrixIdLin1ELi1ELi0ELin1ELi1EEES7_EENS0_10IndexBasedES9_ddE6packetILi16EDv2_dEET0_x CODE
 0001:001d34f0 00000065H .text$_ZNK5Eigen8internal16binary_evaluatorINS_13CwiseBinaryOpINS0_22scalar_conj_product_opIddEEKNS_6MatrixIdLin1ELi1ELi0ELin1ELi1EEES7_EENS0_10IndexBasedES9_ddE5coeffEx CODE
 0001:001d3560 00000009H .text$_ZN5Eigen8internal18first_aligned_implILi16ENS_13CwiseBinaryOpINS0_22scalar_conj_product_opIddEEKNS_6MatrixIdLin1ELi1ELi0ELin1ELi1EEES7_EELb1EE3runERKS8_ CODE
 0001:001d3570 0000000bH .text$_ZNK5Eigen8internal16binary_evaluatorINS_13CwiseBinaryOpINS0_22scalar_conj_product_opIddEEKNS_6MatrixIdLin1ELi1ELi0ELin1ELi1EEES7_EENS0_10IndexBasedES9_ddE4Data4funcEv CODE
 0001:001d3580 0000002dH .text$_ZNK5Eigen8internal22scalar_conj_product_opIddE8packetOpIDv2_dEET_RKS5_S7_ CODE
 0001:001d35b0 00000049H .text$_ZNK5Eigen8internal11conj_helperIDv2_dS2_Lb0ELb0EE4pmulERKS2_S5_ CODE
 0001:001d3600 00000016H .text$_ZNK5Eigen8internal7conj_ifILb0EE5pconjIDv2_dEERKT_S7_ CODE
 0001:001d3620 0000002dH .text$_ZNK5Eigen8internal22scalar_conj_product_opIddEclERKdS4_ CODE
 0001:001d3650 00000049H .text$_ZNK5Eigen8internal11conj_helperIddLb0ELb0EE4pmulERKdS4_ CODE
 0001:001d36a0 00000023H .text$_ZN5Eigen8internal4pmulIdEET_RKS2_S4_ CODE
 0001:001d36d0 00000016H .text$_ZNK5Eigen8internal7conj_ifILb0EE5pconjIdEERKT_S6_ CODE
 0001:001d36f0 00000019H .text$_ZN5Eigen8internal15redux_evaluatorINS_13CwiseBinaryOpINS0_22scalar_conj_product_opIddEEKNS_6MatrixIdLin1ELi1ELi0ELin1ELi1EEES7_EEED2Ev CODE
 0001:001d3710 00000019H .text$_ZN5Eigen8internal9evaluatorINS_13CwiseBinaryOpINS0_22scalar_conj_product_opIddEEKNS_6MatrixIdLin1ELi1ELi0ELin1ELi1EEES7_EEED2Ev CODE
 0001:001d3730 00000028H .text$_ZN5Eigen8internal16binary_evaluatorINS_13CwiseBinaryOpINS0_22scalar_conj_product_opIddEEKNS_6MatrixIdLin1ELi1ELi0ELin1ELi1EEES7_EENS0_10IndexBasedES9_ddED2Ev CODE
 0001:001d3760 00000019H .text$_ZN5Eigen8internal16binary_evaluatorINS_13CwiseBinaryOpINS0_22scalar_conj_product_opIddEEKNS_6MatrixIdLin1ELi1ELi0ELin1ELi1EEES7_EENS0_10IndexBasedES9_ddE4DataD1Ev CODE
 0001:001d3780 00000030H .text$_ZN5Eigen8internal16binary_evaluatorINS_13CwiseBinaryOpINS0_22scalar_conj_product_opIddEEKNS_6MatrixIdLin1ELi1ELi0ELin1ELi1EEES7_EENS0_10IndexBasedES9_ddE4DataD2Ev CODE
 0001:001d37b0 00000049H .text$_ZN5Eigen15PlainObjectBaseINS_6MatrixIdLin1ELi1ELi0ELin1ELi1EEEE4_setINS_13CwiseBinaryOpINS_8internal20scalar_difference_opIddEEKS2_KNS_7ProductINS_3RefIKNS_12SparseMatrixIdLi0EiEELi0ENS_11OuterStrideILin1EEEEES2_Li0EEEEEEERS2_RKNS_9DenseBaseIT_EE CODE
 0001:001d3800 0000004bH .text$_ZN5Eigen8internal15call_assignmentINS_6MatrixIdLin1ELi1ELi0ELin1ELi1EEENS_13CwiseBinaryOpINS0_20scalar_difference_opIddEEKS3_KNS_7ProductINS_3RefIKNS_12SparseMatrixIdLi0EiEELi0ENS_11OuterStrideILin1EEEEES3_Li0EEEEEEEvRT_RKT0_ CODE
 0001:001d3850 00000078H .text$_ZN5Eigen8internal15call_assignmentINS_6MatrixIdLin1ELi1ELi0ELin1ELi1EEENS_13CwiseBinaryOpINS0_20scalar_difference_opIddEEKS3_KNS_7ProductINS_3RefIKNS_12SparseMatrixIdLi0EiEELi0ENS_11OuterStrideILin1EEEEES3_Li0EEEEENS0_9assign_opIddEEEEvRT_RKT0_RKT1_NS0_9enable_ifIXsr25evaluator_assume_aliasingISN_EE5valueEPvE4typeE CODE
 0001:001d38d0 00000023H .text$_ZN5Eigen6MatrixIdLin1ELi1ELi0ELin1ELi1EEC1INS_13CwiseBinaryOpINS_8internal20scalar_difference_opIddEEKS1_KNS_7ProductINS_3RefIKNS_12SparseMatrixIdLi0EiEELi0ENS_11OuterStrideILin1EEEEES1_Li0EEEEEEERKT_ CODE
 0001:001d3900 00000066H .text$_ZN5Eigen6MatrixIdLin1ELi1ELi0ELin1ELi1EEC2INS_13CwiseBinaryOpINS_8internal20scalar_difference_opIddEEKS1_KNS_7ProductINS_3RefIKNS_12SparseMatrixIdLi0EiEELi0ENS_11OuterStrideILin1EEEEES1_Li0EEEEEEERKT_ CODE
 0001:001d3970 00000023H .text$_ZN5Eigen15PlainObjectBaseINS_6MatrixIdLin1ELi1ELi0ELin1ELi1EEEE6_init1INS_13CwiseBinaryOpINS_8internal20scalar_difference_opIddEEKS2_KNS_7ProductINS_3RefIKNS_12SparseMatrixIdLi0EiEELi0ENS_11OuterStrideILin1EEEEES2_Li0EEEEESK_EEvRKNS_9DenseBaseIT0_EE CODE
 0001:001d39a0 00000049H .text$_ZN5Eigen15PlainObjectBaseINS_6MatrixIdLin1ELi1ELi0ELin1ELi1EEEE4_setIS2_EERS2_RKNS_9DenseBaseIT_EE CODE
 0001:001d39f0 0000004bH .text$_ZN5Eigen8internal15call_assignmentINS_6MatrixIdLin1ELi1ELi0ELin1ELi1EEES3_EEvRT_RKT0_ CODE
 0001:001d3a40 00000032H .text$_ZN5Eigen8internal15call_assignmentINS_6MatrixIdLin1ELi1ELi0ELin1ELi1EEES3_NS0_9assign_opIddEEEEvRT_RKT0_RKT1_NS0_9enable_ifIXntsr25evaluator_assume_aliasingIS8_EE5valueEPvE4typeE CODE
 0001:001d3a80 0000000bH .text$_ZNK5Eigen9EigenBaseINS_13CwiseBinaryOpINS_8internal17scalar_product_opIddEEKNS_14CwiseNullaryOpINS2_18scalar_constant_opIdEEKNS_6MatrixIdLin1ELi1ELi0ELin1ELi1EEEEEKNS1_INS2_20scalar_difference_opIddEESA_KNS1_IS4_SC_SA_EEEEEEE7derivedEv CODE
 0001:001d3a90 00000037H .text$_ZN5Eigen13CwiseBinaryOpINS_8internal13scalar_sum_opIddEEKNS_6MatrixIdLin1ELi1ELi0ELin1ELi1EEEKNS0_INS1_17scalar_product_opIddEEKNS_14CwiseNullaryOpINS1_18scalar_constant_opIdEES6_EEKNS0_INS1_20scalar_difference_opIddEES6_KNS0_IS8_SD_S6_EEEEEEEC1ERS6_RSL_RKS3_ CODE
 0001:001d3ad0 000000c8H .text$_ZN5Eigen13CwiseBinaryOpINS_8internal13scalar_sum_opIddEEKNS_6MatrixIdLin1ELi1ELi0ELin1ELi1EEEKNS0_INS1_17scalar_product_opIddEEKNS_14CwiseNullaryOpINS1_18scalar_constant_opIdEES6_EEKNS0_INS1_20scalar_difference_opIddEES6_KNS0_IS8_SD_S6_EEEEEEEC2ERS6_RSL_RKS3_ CODE
 0001:001d3ba0 00000019H .text$_ZN5Eigen17CwiseBinaryOpImplINS_8internal13scalar_sum_opIddEEKNS_6MatrixIdLin1ELi1ELi0ELin1ELi1EEEKNS_13CwiseBinaryOpINS1_17scalar_product_opIddEEKNS_14CwiseNullaryOpINS1_18scalar_constant_opIdEES6_EEKNS7_INS1_20scalar_difference_opIddEES6_KNS7_IS9_SE_S6_EEEEEENS_5DenseEEC2Ev CODE
 0001:001d3bc0 00000023H .text$_ZN5Eigen13CwiseBinaryOpINS_8internal17scalar_product_opIddEEKNS_14CwiseNullaryOpINS1_18scalar_constant_opIdEEKNS_6MatrixIdLin1ELi1ELi0ELin1ELi1EEEEEKNS0_INS1_20scalar_difference_opIddEES9_KNS0_IS3_SB_S9_EEEEEC1ERKSI_ CODE
 0001:001d3bf0 0000001dH .text$_ZNK5Eigen13CwiseBinaryOpINS_8internal17scalar_product_opIddEEKNS_14CwiseNullaryOpINS1_18scalar_constant_opIdEEKNS_6MatrixIdLin1ELi1ELi0ELin1ELi1EEEEEKNS0_INS1_20scalar_difference_opIddEES9_KNS0_IS3_SB_S9_EEEEE4rowsEv CODE
 0001:001d3c10 00000034H .text$_ZNK5Eigen13CwiseBinaryOpINS_8internal17scalar_product_opIddEEKNS_14CwiseNullaryOpINS1_18scalar_constant_opIdEEKNS_6MatrixIdLin1ELi1ELi0ELin1ELi1EEEEEKNS0_INS1_20scalar_difference_opIddEES9_KNS0_IS3_SB_S9_EEEEE4colsEv CODE
 0001:001d3c50 00000019H .text$_ZN5Eigen10MatrixBaseINS_13CwiseBinaryOpINS_8internal13scalar_sum_opIddEEKNS_6MatrixIdLin1ELi1ELi0ELin1ELi1EEEKNS1_INS2_17scalar_product_opIddEEKNS_14CwiseNullaryOpINS2_18scalar_constant_opIdEES7_EEKNS1_INS2_20scalar_difference_opIddEES7_KNS1_IS9_SE_S7_EEEEEEEEEC2Ev CODE
 0001:001d3c70 00000007H .text$_ZN5Eigen9DenseBaseINS_13CwiseBinaryOpINS_8internal13scalar_sum_opIddEEKNS_6MatrixIdLin1ELi1ELi0ELin1ELi1EEEKNS1_INS2_17scalar_product_opIddEEKNS_14CwiseNullaryOpINS2_18scalar_constant_opIdEES7_EEKNS1_INS2_20scalar_difference_opIddEES7_KNS1_IS9_SE_S7_EEEEEEEEEC2Ev CODE
 0001:001d3c80 0000005eH .text$_ZN5Eigen13CwiseBinaryOpINS_8internal17scalar_product_opIddEEKNS_14CwiseNullaryOpINS1_18scalar_constant_opIdEEKNS_6MatrixIdLin1ELi1ELi0ELin1ELi1EEEEEKNS0_INS1_20scalar_difference_opIddEES9_KNS0_IS3_SB_S9_EEEEEC2ERKSI_ CODE
 0001:001d3ce0 00000023H .text$_ZN5Eigen14CwiseNullaryOpINS_8internal18scalar_constant_opIdEEKNS_6MatrixIdLin1ELi1ELi0ELin1ELi1EEEEC1ERKS7_ CODE
 0001:001d3d10 00000023H .text$_ZN5Eigen13CwiseBinaryOpINS_8internal20scalar_difference_opIddEEKNS_6MatrixIdLin1ELi1ELi0ELin1ELi1EEEKNS0_INS1_17scalar_product_opIddEEKNS_14CwiseNullaryOpINS1_18scalar_constant_opIdEES6_EES6_EEEC1ERKSG_ CODE
 0001:001d3d40 00000023H .text$_ZN5Eigen8internal17scalar_product_opIddEC1ERKS2_ CODE
 0001:001d3d70 00000036H .text$_ZN5Eigen14CwiseNullaryOpINS_8internal18scalar_constant_opIdEEKNS_6MatrixIdLin1ELi1ELi0ELin1ELi1EEEEC2ERKS7_ CODE
 0001:001d3db0 00000052H .text$_ZN5Eigen13CwiseBinaryOpINS_8internal20scalar_difference_opIddEEKNS_6MatrixIdLin1ELi1ELi0ELin1ELi1EEEKNS0_INS1_17scalar_product_opIddEEKNS_14CwiseNullaryOpINS1_18scalar_constant_opIdEES6_EES6_EEEC2ERKSG_ CODE
 0001:001d3e10 00000023H .text$_ZN5Eigen13CwiseBinaryOpINS_8internal17scalar_product_opIddEEKNS_14CwiseNullaryOpINS1_18scalar_constant_opIdEEKNS_6MatrixIdLin1ELi1ELi0ELin1ELi1EEEEES9_EC1ERKSC_ CODE
 0001:001d3e40 00000054H .text$_ZN5Eigen13CwiseBinaryOpINS_8internal17scalar_product_opIddEEKNS_14CwiseNullaryOpINS1_18scalar_constant_opIdEEKNS_6MatrixIdLin1ELi1ELi0ELin1ELi1EEEEES9_EC2ERKSC_ CODE
 0001:001d3ea0 00000012H .text$_ZN5Eigen8internal17scalar_product_opIddEC2ERKS2_ CODE
 0001:001d3ec0 0000001dH .text$_ZNK5Eigen13CwiseBinaryOpINS_8internal20scalar_difference_opIddEEKNS_6MatrixIdLin1ELi1ELi0ELin1ELi1EEEKNS0_INS1_17scalar_product_opIddEEKNS_14CwiseNullaryOpINS1_18scalar_constant_opIdEES6_EES6_EEE4rowsEv CODE
 0001:001d3ee0 0000001dH .text$_ZNK5Eigen13CwiseBinaryOpINS_8internal17scalar_product_opIddEEKNS_14CwiseNullaryOpINS1_18scalar_constant_opIdEEKNS_6MatrixIdLin1ELi1ELi0ELin1ELi1EEEEES9_E4rowsEv CODE
 0001:001d3f00 00000014H .text$_ZNK5Eigen14CwiseNullaryOpINS_8internal18scalar_constant_opIdEEKNS_6MatrixIdLin1ELi1ELi0ELin1ELi1EEEE4colsEv CODE
 0001:001d3f20 0000000bH .text$_ZNK5Eigen9EigenBaseINS_13CwiseBinaryOpINS_8internal20scalar_difference_opIddEEKNS_6MatrixIdLin1ELi1ELi0ELin1ELi1EEEKNS1_INS2_17scalar_product_opIddEEKNS_14CwiseNullaryOpINS2_18scalar_constant_opIdEES7_EES7_EEEEE7derivedEv CODE
 0001:001d3f30 0000001cH .text$_ZNK5Eigen13CwiseBinaryOpINS_8internal20scalar_difference_opIddEEKNS_6MatrixIdLin1ELi1ELi0ELin1ELi1EEEKNS0_INS1_17scalar_product_opIddEEKNS_14CwiseNullaryOpINS1_18scalar_constant_opIdEES6_EES6_EEE4colsEv CODE
 0001:001d3f50 00000037H .text$_ZN5Eigen14CwiseNullaryOpINS_8internal18scalar_constant_opIdEEKNS_6MatrixIdLin1ELi1ELi0ELin1ELi1EEEEC1ExxRKS3_ CODE
 0001:001d3f90 00000019H .text$_ZN5Eigen8internal17scalar_product_opIddEC1Ev CODE
 0001:001d3fb0 00000037H .text$_ZN5Eigen13CwiseBinaryOpINS_8internal17scalar_product_opIddEEKNS_14CwiseNullaryOpINS1_18scalar_constant_opIdEEKNS_6MatrixIdLin1ELi1ELi0ELin1ELi1EEEEEKNS0_INS1_20scalar_difference_opIddEES9_KNS0_IS3_SB_S9_EEEEEC1ERSB_RSH_RKS3_ CODE
 0001:001d3ff0 000000a3H .text$_ZN5Eigen14CwiseNullaryOpINS_8internal18scalar_constant_opIdEEKNS_6MatrixIdLin1ELi1ELi0ELin1ELi1EEEEC2ExxRKS3_ CODE
 0001:001d40a0 00000019H .text$_ZN5Eigen10MatrixBaseINS_14CwiseNullaryOpINS_8internal18scalar_constant_opIdEEKNS_6MatrixIdLin1ELi1ELi0ELin1ELi1EEEEEEC2Ev CODE
 0001:001d40c0 00000007H .text$_ZN5Eigen9DenseBaseINS_14CwiseNullaryOpINS_8internal18scalar_constant_opIdEEKNS_6MatrixIdLin1ELi1ELi0ELin1ELi1EEEEEEC2Ev CODE
 0001:001d40d0 00000007H .text$_ZN5Eigen8internal17scalar_product_opIddEC2Ev CODE
 0001:001d40e0 000000d3H .text$_ZN5Eigen13CwiseBinaryOpINS_8internal17scalar_product_opIddEEKNS_14CwiseNullaryOpINS1_18scalar_constant_opIdEEKNS_6MatrixIdLin1ELi1ELi0ELin1ELi1EEEEEKNS0_INS1_20scalar_difference_opIddEES9_KNS0_IS3_SB_S9_EEEEEC2ERSB_RSH_RKS3_ CODE
 0001:001d41c0 00000019H .text$_ZN5Eigen17CwiseBinaryOpImplINS_8internal17scalar_product_opIddEEKNS_14CwiseNullaryOpINS1_18scalar_constant_opIdEEKNS_6MatrixIdLin1ELi1ELi0ELin1ELi1EEEEEKNS_13CwiseBinaryOpINS1_20scalar_difference_opIddEES9_KNSC_IS3_SB_S9_EEEENS_5DenseEEC2Ev CODE
 0001:001d41e0 00000019H .text$_ZNK5Eigen14CwiseNullaryOpINS_8internal18scalar_constant_opIdEEKNS_6MatrixIdLin1ELi1ELi0ELin1ELi1EEEE4rowsEv CODE
 0001:001d4200 00000019H .text$_ZN5Eigen10MatrixBaseINS_13CwiseBinaryOpINS_8internal17scalar_product_opIddEEKNS_14CwiseNullaryOpINS2_18scalar_constant_opIdEEKNS_6MatrixIdLin1ELi1ELi0ELin1ELi1EEEEEKNS1_INS2_20scalar_difference_opIddEESA_KNS1_IS4_SC_SA_EEEEEEEC2Ev CODE
 0001:001d4220 00000007H .text$_ZN5Eigen9DenseBaseINS_13CwiseBinaryOpINS_8internal17scalar_product_opIddEEKNS_14CwiseNullaryOpINS2_18scalar_constant_opIdEEKNS_6MatrixIdLin1ELi1ELi0ELin1ELi1EEEEEKNS1_INS2_20scalar_difference_opIddEESA_KNS1_IS4_SC_SA_EEEEEEEC2Ev CODE
 0001:001d4230 0000000bH .text$_ZNK5Eigen9EigenBaseINS_13CwiseBinaryOpINS_8internal17scalar_product_opIddEEKNS_14CwiseNullaryOpINS2_18scalar_constant_opIdEEKNS_6MatrixIdLin1ELi1ELi0ELin1ELi1EEEEESA_EEE7derivedEv CODE
 0001:001d4240 00000037H .text$_ZN5Eigen13CwiseBinaryOpINS_8internal20scalar_difference_opIddEEKNS_6MatrixIdLin1ELi1ELi0ELin1ELi1EEEKNS0_INS1_17scalar_product_opIddEEKNS_14CwiseNullaryOpINS1_18scalar_constant_opIdEES6_EES6_EEEC1ERS6_RSF_RKS3_ CODE
 0001:001d4280 000000c8H .text$_ZN5Eigen13CwiseBinaryOpINS_8internal20scalar_difference_opIddEEKNS_6MatrixIdLin1ELi1ELi0ELin1ELi1EEEKNS0_INS1_17scalar_product_opIddEEKNS_14CwiseNullaryOpINS1_18scalar_constant_opIdEES6_EES6_EEEC2ERS6_RSF_RKS3_ CODE
 0001:001d4350 00000019H .text$_ZN5Eigen17CwiseBinaryOpImplINS_8internal20scalar_difference_opIddEEKNS_6MatrixIdLin1ELi1ELi0ELin1ELi1EEEKNS_13CwiseBinaryOpINS1_17scalar_product_opIddEEKNS_14CwiseNullaryOpINS1_18scalar_constant_opIdEES6_EES6_EENS_5DenseEEC2Ev CODE
 0001:001d4370 0000001dH .text$_ZNK5Eigen13CwiseBinaryOpINS_8internal17scalar_product_opIddEEKNS_14CwiseNullaryOpINS1_18scalar_constant_opIdEEKNS_6MatrixIdLin1ELi1ELi0ELin1ELi1EEEEES9_E4colsEv CODE
 0001:001d4390 00000019H .text$_ZN5Eigen10MatrixBaseINS_13CwiseBinaryOpINS_8internal20scalar_difference_opIddEEKNS_6MatrixIdLin1ELi1ELi0ELin1ELi1EEEKNS1_INS2_17scalar_product_opIddEEKNS_14CwiseNullaryOpINS2_18scalar_constant_opIdEES7_EES7_EEEEEC2Ev CODE
 0001:001d43b0 00000007H .text$_ZN5Eigen9DenseBaseINS_13CwiseBinaryOpINS_8internal20scalar_difference_opIddEEKNS_6MatrixIdLin1ELi1ELi0ELin1ELi1EEEKNS1_INS2_17scalar_product_opIddEEKNS_14CwiseNullaryOpINS2_18scalar_constant_opIdEES7_EES7_EEEEEC2Ev CODE
 0001:001d43c0 00000037H .text$_ZN5Eigen13CwiseBinaryOpINS_8internal17scalar_product_opIddEEKNS_14CwiseNullaryOpINS1_18scalar_constant_opIdEEKNS_6MatrixIdLin1ELi1ELi0ELin1ELi1EEEEES9_EC1ERSB_RS9_RKS3_ CODE
 0001:001d4400 000000c9H .text$_ZN5Eigen13CwiseBinaryOpINS_8internal17scalar_product_opIddEEKNS_14CwiseNullaryOpINS1_18scalar_constant_opIdEEKNS_6MatrixIdLin1ELi1ELi0ELin1ELi1EEEEES9_EC2ERSB_RS9_RKS3_ CODE
 0001:001d44d0 00000019H .text$_ZN5Eigen17CwiseBinaryOpImplINS_8internal17scalar_product_opIddEEKNS_14CwiseNullaryOpINS1_18scalar_constant_opIdEEKNS_6MatrixIdLin1ELi1ELi0ELin1ELi1EEEEES9_NS_5DenseEEC2Ev CODE
 0001:001d44f0 00000019H .text$_ZN5Eigen10MatrixBaseINS_13CwiseBinaryOpINS_8internal17scalar_product_opIddEEKNS_14CwiseNullaryOpINS2_18scalar_constant_opIdEEKNS_6MatrixIdLin1ELi1ELi0ELin1ELi1EEEEESA_EEEC2Ev CODE
 0001:001d4510 00000007H .text$_ZN5Eigen9DenseBaseINS_13CwiseBinaryOpINS_8internal17scalar_product_opIddEEKNS_14CwiseNullaryOpINS2_18scalar_constant_opIdEEKNS_6MatrixIdLin1ELi1ELi0ELin1ELi1EEEEESA_EEEC2Ev CODE
 0001:001d4520 00000049H .text$_ZN5Eigen15PlainObjectBaseINS_6MatrixIdLin1ELi1ELi0ELin1ELi1EEEE4_setINS_13CwiseBinaryOpINS_8internal13scalar_sum_opIddEEKS2_KNS5_INS6_17scalar_product_opIddEEKNS_14CwiseNullaryOpINS6_18scalar_constant_opIdEES9_EEKNS5_INS6_20scalar_difference_opIddEES9_KNS5_ISB_SG_S9_EEEEEEEEEERS2_RKNS_9DenseBaseIT_EE CODE
 0001:001d4570 0000004bH .text$_ZN5Eigen8internal15call_assignmentINS_6MatrixIdLin1ELi1ELi0ELin1ELi1EEENS_13CwiseBinaryOpINS0_13scalar_sum_opIddEEKS3_KNS4_INS0_17scalar_product_opIddEEKNS_14CwiseNullaryOpINS0_18scalar_constant_opIdEES7_EEKNS4_INS0_20scalar_difference_opIddEES7_KNS4_IS9_SE_S7_EEEEEEEEEEvRT_RKT0_ CODE
 0001:001d45c0 0000000bH .text$_ZNK5Eigen9EigenBaseINS_13CwiseBinaryOpINS_8internal13scalar_sum_opIddEEKNS_6MatrixIdLin1ELi1ELi0ELin1ELi1EEEKNS1_INS2_17scalar_product_opIddEEKNS_14CwiseNullaryOpINS2_18scalar_constant_opIdEES7_EEKNS1_INS2_20scalar_difference_opIddEES7_KNS1_IS9_SE_S7_EEEEEEEEE7derivedEv CODE
 0001:001d45d0 00000032H .text$_ZN5Eigen8internal15call_assignmentINS_6MatrixIdLin1ELi1ELi0ELin1ELi1EEENS_13CwiseBinaryOpINS0_13scalar_sum_opIddEEKS3_KNS4_INS0_17scalar_product_opIddEEKNS_14CwiseNullaryOpINS0_18scalar_constant_opIdEES7_EEKNS4_INS0_20scalar_difference_opIddEES7_KNS4_IS9_SE_S7_EEEEEEEENS0_9assign_opIddEEEEvRT_RKT0_RKT1_NS0_9enable_ifIXntsr25evaluator_assume_aliasingISS_EE5valueEPvE4typeE CODE
 0001:001d4610 00000037H .text$_ZN5Eigen8internal24call_assignment_no_aliasINS_6MatrixIdLin1ELi1ELi0ELin1ELi1EEENS_13CwiseBinaryOpINS0_13scalar_sum_opIddEEKS3_KNS4_INS0_17scalar_product_opIddEEKNS_14CwiseNullaryOpINS0_18scalar_constant_opIdEES7_EEKNS4_INS0_20scalar_difference_opIddEES7_KNS4_IS9_SE_S7_EEEEEEEENS0_9assign_opIddEEEEvRT_RKT0_RKT1_ CODE
 0001:001d4650 0000003cH .text$_ZN5Eigen8internal10AssignmentINS_6MatrixIdLin1ELi1ELi0ELin1ELi1EEENS_13CwiseBinaryOpINS0_13scalar_sum_opIddEEKS3_KNS4_INS0_17scalar_product_opIddEEKNS_14CwiseNullaryOpINS0_18scalar_constant_opIdEES7_EEKNS4_INS0_20scalar_difference_opIddEES7_KNS4_IS9_SE_S7_EEEEEEEENS0_9assign_opIddEENS0_11Dense2DenseEvE3runERS3_RKSN_RKSP_ CODE
 0001:001d4690 00000012H .text$_ZN5Eigen8internal18check_for_aliasingINS_6MatrixIdLin1ELi1ELi0ELin1ELi1EEENS_13CwiseBinaryOpINS0_13scalar_sum_opIddEEKS3_KNS4_INS0_17scalar_product_opIddEEKNS_14CwiseNullaryOpINS0_18scalar_constant_opIdEES7_EEKNS4_INS0_20scalar_difference_opIddEES7_KNS4_IS9_SE_S7_EEEEEEEEEEvRKT_RKT0_ CODE
 0001:001d46b0 00000118H .text$_ZN5Eigen8internal26call_dense_assignment_loopINS_6MatrixIdLin1ELi1ELi0ELin1ELi1EEENS_13CwiseBinaryOpINS0_13scalar_sum_opIddEEKS3_KNS4_INS0_17scalar_product_opIddEEKNS_14CwiseNullaryOpINS0_18scalar_constant_opIdEES7_EEKNS4_INS0_20scalar_difference_opIddEES7_KNS4_IS9_SE_S7_EEEEEEEENS0_9assign_opIddEEEEvRT_RKT0_RKT1_ CODE
 0001:001d47d0 00000023H .text$_ZN5Eigen8internal9evaluatorINS_13CwiseBinaryOpINS0_13scalar_sum_opIddEEKNS_6MatrixIdLin1ELi1ELi0ELin1ELi1EEEKNS2_INS0_17scalar_product_opIddEEKNS_14CwiseNullaryOpINS0_18scalar_constant_opIdEES7_EEKNS2_INS0_20scalar_difference_opIddEES7_KNS2_IS9_SE_S7_EEEEEEEEEC1ERKSN_ CODE
 0001:001d4800 000000b8H .text$_ZN5Eigen8internal17resize_if_allowedINS_6MatrixIdLin1ELi1ELi0ELin1ELi1EEENS_13CwiseBinaryOpINS0_13scalar_sum_opIddEEKS3_KNS4_INS0_17scalar_product_opIddEEKNS_14CwiseNullaryOpINS0_18scalar_constant_opIdEES7_EEKNS4_INS0_20scalar_difference_opIddEES7_KNS4_IS9_SE_S7_EEEEEEEEddEEvRT_RKT0_RKNS0_9assign_opIT1_T2_EE CODE
 0001:001d48c0 00000046H .text$_ZN5Eigen8internal31generic_dense_assignment_kernelINS0_9evaluatorINS_6MatrixIdLin1ELi1ELi0ELin1ELi1EEEEENS2_INS_13CwiseBinaryOpINS0_13scalar_sum_opIddEEKS4_KNS6_INS0_17scalar_product_opIddEEKNS_14CwiseNullaryOpINS0_18scalar_constant_opIdEES9_EEKNS6_INS0_20scalar_difference_opIddEES9_KNS6_ISB_SG_S9_EEEEEEEEEENS0_9assign_opIddEELi0EEC1ERS5_RKSQ_RKSS_RS4_ CODE
 0001:001d4910 000000a8H .text$_ZN5Eigen8internal21dense_assignment_loopINS0_31generic_dense_assignment_kernelINS0_9evaluatorINS_6MatrixIdLin1ELi1ELi0ELin1ELi1EEEEENS3_INS_13CwiseBinaryOpINS0_13scalar_sum_opIddEEKS5_KNS7_INS0_17scalar_product_opIddEEKNS_14CwiseNullaryOpINS0_18scalar_constant_opIdEESA_EEKNS7_INS0_20scalar_difference_opIddEESA_KNS7_ISC_SH_SA_EEEEEEEEEENS0_9assign_opIddEELi0EEELi3ELi0EE3runERSU_ CODE
 0001:001d49c0 00000019H .text$_ZN5Eigen8internal9evaluatorINS_13CwiseBinaryOpINS0_13scalar_sum_opIddEEKNS_6MatrixIdLin1ELi1ELi0ELin1ELi1EEEKNS2_INS0_17scalar_product_opIddEEKNS_14CwiseNullaryOpINS0_18scalar_constant_opIdEES7_EEKNS2_INS0_20scalar_difference_opIddEES7_KNS2_IS9_SE_S7_EEEEEEEEED1Ev CODE
 0001:001d49e0 00000023H .text$_ZN5Eigen8internal9evaluatorINS_13CwiseBinaryOpINS0_13scalar_sum_opIddEEKNS_6MatrixIdLin1ELi1ELi0ELin1ELi1EEEKNS2_INS0_17scalar_product_opIddEEKNS_14CwiseNullaryOpINS0_18scalar_constant_opIdEES7_EEKNS2_INS0_20scalar_difference_opIddEES7_KNS2_IS9_SE_S7_EEEEEEEEEC2ERKSN_ CODE
 0001:001d4a10 00000061H .text$_ZN5Eigen8internal16binary_evaluatorINS_13CwiseBinaryOpINS0_13scalar_sum_opIddEEKNS_6MatrixIdLin1ELi1ELi0ELin1ELi1EEEKNS2_INS0_17scalar_product_opIddEEKNS_14CwiseNullaryOpINS0_18scalar_constant_opIdEES7_EEKNS2_INS0_20scalar_difference_opIddEES7_KNS2_IS9_SE_S7_EEEEEEEENS0_10IndexBasedESO_ddEC2ERKSN_ CODE
 0001:001d4a80 00000007H .text$_ZN5Eigen8internal14evaluator_baseINS_13CwiseBinaryOpINS0_13scalar_sum_opIddEEKNS_6MatrixIdLin1ELi1ELi0ELin1ELi1EEEKNS2_INS0_17scalar_product_opIddEEKNS_14CwiseNullaryOpINS0_18scalar_constant_opIdEES7_EEKNS2_INS0_20scalar_difference_opIddEES7_KNS2_IS9_SE_S7_EEEEEEEEEC2Ev CODE
 0001:001d4a90 00000023H .text$_ZN5Eigen8internal16binary_evaluatorINS_13CwiseBinaryOpINS0_13scalar_sum_opIddEEKNS_6MatrixIdLin1ELi1ELi0ELin1ELi1EEEKNS2_INS0_17scalar_product_opIddEEKNS_14CwiseNullaryOpINS0_18scalar_constant_opIdEES7_EEKNS2_INS0_20scalar_difference_opIddEES7_KNS2_IS9_SE_S7_EEEEEEEENS0_10IndexBasedESO_ddE4DataC1ERKSN_ CODE
 0001:001d4ac0 00000007H .text$_ZN5Eigen8internal14evaluator_baseINS_13CwiseBinaryOpINS0_13scalar_sum_opIddEEKNS_6MatrixIdLin1ELi1ELi0ELin1ELi1EEEKNS2_INS0_17scalar_product_opIddEEKNS_14CwiseNullaryOpINS0_18scalar_constant_opIdEES7_EEKNS2_INS0_20scalar_difference_opIddEES7_KNS2_IS9_SE_S7_EEEEEEEEED2Ev CODE
 0001:001d4ad0 000000baH .text$_ZN5Eigen8internal16binary_evaluatorINS_13CwiseBinaryOpINS0_13scalar_sum_opIddEEKNS_6MatrixIdLin1ELi1ELi0ELin1ELi1EEEKNS2_INS0_17scalar_product_opIddEEKNS_14CwiseNullaryOpINS0_18scalar_constant_opIdEES7_EEKNS2_INS0_20scalar_difference_opIddEES7_KNS2_IS9_SE_S7_EEEEEEEENS0_10IndexBasedESO_ddE4DataC2ERKSN_ CODE
 0001:001d4b90 0000000fH .text$_ZNK5Eigen13CwiseBinaryOpINS_8internal13scalar_sum_opIddEEKNS_6MatrixIdLin1ELi1ELi0ELin1ELi1EEEKNS0_INS1_17scalar_product_opIddEEKNS_14CwiseNullaryOpINS1_18scalar_constant_opIdEES6_EEKNS0_INS1_20scalar_difference_opIddEES6_KNS0_IS8_SD_S6_EEEEEEE7functorEv CODE
 0001:001d4ba0 0000000eH .text$_ZNK5Eigen13CwiseBinaryOpINS_8internal13scalar_sum_opIddEEKNS_6MatrixIdLin1ELi1ELi0ELin1ELi1EEEKNS0_INS1_17scalar_product_opIddEEKNS_14CwiseNullaryOpINS1_18scalar_constant_opIdEES6_EEKNS0_INS1_20scalar_difference_opIddEES6_KNS0_IS8_SD_S6_EEEEEEE3lhsEv CODE
 0001:001d4bb0 0000000fH .text$_ZNK5Eigen13CwiseBinaryOpINS_8internal13scalar_sum_opIddEEKNS_6MatrixIdLin1ELi1ELi0ELin1ELi1EEEKNS0_INS1_17scalar_product_opIddEEKNS_14CwiseNullaryOpINS1_18scalar_constant_opIdEES6_EEKNS0_INS1_20scalar_difference_opIddEES6_KNS0_IS8_SD_S6_EEEEEEE3rhsEv CODE
 0001:001d4bc0 00000023H .text$_ZN5Eigen8internal9evaluatorIKNS_13CwiseBinaryOpINS0_17scalar_product_opIddEEKNS_14CwiseNullaryOpINS0_18scalar_constant_opIdEEKNS_6MatrixIdLin1ELi1ELi0ELin1ELi1EEEEEKNS2_INS0_20scalar_difference_opIddEESA_KNS2_IS4_SC_SA_EEEEEEEC1ERSK_ CODE
 0001:001d4bf0 00000023H .text$_ZN5Eigen8internal9evaluatorIKNS_13CwiseBinaryOpINS0_17scalar_product_opIddEEKNS_14CwiseNullaryOpINS0_18scalar_constant_opIdEEKNS_6MatrixIdLin1ELi1ELi0ELin1ELi1EEEEEKNS2_INS0_20scalar_difference_opIddEESA_KNS2_IS4_SC_SA_EEEEEEEC2ERSK_ CODE
 0001:001d4c20 00000023H .text$_ZN5Eigen8internal9evaluatorINS_13CwiseBinaryOpINS0_17scalar_product_opIddEEKNS_14CwiseNullaryOpINS0_18scalar_constant_opIdEEKNS_6MatrixIdLin1ELi1ELi0ELin1ELi1EEEEEKNS2_INS0_20scalar_difference_opIddEESA_KNS2_IS4_SC_SA_EEEEEEEC2ERKSJ_ CODE
 0001:001d4c50 00000061H .text$_ZN5Eigen8internal16binary_evaluatorINS_13CwiseBinaryOpINS0_17scalar_product_opIddEEKNS_14CwiseNullaryOpINS0_18scalar_constant_opIdEEKNS_6MatrixIdLin1ELi1ELi0ELin1ELi1EEEEEKNS2_INS0_20scalar_difference_opIddEESA_KNS2_IS4_SC_SA_EEEEEENS0_10IndexBasedESK_ddEC2ERKSJ_ CODE
 0001:001d4cc0 00000007H .text$_ZN5Eigen8internal14evaluator_baseINS_13CwiseBinaryOpINS0_17scalar_product_opIddEEKNS_14CwiseNullaryOpINS0_18scalar_constant_opIdEEKNS_6MatrixIdLin1ELi1ELi0ELin1ELi1EEEEEKNS2_INS0_20scalar_difference_opIddEESA_KNS2_IS4_SC_SA_EEEEEEEC2Ev CODE
 0001:001d4cd0 00000023H .text$_ZN5Eigen8internal16binary_evaluatorINS_13CwiseBinaryOpINS0_17scalar_product_opIddEEKNS_14CwiseNullaryOpINS0_18scalar_constant_opIdEEKNS_6MatrixIdLin1ELi1ELi0ELin1ELi1EEEEEKNS2_INS0_20scalar_difference_opIddEESA_KNS2_IS4_SC_SA_EEEEEENS0_10IndexBasedESK_ddE4DataC1ERKSJ_ CODE
 0001:001d4d00 00000007H .text$_ZN5Eigen8internal14evaluator_baseINS_13CwiseBinaryOpINS0_17scalar_product_opIddEEKNS_14CwiseNullaryOpINS0_18scalar_constant_opIdEEKNS_6MatrixIdLin1ELi1ELi0ELin1ELi1EEEEEKNS2_INS0_20scalar_difference_opIddEESA_KNS2_IS4_SC_SA_EEEEEEED2Ev CODE
 0001:001d4d10 000000baH .text$_ZN5Eigen8internal16binary_evaluatorINS_13CwiseBinaryOpINS0_17scalar_product_opIddEEKNS_14CwiseNullaryOpINS0_18scalar_constant_opIdEEKNS_6MatrixIdLin1ELi1ELi0ELin1ELi1EEEEEKNS2_INS0_20scalar_difference_opIddEESA_KNS2_IS4_SC_SA_EEEEEENS0_10IndexBasedESK_ddE4DataC2ERKSJ_ CODE
 0001:001d4dd0 0000000fH .text$_ZNK5Eigen13CwiseBinaryOpINS_8internal17scalar_product_opIddEEKNS_14CwiseNullaryOpINS1_18scalar_constant_opIdEEKNS_6MatrixIdLin1ELi1ELi0ELin1ELi1EEEEEKNS0_INS1_20scalar_difference_opIddEES9_KNS0_IS3_SB_S9_EEEEE7functorEv CODE
 0001:001d4de0 0000000fH .text$_ZNK5Eigen13CwiseBinaryOpINS_8internal17scalar_product_opIddEEKNS_14CwiseNullaryOpINS1_18scalar_constant_opIdEEKNS_6MatrixIdLin1ELi1ELi0ELin1ELi1EEEEEKNS0_INS1_20scalar_difference_opIddEES9_KNS0_IS3_SB_S9_EEEEE3lhsEv CODE
 0001:001d4df0 00000023H .text$_ZN5Eigen8internal9evaluatorIKNS_14CwiseNullaryOpINS0_18scalar_constant_opIdEEKNS_6MatrixIdLin1ELi1ELi0ELin1ELi1EEEEEEC1ERS9_ CODE
 0001:001d4e20 0000000fH .text$_ZNK5Eigen13CwiseBinaryOpINS_8internal17scalar_product_opIddEEKNS_14CwiseNullaryOpINS1_18scalar_constant_opIdEEKNS_6MatrixIdLin1ELi1ELi0ELin1ELi1EEEEEKNS0_INS1_20scalar_difference_opIddEES9_KNS0_IS3_SB_S9_EEEEE3rhsEv CODE
 0001:001d4e30 00000023H .text$_ZN5Eigen8internal9evaluatorIKNS_13CwiseBinaryOpINS0_20scalar_difference_opIddEEKNS_6MatrixIdLin1ELi1ELi0ELin1ELi1EEEKNS2_INS0_17scalar_product_opIddEEKNS_14CwiseNullaryOpINS0_18scalar_constant_opIdEES7_EES7_EEEEEC1ERSI_ CODE
 0001:001d4e60 00000019H .text$_ZN5Eigen8internal9evaluatorIKNS_14CwiseNullaryOpINS0_18scalar_constant_opIdEEKNS_6MatrixIdLin1ELi1ELi0ELin1ELi1EEEEEED1Ev CODE
 0001:001d4e80 00000023H .text$_ZN5Eigen8internal9evaluatorIKNS_14CwiseNullaryOpINS0_18scalar_constant_opIdEEKNS_6MatrixIdLin1ELi1ELi0ELin1ELi1EEEEEEC2ERS9_ CODE
 0001:001d4eb0 0000007dH .text$_ZN5Eigen8internal9evaluatorINS_14CwiseNullaryOpINS0_18scalar_constant_opIdEEKNS_6MatrixIdLin1ELi1ELi0ELin1ELi1EEEEEEC2ERKS8_ CODE
 0001:001d4f30 00000007H .text$_ZN5Eigen8internal14evaluator_baseINS_14CwiseNullaryOpINS0_18scalar_constant_opIdEEKNS_6MatrixIdLin1ELi1ELi0ELin1ELi1EEEEEEC2Ev CODE
 0001:001d4f40 0000000fH .text$_ZNK5Eigen14CwiseNullaryOpINS_8internal18scalar_constant_opIdEEKNS_6MatrixIdLin1ELi1ELi0ELin1ELi1EEEE7functorEv CODE
 0001:001d4f50 00000007H .text$_ZN5Eigen8internal14evaluator_baseINS_14CwiseNullaryOpINS0_18scalar_constant_opIdEEKNS_6MatrixIdLin1ELi1ELi0ELin1ELi1EEEEEED2Ev CODE
 0001:001d4f60 00000023H .text$_ZN5Eigen8internal9evaluatorIKNS_13CwiseBinaryOpINS0_20scalar_difference_opIddEEKNS_6MatrixIdLin1ELi1ELi0ELin1ELi1EEEKNS2_INS0_17scalar_product_opIddEEKNS_14CwiseNullaryOpINS0_18scalar_constant_opIdEES7_EES7_EEEEEC2ERSI_ CODE
 0001:001d4f90 00000023H .text$_ZN5Eigen8internal9evaluatorINS_13CwiseBinaryOpINS0_20scalar_difference_opIddEEKNS_6MatrixIdLin1ELi1ELi0ELin1ELi1EEEKNS2_INS0_17scalar_product_opIddEEKNS_14CwiseNullaryOpINS0_18scalar_constant_opIdEES7_EES7_EEEEEC2ERKSH_ CODE
 0001:001d4fc0 00000061H .text$_ZN5Eigen8internal16binary_evaluatorINS_13CwiseBinaryOpINS0_20scalar_difference_opIddEEKNS_6MatrixIdLin1ELi1ELi0ELin1ELi1EEEKNS2_INS0_17scalar_product_opIddEEKNS_14CwiseNullaryOpINS0_18scalar_constant_opIdEES7_EES7_EEEENS0_10IndexBasedESI_ddEC2ERKSH_ CODE
 0001:001d5030 00000007H .text$_ZN5Eigen8internal14evaluator_baseINS_13CwiseBinaryOpINS0_20scalar_difference_opIddEEKNS_6MatrixIdLin1ELi1ELi0ELin1ELi1EEEKNS2_INS0_17scalar_product_opIddEEKNS_14CwiseNullaryOpINS0_18scalar_constant_opIdEES7_EES7_EEEEEC2Ev CODE
 0001:001d5040 00000023H .text$_ZN5Eigen8internal16binary_evaluatorINS_13CwiseBinaryOpINS0_20scalar_difference_opIddEEKNS_6MatrixIdLin1ELi1ELi0ELin1ELi1EEEKNS2_INS0_17scalar_product_opIddEEKNS_14CwiseNullaryOpINS0_18scalar_constant_opIdEES7_EES7_EEEENS0_10IndexBasedESI_ddE4DataC1ERKSH_ CODE
 0001:001d5070 00000007H .text$_ZN5Eigen8internal14evaluator_baseINS_13CwiseBinaryOpINS0_20scalar_difference_opIddEEKNS_6MatrixIdLin1ELi1ELi0ELin1ELi1EEEKNS2_INS0_17scalar_product_opIddEEKNS_14CwiseNullaryOpINS0_18scalar_constant_opIdEES7_EES7_EEEEED2Ev CODE
 0001:001d5080 000000baH .text$_ZN5Eigen8internal16binary_evaluatorINS_13CwiseBinaryOpINS0_20scalar_difference_opIddEEKNS_6MatrixIdLin1ELi1ELi0ELin1ELi1EEEKNS2_INS0_17scalar_product_opIddEEKNS_14CwiseNullaryOpINS0_18scalar_constant_opIdEES7_EES7_EEEENS0_10IndexBasedESI_ddE4DataC2ERKSH_ CODE
 0001:001d5140 0000000fH .text$_ZNK5Eigen13CwiseBinaryOpINS_8internal20scalar_difference_opIddEEKNS_6MatrixIdLin1ELi1ELi0ELin1ELi1EEEKNS0_INS1_17scalar_product_opIddEEKNS_14CwiseNullaryOpINS1_18scalar_constant_opIdEES6_EES6_EEE7functorEv CODE
 0001:001d5150 0000000eH .text$_ZNK5Eigen13CwiseBinaryOpINS_8internal20scalar_difference_opIddEEKNS_6MatrixIdLin1ELi1ELi0ELin1ELi1EEEKNS0_INS1_17scalar_product_opIddEEKNS_14CwiseNullaryOpINS1_18scalar_constant_opIdEES6_EES6_EEE3lhsEv CODE
 0001:001d5160 0000000fH .text$_ZNK5Eigen13CwiseBinaryOpINS_8internal20scalar_difference_opIddEEKNS_6MatrixIdLin1ELi1ELi0ELin1ELi1EEEKNS0_INS1_17scalar_product_opIddEEKNS_14CwiseNullaryOpINS1_18scalar_constant_opIdEES6_EES6_EEE3rhsEv CODE
 0001:001d5170 00000023H .text$_ZN5Eigen8internal9evaluatorIKNS_13CwiseBinaryOpINS0_17scalar_product_opIddEEKNS_14CwiseNullaryOpINS0_18scalar_constant_opIdEEKNS_6MatrixIdLin1ELi1ELi0ELin1ELi1EEEEESA_EEEC1ERSE_ CODE
 0001:001d51a0 00000023H .text$_ZN5Eigen8internal9evaluatorIKNS_13CwiseBinaryOpINS0_17scalar_product_opIddEEKNS_14CwiseNullaryOpINS0_18scalar_constant_opIdEEKNS_6MatrixIdLin1ELi1ELi0ELin1ELi1EEEEESA_EEEC2ERSE_ CODE
 0001:001d51d0 00000023H .text$_ZN5Eigen8internal9evaluatorINS_13CwiseBinaryOpINS0_17scalar_product_opIddEEKNS_14CwiseNullaryOpINS0_18scalar_constant_opIdEEKNS_6MatrixIdLin1ELi1ELi0ELin1ELi1EEEEESA_EEEC2ERKSD_ CODE
 0001:001d5200 00000061H .text$_ZN5Eigen8internal16binary_evaluatorINS_13CwiseBinaryOpINS0_17scalar_product_opIddEEKNS_14CwiseNullaryOpINS0_18scalar_constant_opIdEEKNS_6MatrixIdLin1ELi1ELi0ELin1ELi1EEEEESA_EENS0_10IndexBasedESE_ddEC2ERKSD_ CODE
 0001:001d5270 00000007H .text$_ZN5Eigen8internal14evaluator_baseINS_13CwiseBinaryOpINS0_17scalar_product_opIddEEKNS_14CwiseNullaryOpINS0_18scalar_constant_opIdEEKNS_6MatrixIdLin1ELi1ELi0ELin1ELi1EEEEESA_EEEC2Ev CODE
 0001:001d5280 00000023H .text$_ZN5Eigen8internal16binary_evaluatorINS_13CwiseBinaryOpINS0_17scalar_product_opIddEEKNS_14CwiseNullaryOpINS0_18scalar_constant_opIdEEKNS_6MatrixIdLin1ELi1ELi0ELin1ELi1EEEEESA_EENS0_10IndexBasedESE_ddE4DataC1ERKSD_ CODE
 0001:001d52b0 00000007H .text$_ZN5Eigen8internal14evaluator_baseINS_13CwiseBinaryOpINS0_17scalar_product_opIddEEKNS_14CwiseNullaryOpINS0_18scalar_constant_opIdEEKNS_6MatrixIdLin1ELi1ELi0ELin1ELi1EEEEESA_EEED2Ev CODE
 0001:001d52c0 000000baH .text$_ZN5Eigen8internal16binary_evaluatorINS_13CwiseBinaryOpINS0_17scalar_product_opIddEEKNS_14CwiseNullaryOpINS0_18scalar_constant_opIdEEKNS_6MatrixIdLin1ELi1ELi0ELin1ELi1EEEEESA_EENS0_10IndexBasedESE_ddE4DataC2ERKSD_ CODE
 0001:001d5380 0000000fH .text$_ZNK5Eigen13CwiseBinaryOpINS_8internal17scalar_product_opIddEEKNS_14CwiseNullaryOpINS1_18scalar_constant_opIdEEKNS_6MatrixIdLin1ELi1ELi0ELin1ELi1EEEEES9_E7functorEv CODE
 0001:001d5390 0000000fH .text$_ZNK5Eigen13CwiseBinaryOpINS_8internal17scalar_product_opIddEEKNS_14CwiseNullaryOpINS1_18scalar_constant_opIdEEKNS_6MatrixIdLin1ELi1ELi0ELin1ELi1EEEEES9_E3lhsEv CODE
 0001:001d53a0 0000000fH .text$_ZNK5Eigen13CwiseBinaryOpINS_8internal17scalar_product_opIddEEKNS_14CwiseNullaryOpINS1_18scalar_constant_opIdEEKNS_6MatrixIdLin1ELi1ELi0ELin1ELi1EEEEES9_E3rhsEv CODE
 0001:001d53b0 00000019H .text$_ZN5Eigen8internal9evaluatorIKNS_14CwiseNullaryOpINS0_18scalar_constant_opIdEEKNS_6MatrixIdLin1ELi1ELi0ELin1ELi1EEEEEED2Ev CODE
 0001:001d53d0 00000019H .text$_ZN5Eigen8internal9evaluatorINS_14CwiseNullaryOpINS0_18scalar_constant_opIdEEKNS_6MatrixIdLin1ELi1ELi0ELin1ELi1EEEEEED2Ev CODE
 0001:001d53f0 0000001dH .text$_ZNK5Eigen13CwiseBinaryOpINS_8internal13scalar_sum_opIddEEKNS_6MatrixIdLin1ELi1ELi0ELin1ELi1EEEKNS0_INS1_17scalar_product_opIddEEKNS_14CwiseNullaryOpINS1_18scalar_constant_opIdEES6_EEKNS0_INS1_20scalar_difference_opIddEES6_KNS0_IS8_SD_S6_EEEEEEE4rowsEv CODE
 0001:001d5410 0000001cH .text$_ZNK5Eigen13CwiseBinaryOpINS_8internal13scalar_sum_opIddEEKNS_6MatrixIdLin1ELi1ELi0ELin1ELi1EEEKNS0_INS1_17scalar_product_opIddEEKNS_14CwiseNullaryOpINS1_18scalar_constant_opIdEES6_EEKNS0_INS1_20scalar_difference_opIddEES6_KNS0_IS8_SD_S6_EEEEEEE4colsEv CODE
 0001:001d5430 00000048H .text$_ZN5Eigen8internal31generic_dense_assignment_kernelINS0_9evaluatorINS_6MatrixIdLin1ELi1ELi0ELin1ELi1EEEEENS2_INS_13CwiseBinaryOpINS0_13scalar_sum_opIddEEKS4_KNS6_INS0_17scalar_product_opIddEEKNS_14CwiseNullaryOpINS0_18scalar_constant_opIdEES9_EEKNS6_INS0_20scalar_difference_opIddEES9_KNS6_ISB_SG_S9_EEEEEEEEEENS0_9assign_opIddEELi0EEC2ERS5_RKSQ_RKSS_RS4_ CODE
 0001:001d5480 0000001dH .text$_ZNK5Eigen8internal31generic_dense_assignment_kernelINS0_9evaluatorINS_6MatrixIdLin1ELi1ELi0ELin1ELi1EEEEENS2_INS_13CwiseBinaryOpINS0_13scalar_sum_opIddEEKS4_KNS6_INS0_17scalar_product_opIddEEKNS_14CwiseNullaryOpINS0_18scalar_constant_opIdEES9_EEKNS6_INS0_20scalar_difference_opIddEES9_KNS6_ISB_SG_S9_EEEEEEEEEENS0_9assign_opIddEELi0EE4sizeEv CODE
 0001:001d54a0 00000017H .text$_ZN5Eigen8internal31unaligned_dense_assignment_loopILb1EE3runINS0_31generic_dense_assignment_kernelINS0_9evaluatorINS_6MatrixIdLin1ELi1ELi0ELin1ELi1EEEEENS5_INS_13CwiseBinaryOpINS0_13scalar_sum_opIddEEKS7_KNS9_INS0_17scalar_product_opIddEEKNS_14CwiseNullaryOpINS0_18scalar_constant_opIdEESC_EEKNS9_INS0_20scalar_difference_opIddEESC_KNS9_ISE_SJ_SC_EEEEEEEEEENS0_9assign_opIddEELi0EEEEEvRT_xx CODE
 0001:001d54c0 00000069H .text$_ZN5Eigen8internal31generic_dense_assignment_kernelINS0_9evaluatorINS_6MatrixIdLin1ELi1ELi0ELin1ELi1EEEEENS2_INS_13CwiseBinaryOpINS0_13scalar_sum_opIddEEKS4_KNS6_INS0_17scalar_product_opIddEEKNS_14CwiseNullaryOpINS0_18scalar_constant_opIdEES9_EEKNS6_INS0_20scalar_difference_opIddEES9_KNS6_ISB_SG_S9_EEEEEEEEEENS0_9assign_opIddEELi0EE12assignPacketILi16ELi16EDv2_dEEvx CODE
 0001:001d5530 00000054H .text$_ZN5Eigen8internal31unaligned_dense_assignment_loopILb0EE3runINS0_31generic_dense_assignment_kernelINS0_9evaluatorINS_6MatrixIdLin1ELi1ELi0ELin1ELi1EEEEENS5_INS_13CwiseBinaryOpINS0_13scalar_sum_opIddEEKS7_KNS9_INS0_17scalar_product_opIddEEKNS_14CwiseNullaryOpINS0_18scalar_constant_opIdEESC_EEKNS9_INS0_20scalar_difference_opIddEESC_KNS9_ISE_SJ_SC_EEEEEEEEEENS0_9assign_opIddEELi0EEEEEvRT_xx CODE
 0001:001d5590 0000006eH .text$_ZNK5Eigen8internal16binary_evaluatorINS_13CwiseBinaryOpINS0_13scalar_sum_opIddEEKNS_6MatrixIdLin1ELi1ELi0ELin1ELi1EEEKNS2_INS0_17scalar_product_opIddEEKNS_14CwiseNullaryOpINS0_18scalar_constant_opIdEES7_EEKNS2_INS0_20scalar_difference_opIddEES7_KNS2_IS9_SE_S7_EEEEEEEENS0_10IndexBasedESO_ddE6packetILi16EDv2_dEET0_x CODE
 0001:001d5600 0000000bH .text$_ZNK5Eigen8internal16binary_evaluatorINS_13CwiseBinaryOpINS0_13scalar_sum_opIddEEKNS_6MatrixIdLin1ELi1ELi0ELin1ELi1EEEKNS2_INS0_17scalar_product_opIddEEKNS_14CwiseNullaryOpINS0_18scalar_constant_opIdEES7_EEKNS2_INS0_20scalar_difference_opIddEES7_KNS2_IS9_SE_S7_EEEEEEEENS0_10IndexBasedESO_ddE4Data4funcEv CODE
 0001:001d5610 0000006eH .text$_ZNK5Eigen8internal16binary_evaluatorINS_13CwiseBinaryOpINS0_17scalar_product_opIddEEKNS_14CwiseNullaryOpINS0_18scalar_constant_opIdEEKNS_6MatrixIdLin1ELi1ELi0ELin1ELi1EEEEEKNS2_INS0_20scalar_difference_opIddEESA_KNS2_IS4_SC_SA_EEEEEENS0_10IndexBasedESK_ddE6packetILi16EDv2_dEET0_x CODE
 0001:001d5680 0000000bH .text$_ZNK5Eigen8internal16binary_evaluatorINS_13CwiseBinaryOpINS0_17scalar_product_opIddEEKNS_14CwiseNullaryOpINS0_18scalar_constant_opIdEEKNS_6MatrixIdLin1ELi1ELi0ELin1ELi1EEEEEKNS2_INS0_20scalar_difference_opIddEESA_KNS2_IS4_SC_SA_EEEEEENS0_10IndexBasedESK_ddE4Data4funcEv CODE
 0001:001d5690 00000028H .text$_ZNK5Eigen8internal17scalar_product_opIddE8packetOpIDv2_dEET_RKS5_S7_ CODE
 0001:001d56c0 0000002fH .text$_ZNK5Eigen8internal9evaluatorINS_14CwiseNullaryOpINS0_18scalar_constant_opIdEEKNS_6MatrixIdLin1ELi1ELi0ELin1ELi1EEEEEE6packetILi16EDv2_dxEET0_T1_ CODE
 0001:001d56f0 0000006eH .text$_ZNK5Eigen8internal16binary_evaluatorINS_13CwiseBinaryOpINS0_20scalar_difference_opIddEEKNS_6MatrixIdLin1ELi1ELi0ELin1ELi1EEEKNS2_INS0_17scalar_product_opIddEEKNS_14CwiseNullaryOpINS0_18scalar_constant_opIdEES7_EES7_EEEENS0_10IndexBasedESI_ddE6packetILi16EDv2_dEET0_x CODE
 0001:001d5760 00000028H .text$_ZNK5Eigen8internal15nullary_wrapperIdNS0_18scalar_constant_opIdEELb1ELb0ELb0EE8packetOpIDv2_dxEET_RKS3_T0_SA_ CODE
 0001:001d5790 00000019H .text$_ZNK5Eigen8internal18scalar_constant_opIdE8packetOpIDv2_dEEKT_v CODE
 0001:001d57b0 00000033H .text$_ZN5Eigen8internal5pset1IDv2_dEET_RKNS0_15unpacket_traitsIS3_E4typeE CODE
 0001:001d57f0 0000000bH .text$_ZNK5Eigen8internal16binary_evaluatorINS_13CwiseBinaryOpINS0_20scalar_difference_opIddEEKNS_6MatrixIdLin1ELi1ELi0ELin1ELi1EEEKNS2_INS0_17scalar_product_opIddEEKNS_14CwiseNullaryOpINS0_18scalar_constant_opIdEES7_EES7_EEEENS0_10IndexBasedESI_ddE4Data4funcEv CODE
 0001:001d5800 00000028H .text$_ZNK5Eigen8internal20scalar_difference_opIddE8packetOpIDv2_dEEKT_RS6_S7_ CODE
 0001:001d5830 0000006eH .text$_ZNK5Eigen8internal16binary_evaluatorINS_13CwiseBinaryOpINS0_17scalar_product_opIddEEKNS_14CwiseNullaryOpINS0_18scalar_constant_opIdEEKNS_6MatrixIdLin1ELi1ELi0ELin1ELi1EEEEESA_EENS0_10IndexBasedESE_ddE6packetILi16EDv2_dEET0_x CODE
 0001:001d58a0 0000003bH .text$_ZN5Eigen8internal4psubIDv2_dEET_RKS3_S5_ CODE
 0001:001d58e0 0000000bH .text$_ZNK5Eigen8internal16binary_evaluatorINS_13CwiseBinaryOpINS0_17scalar_product_opIddEEKNS_14CwiseNullaryOpINS0_18scalar_constant_opIdEEKNS_6MatrixIdLin1ELi1ELi0ELin1ELi1EEEEESA_EENS0_10IndexBasedESE_ddE4Data4funcEv CODE
 0001:001d58f0 00000069H .text$_ZN5Eigen8internal31generic_dense_assignment_kernelINS0_9evaluatorINS_6MatrixIdLin1ELi1ELi0ELin1ELi1EEEEENS2_INS_13CwiseBinaryOpINS0_13scalar_sum_opIddEEKS4_KNS6_INS0_17scalar_product_opIddEEKNS_14CwiseNullaryOpINS0_18scalar_constant_opIdEES9_EEKNS6_INS0_20scalar_difference_opIddEES9_KNS6_ISB_SG_S9_EEEEEEEEEENS0_9assign_opIddEELi0EE11assignCoeffEx CODE
 0001:001d5960 0000006dH .text$_ZNK5Eigen8internal16binary_evaluatorINS_13CwiseBinaryOpINS0_13scalar_sum_opIddEEKNS_6MatrixIdLin1ELi1ELi0ELin1ELi1EEEKNS2_INS0_17scalar_product_opIddEEKNS_14CwiseNullaryOpINS0_18scalar_constant_opIdEES7_EEKNS2_INS0_20scalar_difference_opIddEES7_KNS2_IS9_SE_S7_EEEEEEEENS0_10IndexBasedESO_ddE5coeffEx CODE
 0001:001d59d0 0000006eH .text$_ZNK5Eigen8internal16binary_evaluatorINS_13CwiseBinaryOpINS0_17scalar_product_opIddEEKNS_14CwiseNullaryOpINS0_18scalar_constant_opIdEEKNS_6MatrixIdLin1ELi1ELi0ELin1ELi1EEEEEKNS2_INS0_20scalar_difference_opIddEESA_KNS2_IS4_SC_SA_EEEEEENS0_10IndexBasedESK_ddE5coeffEx CODE
 0001:001d5a40 00000028H .text$_ZNK5Eigen8internal17scalar_product_opIddEclERKdS4_ CODE
 0001:001d5a70 0000002fH .text$_ZNK5Eigen8internal9evaluatorINS_14CwiseNullaryOpINS0_18scalar_constant_opIdEEKNS_6MatrixIdLin1ELi1ELi0ELin1ELi1EEEEEE5coeffIxEEdT_ CODE
 0001:001d5aa0 0000006dH .text$_ZNK5Eigen8internal16binary_evaluatorINS_13CwiseBinaryOpINS0_20scalar_difference_opIddEEKNS_6MatrixIdLin1ELi1ELi0ELin1ELi1EEEKNS2_INS0_17scalar_product_opIddEEKNS_14CwiseNullaryOpINS0_18scalar_constant_opIdEES7_EES7_EEEENS0_10IndexBasedESI_ddE5coeffEx CODE
 0001:001d5b10 00000028H .text$_ZNK5Eigen8internal15nullary_wrapperIdNS0_18scalar_constant_opIdEELb1ELb0ELb0EEclIxEEdRKS3_T_S8_ CODE
 0001:001d5b40 00000028H .text$_ZNK5Eigen8internal20scalar_difference_opIddEclERKdS4_ CODE
 0001:001d5b70 00000066H .text$_ZNK5Eigen8internal16binary_evaluatorINS_13CwiseBinaryOpINS0_17scalar_product_opIddEEKNS_14CwiseNullaryOpINS0_18scalar_constant_opIdEEKNS_6MatrixIdLin1ELi1ELi0ELin1ELi1EEEEESA_EENS0_10IndexBasedESE_ddE5coeffEx CODE
 0001:001d5be0 00000019H .text$_ZN5Eigen8internal9evaluatorINS_13CwiseBinaryOpINS0_13scalar_sum_opIddEEKNS_6MatrixIdLin1ELi1ELi0ELin1ELi1EEEKNS2_INS0_17scalar_product_opIddEEKNS_14CwiseNullaryOpINS0_18scalar_constant_opIdEES7_EEKNS2_INS0_20scalar_difference_opIddEES7_KNS2_IS9_SE_S7_EEEEEEEEED2Ev CODE
 0001:001d5c00 00000028H .text$_ZN5Eigen8internal16binary_evaluatorINS_13CwiseBinaryOpINS0_13scalar_sum_opIddEEKNS_6MatrixIdLin1ELi1ELi0ELin1ELi1EEEKNS2_INS0_17scalar_product_opIddEEKNS_14CwiseNullaryOpINS0_18scalar_constant_opIdEES7_EEKNS2_INS0_20scalar_difference_opIddEES7_KNS2_IS9_SE_S7_EEEEEEEENS0_10IndexBasedESO_ddED2Ev CODE
 0001:001d5c30 00000019H .text$_ZN5Eigen8internal16binary_evaluatorINS_13CwiseBinaryOpINS0_13scalar_sum_opIddEEKNS_6MatrixIdLin1ELi1ELi0ELin1ELi1EEEKNS2_INS0_17scalar_product_opIddEEKNS_14CwiseNullaryOpINS0_18scalar_constant_opIdEES7_EEKNS2_INS0_20scalar_difference_opIddEES7_KNS2_IS9_SE_S7_EEEEEEEENS0_10IndexBasedESO_ddE4DataD1Ev CODE
 0001:001d5c50 00000030H .text$_ZN5Eigen8internal16binary_evaluatorINS_13CwiseBinaryOpINS0_13scalar_sum_opIddEEKNS_6MatrixIdLin1ELi1ELi0ELin1ELi1EEEKNS2_INS0_17scalar_product_opIddEEKNS_14CwiseNullaryOpINS0_18scalar_constant_opIdEES7_EEKNS2_INS0_20scalar_difference_opIddEES7_KNS2_IS9_SE_S7_EEEEEEEENS0_10IndexBasedESO_ddE4DataD2Ev CODE
 0001:001d5c80 00000019H .text$_ZN5Eigen8internal9evaluatorIKNS_13CwiseBinaryOpINS0_17scalar_product_opIddEEKNS_14CwiseNullaryOpINS0_18scalar_constant_opIdEEKNS_6MatrixIdLin1ELi1ELi0ELin1ELi1EEEEEKNS2_INS0_20scalar_difference_opIddEESA_KNS2_IS4_SC_SA_EEEEEEED1Ev CODE
 0001:001d5ca0 00000019H .text$_ZN5Eigen8internal9evaluatorIKNS_13CwiseBinaryOpINS0_17scalar_product_opIddEEKNS_14CwiseNullaryOpINS0_18scalar_constant_opIdEEKNS_6MatrixIdLin1ELi1ELi0ELin1ELi1EEEEEKNS2_INS0_20scalar_difference_opIddEESA_KNS2_IS4_SC_SA_EEEEEEED2Ev CODE
 0001:001d5cc0 00000019H .text$_ZN5Eigen8internal9evaluatorINS_13CwiseBinaryOpINS0_17scalar_product_opIddEEKNS_14CwiseNullaryOpINS0_18scalar_constant_opIdEEKNS_6MatrixIdLin1ELi1ELi0ELin1ELi1EEEEEKNS2_INS0_20scalar_difference_opIddEESA_KNS2_IS4_SC_SA_EEEEEEED2Ev CODE
 0001:001d5ce0 00000028H .text$_ZN5Eigen8internal16binary_evaluatorINS_13CwiseBinaryOpINS0_17scalar_product_opIddEEKNS_14CwiseNullaryOpINS0_18scalar_constant_opIdEEKNS_6MatrixIdLin1ELi1ELi0ELin1ELi1EEEEEKNS2_INS0_20scalar_difference_opIddEESA_KNS2_IS4_SC_SA_EEEEEENS0_10IndexBasedESK_ddED2Ev CODE
 0001:001d5d10 00000019H .text$_ZN5Eigen8internal16binary_evaluatorINS_13CwiseBinaryOpINS0_17scalar_product_opIddEEKNS_14CwiseNullaryOpINS0_18scalar_constant_opIdEEKNS_6MatrixIdLin1ELi1ELi0ELin1ELi1EEEEEKNS2_INS0_20scalar_difference_opIddEESA_KNS2_IS4_SC_SA_EEEEEENS0_10IndexBasedESK_ddE4DataD1Ev CODE
 0001:001d5d30 00000030H .text$_ZN5Eigen8internal16binary_evaluatorINS_13CwiseBinaryOpINS0_17scalar_product_opIddEEKNS_14CwiseNullaryOpINS0_18scalar_constant_opIdEEKNS_6MatrixIdLin1ELi1ELi0ELin1ELi1EEEEEKNS2_INS0_20scalar_difference_opIddEESA_KNS2_IS4_SC_SA_EEEEEENS0_10IndexBasedESK_ddE4DataD2Ev CODE
 0001:001d5d60 00000019H .text$_ZN5Eigen8internal9evaluatorIKNS_13CwiseBinaryOpINS0_20scalar_difference_opIddEEKNS_6MatrixIdLin1ELi1ELi0ELin1ELi1EEEKNS2_INS0_17scalar_product_opIddEEKNS_14CwiseNullaryOpINS0_18scalar_constant_opIdEES7_EES7_EEEEED1Ev CODE
 0001:001d5d80 00000019H .text$_ZN5Eigen8internal9evaluatorIKNS_13CwiseBinaryOpINS0_20scalar_difference_opIddEEKNS_6MatrixIdLin1ELi1ELi0ELin1ELi1EEEKNS2_INS0_17scalar_product_opIddEEKNS_14CwiseNullaryOpINS0_18scalar_constant_opIdEES7_EES7_EEEEED2Ev CODE
 0001:001d5da0 00000019H .text$_ZN5Eigen8internal9evaluatorINS_13CwiseBinaryOpINS0_20scalar_difference_opIddEEKNS_6MatrixIdLin1ELi1ELi0ELin1ELi1EEEKNS2_INS0_17scalar_product_opIddEEKNS_14CwiseNullaryOpINS0_18scalar_constant_opIdEES7_EES7_EEEEED2Ev CODE
 0001:001d5dc0 00000028H .text$_ZN5Eigen8internal16binary_evaluatorINS_13CwiseBinaryOpINS0_20scalar_difference_opIddEEKNS_6MatrixIdLin1ELi1ELi0ELin1ELi1EEEKNS2_INS0_17scalar_product_opIddEEKNS_14CwiseNullaryOpINS0_18scalar_constant_opIdEES7_EES7_EEEENS0_10IndexBasedESI_ddED2Ev CODE
 0001:001d5df0 00000019H .text$_ZN5Eigen8internal16binary_evaluatorINS_13CwiseBinaryOpINS0_20scalar_difference_opIddEEKNS_6MatrixIdLin1ELi1ELi0ELin1ELi1EEEKNS2_INS0_17scalar_product_opIddEEKNS_14CwiseNullaryOpINS0_18scalar_constant_opIdEES7_EES7_EEEENS0_10IndexBasedESI_ddE4DataD1Ev CODE
 0001:001d5e10 00000030H .text$_ZN5Eigen8internal16binary_evaluatorINS_13CwiseBinaryOpINS0_20scalar_difference_opIddEEKNS_6MatrixIdLin1ELi1ELi0ELin1ELi1EEEKNS2_INS0_17scalar_product_opIddEEKNS_14CwiseNullaryOpINS0_18scalar_constant_opIdEES7_EES7_EEEENS0_10IndexBasedESI_ddE4DataD2Ev CODE
 0001:001d5e40 00000019H .text$_ZN5Eigen8internal9evaluatorIKNS_13CwiseBinaryOpINS0_17scalar_product_opIddEEKNS_14CwiseNullaryOpINS0_18scalar_constant_opIdEEKNS_6MatrixIdLin1ELi1ELi0ELin1ELi1EEEEESA_EEED1Ev CODE
 0001:001d5e60 00000019H .text$_ZN5Eigen8internal9evaluatorIKNS_13CwiseBinaryOpINS0_17scalar_product_opIddEEKNS_14CwiseNullaryOpINS0_18scalar_constant_opIdEEKNS_6MatrixIdLin1ELi1ELi0ELin1ELi1EEEEESA_EEED2Ev CODE
 0001:001d5e80 00000019H .text$_ZN5Eigen8internal9evaluatorINS_13CwiseBinaryOpINS0_17scalar_product_opIddEEKNS_14CwiseNullaryOpINS0_18scalar_constant_opIdEEKNS_6MatrixIdLin1ELi1ELi0ELin1ELi1EEEEESA_EEED2Ev CODE
 0001:001d5ea0 00000028H .text$_ZN5Eigen8internal16binary_evaluatorINS_13CwiseBinaryOpINS0_17scalar_product_opIddEEKNS_14CwiseNullaryOpINS0_18scalar_constant_opIdEEKNS_6MatrixIdLin1ELi1ELi0ELin1ELi1EEEEESA_EENS0_10IndexBasedESE_ddED2Ev CODE
 0001:001d5ed0 00000019H .text$_ZN5Eigen8internal16binary_evaluatorINS_13CwiseBinaryOpINS0_17scalar_product_opIddEEKNS_14CwiseNullaryOpINS0_18scalar_constant_opIdEEKNS_6MatrixIdLin1ELi1ELi0ELin1ELi1EEEEESA_EENS0_10IndexBasedESE_ddE4DataD1Ev CODE
 0001:001d5ef0 00000030H .text$_ZN5Eigen8internal16binary_evaluatorINS_13CwiseBinaryOpINS0_17scalar_product_opIddEEKNS_14CwiseNullaryOpINS0_18scalar_constant_opIdEEKNS_6MatrixIdLin1ELi1ELi0ELin1ELi1EEEEESA_EENS0_10IndexBasedESE_ddE4DataD2Ev CODE
 0001:001d5f20 0000000bH .text$_ZNK5Eigen16SparseSolverBaseINS_13IncompleteLUTIdiEEE7derivedEv CODE
 0001:001d5f30 0000001dH .text$_ZNK5Eigen13IncompleteLUTIdiE4rowsEv CODE
 0001:001d5f50 0000002dH .text$_ZN5Eigen5SolveINS_13IncompleteLUTIdiEENS_6MatrixIdLin1ELi1ELi0ELin1ELi1EEEEC1ERKS2_RKS4_ CODE
 0001:001d5f80 0000003dH .text$_ZN5Eigen5SolveINS_13IncompleteLUTIdiEENS_6MatrixIdLin1ELi1ELi0ELin1ELi1EEEEC2ERKS2_RKS4_ CODE
 0001:001d5fc0 00000019H .text$_ZN5Eigen9SolveImplINS_13IncompleteLUTIdiEENS_6MatrixIdLin1ELi1ELi0ELin1ELi1EEENS_5DenseEEC2Ev CODE
 0001:001d5fe0 00000019H .text$_ZN5Eigen10MatrixBaseINS_5SolveINS_13IncompleteLUTIdiEENS_6MatrixIdLin1ELi1ELi0ELin1ELi1EEEEEEC2Ev CODE
 0001:001d6000 00000007H .text$_ZN5Eigen9DenseBaseINS_5SolveINS_13IncompleteLUTIdiEENS_6MatrixIdLin1ELi1ELi0ELin1ELi1EEEEEEC2Ev CODE
 0001:001d6010 00000049H .text$_ZN5Eigen15PlainObjectBaseINS_6MatrixIdLin1ELi1ELi0ELin1ELi1EEEE4_setINS_5SolveINS_13IncompleteLUTIdiEES2_EEEERS2_RKNS_9DenseBaseIT_EE CODE
 0001:001d6060 0000004bH .text$_ZN5Eigen8internal15call_assignmentINS_6MatrixIdLin1ELi1ELi0ELin1ELi1EEENS_5SolveINS_13IncompleteLUTIdiEES3_EEEEvRT_RKT0_ CODE
 0001:001d60b0 0000000bH .text$_ZNK5Eigen9EigenBaseINS_5SolveINS_13IncompleteLUTIdiEENS_6MatrixIdLin1ELi1ELi0ELin1ELi1EEEEEE7derivedEv CODE
 0001:001d60c0 00000032H .text$_ZN5Eigen8internal15call_assignmentINS_6MatrixIdLin1ELi1ELi0ELin1ELi1EEENS_5SolveINS_13IncompleteLUTIdiEES3_EENS0_9assign_opIddEEEEvRT_RKT0_RKT1_NS0_9enable_ifIXntsr25evaluator_assume_aliasingISC_EE5valueEPvE4typeE CODE
 0001:001d6100 00000037H .text$_ZN5Eigen8internal24call_assignment_no_aliasINS_6MatrixIdLin1ELi1ELi0ELin1ELi1EEENS_5SolveINS_13IncompleteLUTIdiEES3_EENS0_9assign_opIddEEEEvRT_RKT0_RKT1_ CODE
 0001:001d6140 000000a0H .text$_ZN5Eigen8internal10AssignmentINS_6MatrixIdLin1ELi1ELi0ELin1ELi1EEENS_5SolveINS_13IncompleteLUTIdiEES3_EENS0_9assign_opIddEENS0_11Dense2DenseEvE3runERS3_RKS7_RKS9_ CODE
 0001:001d61e0 0000001cH .text$_ZNK5Eigen5SolveINS_13IncompleteLUTIdiEENS_6MatrixIdLin1ELi1ELi0ELin1ELi1EEEE4rowsEv CODE
 0001:001d6200 0000001dH .text$_ZNK5Eigen5SolveINS_13IncompleteLUTIdiEENS_6MatrixIdLin1ELi1ELi0ELin1ELi1EEEE4colsEv CODE
 0001:001d6220 0000000eH .text$_ZNK5Eigen5SolveINS_13IncompleteLUTIdiEENS_6MatrixIdLin1ELi1ELi0ELin1ELi1EEEE3decEv CODE
 0001:001d6230 00000108H .text$_ZNK5Eigen13IncompleteLUTIdiE11_solve_implINS_6MatrixIdLin1ELi1ELi0ELin1ELi1EEES4_EEvRKT_RT0_ CODE
 0001:001d6340 0000000fH .text$_ZNK5Eigen5SolveINS_13IncompleteLUTIdiEENS_6MatrixIdLin1ELi1ELi0ELin1ELi1EEEE3rhsEv CODE
 0001:001d6350 0000001dH .text$_ZNK5Eigen13IncompleteLUTIdiE4colsEv CODE
 0001:001d6370 00000055H .text$_ZN5EigenmlINS_17PermutationMatrixILin1ELin1EiEENS_6MatrixIdLin1ELi1ELi0ELin1ELi1EEEEEKNS_7ProductIT_T0_Li2EEERKNS_15PermutationBaseIS6_EERKNS_10MatrixBaseIS7_EE CODE
 0001:001d63d0 00000023H .text$_ZN5Eigen6MatrixIdLin1ELi1ELi0ELin1ELi1EEaSINS_7ProductINS_17PermutationMatrixILin1ELin1EiEES1_Li2EEEEERS1_RKNS_9DenseBaseIT_EE CODE
 0001:001d6400 0000003cH .text$_ZNK5Eigen16SparseMatrixBaseINS_12SparseMatrixIdLi1EiEEE14triangularViewILi5EEEKNS_14TriangularViewIKS2_XT_EEEv CODE
 0001:001d6440 00000050H .text$_ZNK5Eigen14TriangularViewIKNS_12SparseMatrixIdLi1EiEELj5EE5solveINS_6MatrixIdLin1ELi1ELi0ELin1ELi1EEEEEKNS_5SolveIS4_T_EERKNS_10MatrixBaseIS9_EE CODE
 0001:001d6490 00000023H .text$_ZN5Eigen6MatrixIdLin1ELi1ELi0ELin1ELi1EEaSINS_5SolveINS_14TriangularViewIKNS_12SparseMatrixIdLi1EiEELj5EEES1_EEEERS1_RKNS_9DenseBaseIT_EE CODE
 0001:001d64c0 0000003cH .text$_ZNK5Eigen16SparseMatrixBaseINS_12SparseMatrixIdLi1EiEEE14triangularViewILi2EEEKNS_14TriangularViewIKS2_XT_EEEv CODE
 0001:001d6500 00000050H .text$_ZNK5Eigen14TriangularViewIKNS_12SparseMatrixIdLi1EiEELj2EE5solveINS_6MatrixIdLin1ELi1ELi0ELin1ELi1EEEEEKNS_5SolveIS4_T_EERKNS_10MatrixBaseIS9_EE CODE
 0001:001d6550 00000023H .text$_ZN5Eigen6MatrixIdLin1ELi1ELi0ELin1ELi1EEaSINS_5SolveINS_14TriangularViewIKNS_12SparseMatrixIdLi1EiEELj2EEES1_EEEERS1_RKNS_9DenseBaseIT_EE CODE
 0001:001d6580 0000002dH .text$_ZN5Eigen7ProductINS_17PermutationMatrixILin1ELin1EiEENS_6MatrixIdLin1ELi1ELi0ELin1ELi1EEELi2EEC1ERKS2_RKS4_ CODE
 0001:001d65b0 00000081H .text$_ZN5Eigen7ProductINS_17PermutationMatrixILin1ELin1EiEENS_6MatrixIdLin1ELi1ELi0ELin1ELi1EEELi2EEC2ERKS2_RKS4_ CODE
 0001:001d6640 00000019H .text$_ZN5Eigen11ProductImplINS_17PermutationMatrixILin1ELin1EiEENS_6MatrixIdLin1ELi1ELi0ELin1ELi1EEELi2ENS_5DenseEEC2Ev CODE
 0001:001d6660 00000021H .text$_ZNK5Eigen15PermutationBaseINS_17PermutationMatrixILin1ELin1EiEEE4colsEv CODE
 0001:001d6690 00000019H .text$_ZN5Eigen8internal18dense_product_baseINS_17PermutationMatrixILin1ELin1EiEENS_6MatrixIdLin1ELi1ELi0ELin1ELi1EEELi2ELi7EEC2Ev CODE
 0001:001d66b0 00000019H .text$_ZN5Eigen10MatrixBaseINS_7ProductINS_17PermutationMatrixILin1ELin1EiEENS_6MatrixIdLin1ELi1ELi0ELin1ELi1EEELi2EEEEC2Ev CODE
 0001:001d66d0 00000007H .text$_ZN5Eigen9DenseBaseINS_7ProductINS_17PermutationMatrixILin1ELin1EiEENS_6MatrixIdLin1ELi1ELi0ELin1ELi1EEELi2EEEEC2Ev CODE
 0001:001d66e0 00000049H .text$_ZN5Eigen15PlainObjectBaseINS_6MatrixIdLin1ELi1ELi0ELin1ELi1EEEE4_setINS_7ProductINS_17PermutationMatrixILin1ELin1EiEES2_Li2EEEEERS2_RKNS_9DenseBaseIT_EE CODE
 0001:001d6730 0000004bH .text$_ZN5Eigen8internal15call_assignmentINS_6MatrixIdLin1ELi1ELi0ELin1ELi1EEENS_7ProductINS_17PermutationMatrixILin1ELin1EiEES3_Li2EEEEEvRT_RKT0_ CODE
 0001:001d6780 0000000bH .text$_ZNK5Eigen9EigenBaseINS_7ProductINS_17PermutationMatrixILin1ELin1EiEENS_6MatrixIdLin1ELi1ELi0ELin1ELi1EEELi2EEEE7derivedEv CODE
 0001:001d6790 00000032H .text$_ZN5Eigen8internal15call_assignmentINS_6MatrixIdLin1ELi1ELi0ELin1ELi1EEENS_7ProductINS_17PermutationMatrixILin1ELin1EiEES3_Li2EEENS0_9assign_opIddEEEEvRT_RKT0_RKT1_NS0_9enable_ifIXntsr25evaluator_assume_aliasingISC_EE5valueEPvE4typeE CODE
 0001:001d67d0 00000037H .text$_ZN5Eigen8internal24call_assignment_no_aliasINS_6MatrixIdLin1ELi1ELi0ELin1ELi1EEENS_7ProductINS_17PermutationMatrixILin1ELin1EiEES3_Li2EEENS0_9assign_opIddEEEEvRT_RKT0_RKT1_ CODE
 0001:001d6810 000000aaH .text$_ZN5Eigen8internal10AssignmentINS_6MatrixIdLin1ELi1ELi0ELin1ELi1EEENS_7ProductINS_17PermutationMatrixILin1ELin1EiEES3_Li2EEENS0_9assign_opIddEENS0_11Dense2DenseEvE3runERS3_RKS7_RKS9_ CODE
 0001:001d68c0 00000033H .text$_ZNK5Eigen7ProductINS_17PermutationMatrixILin1ELin1EiEENS_6MatrixIdLin1ELi1ELi0ELin1ELi1EEELi2EE4rowsEv CODE
 0001:001d6900 0000001dH .text$_ZNK5Eigen7ProductINS_17PermutationMatrixILin1ELin1EiEENS_6MatrixIdLin1ELi1ELi0ELin1ELi1EEELi2EE4colsEv CODE
 0001:001d6920 0000002dH .text$_ZN5Eigen8internal20generic_product_implINS_17PermutationMatrixILin1ELin1EiEENS_6MatrixIdLin1ELi1ELi0ELin1ELi1EEENS_16PermutationShapeENS_10DenseShapeELi7EE6evalToIS5_EEvRT_RKS3_RKS5_ CODE
 0001:001d6950 0000000eH .text$_ZNK5Eigen7ProductINS_17PermutationMatrixILin1ELin1EiEENS_6MatrixIdLin1ELi1ELi0ELin1ELi1EEELi2EE3lhsEv CODE
 0001:001d6960 0000000fH .text$_ZNK5Eigen7ProductINS_17PermutationMatrixILin1ELin1EiEENS_6MatrixIdLin1ELi1ELi0ELin1ELi1EEELi2EE3rhsEv CODE
 0001:001d6970 00000021H .text$_ZNK5Eigen15PermutationBaseINS_17PermutationMatrixILin1ELin1EiEEE4rowsEv CODE
 0001:001d69a0 0000042dH .text$_ZN5Eigen8internal26permutation_matrix_productINS_6MatrixIdLin1ELi1ELi0ELin1ELi1EEELi1ELb0ENS_10DenseShapeEE3runIS3_NS_17PermutationMatrixILin1ELin1EiEEEEvRT_RKT0_RKS3_ CODE
 0001:001d6dd0 000000acH .text$_ZN5Eigen8internal13is_same_denseINS_6MatrixIdLin1ELi1ELi0ELin1ELi1EEES3_EEbRKT_RKT0_PNS0_9enable_ifIXsr19possibly_same_denseIS4_S7_EE5valueEvE4typeE CODE
 0001:001d6e80 00000023H .text$_ZN5Eigen6MatrixIbLin1ELi1ELi0ELin1ELi1EEC1IxEERKT_ CODE
 0001:001d6eb0 00000023H .text$_ZN5Eigen9DenseBaseINS_6MatrixIbLin1ELi1ELi0ELin1ELi1EEEE4fillERKb CODE
 0001:001d6ee0 00000077H .text$_ZN5Eigen15DenseCoeffsBaseINS_6MatrixIbLin1ELi1ELi0ELin1ELi1EEELi1EEixEx CODE
 0001:001d6f60 00000022H .text$_ZN5Eigen15PlainObjectBaseINS_6MatrixIbLin1ELi1ELi0ELin1ELi1EEEE8coeffRefEx CODE
 0001:001d6f90 0000002dH .text$_ZN5Eigen5BlockINS_6MatrixIdLin1ELi1ELi0ELin1ELi1EEELi1ELi1ELb0EEC1ERS2_x CODE
 0001:001d6fc0 000000c7H .text$_ZN5Eigen9DenseBaseINS_5BlockINS_6MatrixIdLin1ELi1ELi0ELin1ELi1EEELi1ELi1ELb0EEEE4swapIS4_EEvRKNS0_IT_EE CODE
 0001:001d7090 00000019H .text$_ZN5Eigen6MatrixIbLin1ELi1ELi0ELin1ELi1EED1Ev CODE
 0001:001d70b0 0000002dH .text$_ZN5Eigen5BlockIKNS_6MatrixIdLin1ELi1ELi0ELin1ELi1EEELi1ELi1ELb0EEC1ERS3_x CODE
 0001:001d70e0 00000039H .text$_ZN5Eigen5BlockINS_6MatrixIdLin1ELi1ELi0ELin1ELi1EEELi1ELi1ELb0EEaSINS0_IKS2_Li1ELi1ELb0EEEEERS3_RKNS_9DenseBaseIT_EE CODE
 0001:001d7120 00000073H .text$_ZN5Eigen6MatrixIbLin1ELi1ELi0ELin1ELi1EEC2IxEERKT_ CODE
 0001:001d71a0 00000028H .text$_ZN5Eigen15PlainObjectBaseINS_6MatrixIbLin1ELi1ELi0ELin1ELi1EEEEC2Ev CODE
 0001:001d71d0 00000001H .text$_ZN5Eigen15PlainObjectBaseINS_6MatrixIbLin1ELi1ELi0ELin1ELi1EEEE22_check_template_paramsEv CODE
 0001:001d71e0 00000041H .text$_ZN5Eigen15PlainObjectBaseINS_6MatrixIbLin1ELi1ELi0ELin1ELi1EEEE6_init1IxEEvxPNS_8internal9enable_ifIXaaooneLNS_9DenseBaseIS2_EUt_En1ELi1Entsr8internal14is_convertibleIT_bEE5valueoontLNS5_7is_sameINS_9MatrixXprENS_8ArrayXprEEUt_E0EeqLS9_n1EL_ZNS_L7DynamicEEESA_E4typeE CODE
 0001:001d7230 00000019H .text$_ZN5Eigen15PlainObjectBaseINS_6MatrixIbLin1ELi1ELi0ELin1ELi1EEEED2Ev CODE
 0001:001d7250 00000019H .text$_ZN5Eigen10MatrixBaseINS_6MatrixIbLin1ELi1ELi0ELin1ELi1EEEEC2Ev CODE
 0001:001d7270 00000019H .text$_ZN5Eigen12DenseStorageIbLin1ELin1ELi1ELi0EEC1Ev CODE
 0001:001d7290 00000007H .text$_ZN5Eigen9DenseBaseINS_6MatrixIbLin1ELi1ELi0ELin1ELi1EEEEC2Ev CODE
 0001:001d72a0 0000001aH .text$_ZN5Eigen12DenseStorageIbLin1ELin1ELi1ELi0EEC2Ev CODE
 0001:001d72c0 0000005dH .text$_ZN5Eigen15PlainObjectBaseINS_6MatrixIbLin1ELi1ELi0ELin1ELi1EEEE6resizeEx CODE
 0001:001d7320 00000097H .text$_ZN5Eigen12DenseStorageIbLin1ELin1ELi1ELi0EE6resizeExxx CODE
 0001:001d73c0 0000001eH .text$_ZN5Eigen8internal31conditional_aligned_delete_autoIbLb1EEEvPT_y CODE
 0001:001d73e0 00000054H .text$_ZN5Eigen8internal28conditional_aligned_new_autoIbLb1EEEPT_y CODE
 0001:001d7440 00000019H .text$_ZN5Eigen12DenseStorageIbLin1ELin1ELi1ELi0EED1Ev CODE
 0001:001d7460 0000002dH .text$_ZN5Eigen12DenseStorageIbLin1ELin1ELi1ELi0EED2Ev CODE
 0001:001d7490 00000060H .text$_ZN5Eigen9DenseBaseINS_6MatrixIbLin1ELi1ELi0ELin1ELi1EEEE11setConstantERKb CODE
 0001:001d74f0 0000006bH .text$_ZN5Eigen9DenseBaseINS_6MatrixIbLin1ELi1ELi0ELin1ELi1EEEE8ConstantExxRKb CODE
 0001:001d7560 00000036H .text$_ZNK5Eigen9EigenBaseINS_6MatrixIbLin1ELi1ELi0ELin1ELi1EEEE4rowsEv CODE
 0001:001d75a0 00000021H .text$_ZNK5Eigen9EigenBaseINS_6MatrixIbLin1ELi1ELi0ELin1ELi1EEEE4colsEv CODE
 0001:001d75d0 0000000bH .text$_ZN5Eigen9EigenBaseINS_6MatrixIbLin1ELi1ELi0ELin1ELi1EEEE7derivedEv CODE
 0001:001d75e0 00000023H .text$_ZN5Eigen6MatrixIbLin1ELi1ELi0ELin1ELi1EEaSINS_14CwiseNullaryOpINS_8internal18scalar_constant_opIbEES1_EEEERS1_RKNS_9DenseBaseIT_EE CODE
 0001:001d7610 0000003eH .text$_ZN5Eigen9DenseBaseINS_6MatrixIbLin1ELi1ELi0ELin1ELi1EEEE11NullaryExprINS_8internal18scalar_constant_opIbEEEEKNS_14CwiseNullaryOpIT_S2_EExxRKS9_ CODE
 0001:001d7650 00000023H .text$_ZN5Eigen8internal18scalar_constant_opIbEC1ERKb CODE
 0001:001d7680 00000037H .text$_ZN5Eigen14CwiseNullaryOpINS_8internal18scalar_constant_opIbEENS_6MatrixIbLin1ELi1ELi0ELin1ELi1EEEEC1ExxRKS3_ CODE
 0001:001d76c0 000000a3H .text$_ZN5Eigen14CwiseNullaryOpINS_8internal18scalar_constant_opIbEENS_6MatrixIbLin1ELi1ELi0ELin1ELi1EEEEC2ExxRKS3_ CODE
 0001:001d7770 00000019H .text$_ZN5Eigen10MatrixBaseINS_14CwiseNullaryOpINS_8internal18scalar_constant_opIbEENS_6MatrixIbLin1ELi1ELi0ELin1ELi1EEEEEEC2Ev CODE
 0001:001d7790 00000023H .text$_ZN5Eigen8internal18scalar_constant_opIbEC1ERKS2_ CODE
 0001:001d77c0 00000007H .text$_ZN5Eigen9DenseBaseINS_14CwiseNullaryOpINS_8internal18scalar_constant_opIbEENS_6MatrixIbLin1ELi1ELi0ELin1ELi1EEEEEEC2Ev CODE
 0001:001d77d0 00000022H .text$_ZN5Eigen8internal18scalar_constant_opIbEC2ERKS2_ CODE
 0001:001d7800 00000022H .text$_ZN5Eigen8internal18scalar_constant_opIbEC2ERKb CODE
 0001:001d7830 0000000bH .text$_ZNK5Eigen9EigenBaseINS_6MatrixIbLin1ELi1ELi0ELin1ELi1EEEE7derivedEv CODE
 0001:001d7840 00000019H .text$_ZNK5Eigen15PlainObjectBaseINS_6MatrixIbLin1ELi1ELi0ELin1ELi1EEEE4rowsEv CODE
 0001:001d7860 0000000fH .text$_ZNK5Eigen12DenseStorageIbLin1ELin1ELi1ELi0EE4rowsEv CODE
 0001:001d7870 0000002bH .text$_ZNK5Eigen15PlainObjectBaseINS_6MatrixIbLin1ELi1ELi0ELin1ELi1EEEE4colsEv CODE
 0001:001d78a0 00000006H .text$_ZN5Eigen12DenseStorageIbLin1ELin1ELi1ELi0EE4colsEv CODE
 0001:001d78b0 00000049H .text$_ZN5Eigen15PlainObjectBaseINS_6MatrixIbLin1ELi1ELi0ELin1ELi1EEEE4_setINS_14CwiseNullaryOpINS_8internal18scalar_constant_opIbEES2_EEEERS2_RKNS_9DenseBaseIT_EE CODE
 0001:001d7900 0000004bH .text$_ZN5Eigen8internal15call_assignmentINS_6MatrixIbLin1ELi1ELi0ELin1ELi1EEENS_14CwiseNullaryOpINS0_18scalar_constant_opIbEES3_EEEEvRT_RKT0_ CODE
 0001:001d7950 0000000bH .text$_ZNK5Eigen9EigenBaseINS_14CwiseNullaryOpINS_8internal18scalar_constant_opIbEENS_6MatrixIbLin1ELi1ELi0ELin1ELi1EEEEEE7derivedEv CODE
 0001:001d7960 00000032H .text$_ZN5Eigen8internal15call_assignmentINS_6MatrixIbLin1ELi1ELi0ELin1ELi1EEENS_14CwiseNullaryOpINS0_18scalar_constant_opIbEES3_EENS0_9assign_opIbbEEEEvRT_RKT0_RKT1_NS0_9enable_ifIXntsr25evaluator_assume_aliasingISC_EE5valueEPvE4typeE CODE
 0001:001d79a0 00000019H .text$_ZN5Eigen8internal9assign_opIbbEC1Ev CODE
 0001:001d79c0 00000037H .text$_ZN5Eigen8internal24call_assignment_no_aliasINS_6MatrixIbLin1ELi1ELi0ELin1ELi1EEENS_14CwiseNullaryOpINS0_18scalar_constant_opIbEES3_EENS0_9assign_opIbbEEEEvRT_RKT0_RKT1_ CODE
 0001:001d7a00 0000003cH .text$_ZN5Eigen8internal10AssignmentINS_6MatrixIbLin1ELi1ELi0ELin1ELi1EEENS_14CwiseNullaryOpINS0_18scalar_constant_opIbEES3_EENS0_9assign_opIbbEENS0_11Dense2DenseEvE3runERS3_RKS7_RKS9_ CODE
 0001:001d7a40 00000012H .text$_ZN5Eigen8internal18check_for_aliasingINS_6MatrixIbLin1ELi1ELi0ELin1ELi1EEENS_14CwiseNullaryOpINS0_18scalar_constant_opIbEES3_EEEEvRKT_RKT0_ CODE
 0001:001d7a60 00000077H .text$_ZN5Eigen8internal26call_dense_assignment_loopINS_6MatrixIbLin1ELi1ELi0ELin1ELi1EEEEEvRT_RKNS_14CwiseNullaryOpINS0_18scalar_constant_opINS4_6ScalarEEES4_EERKNS0_9assign_opIS8_S8_EE CODE
 0001:001d7ae0 000000b8H .text$_ZN5Eigen8internal17resize_if_allowedINS_6MatrixIbLin1ELi1ELi0ELin1ELi1EEENS_14CwiseNullaryOpINS0_18scalar_constant_opIbEES3_EEbbEEvRT_RKT0_RKNS0_9assign_opIT1_T2_EE CODE
 0001:001d7ba0 0000003fH .text$_ZNSt3__16fill_nB6v15007IPbxbEET_S2_T0_RKT1_ CODE
 0001:001d7be0 00000019H .text$_ZN5Eigen15PlainObjectBaseINS_6MatrixIbLin1ELi1ELi0ELin1ELi1EEEE4dataEv CODE
 0001:001d7c00 00000038H .text$_ZNK5Eigen9EigenBaseINS_6MatrixIbLin1ELi1ELi0ELin1ELi1EEEE4sizeEv CODE
 0001:001d7c40 0000000fH .text$_ZNK5Eigen14CwiseNullaryOpINS_8internal18scalar_constant_opIbEENS_6MatrixIbLin1ELi1ELi0ELin1ELi1EEEE7functorEv CODE
 0001:001d7c50 00000012H .text$_ZNK5Eigen8internal18scalar_constant_opIbEclEv CODE
 0001:001d7c70 00000019H .text$_ZNK5Eigen14CwiseNullaryOpINS_8internal18scalar_constant_opIbEENS_6MatrixIbLin1ELi1ELi0ELin1ELi1EEEE4rowsEv CODE
 0001:001d7c90 00000014H .text$_ZNK5Eigen14CwiseNullaryOpINS_8internal18scalar_constant_opIbEENS_6MatrixIbLin1ELi1ELi0ELin1ELi1EEEE4colsEv CODE
 0001:001d7cb0 00000107H .text$_ZN5Eigen15PlainObjectBaseINS_6MatrixIbLin1ELi1ELi0ELin1ELi1EEEE6resizeExx CODE
 0001:001d7dc0 00000059H .text$_ZNSt3__18__fill_nB6v15007IPbxbEET_S2_T0_RKT1_ CODE
 0001:001d7e20 0000000eH .text$_ZN5Eigen12DenseStorageIbLin1ELin1ELi1ELi0EE4dataEv CODE
 0001:001d7e30 00000007H .text$_ZN5Eigen8internal9assign_opIbbEC2Ev CODE
 0001:001d7e40 0000007aH .text$_ZN5Eigen15DenseCoeffsBaseINS_6MatrixIbLin1ELi1ELi0ELin1ELi1EEELi1EE8coeffRefEx CODE
 0001:001d7ec0 00000023H .text$_ZN5Eigen8internal9evaluatorINS_6MatrixIbLin1ELi1ELi0ELin1ELi1EEEEC1ERKS3_ CODE
 0001:001d7ef0 0000001eH .text$_ZN5Eigen8internal9evaluatorINS_15PlainObjectBaseINS_6MatrixIbLin1ELi1ELi0ELin1ELi1EEEEEE8coeffRefEx CODE
 0001:001d7f10 00000019H .text$_ZN5Eigen8internal9evaluatorINS_6MatrixIbLin1ELi1ELi0ELin1ELi1EEEED1Ev CODE
 0001:001d7f30 00000023H .text$_ZN5Eigen8internal9evaluatorINS_6MatrixIbLin1ELi1ELi0ELin1ELi1EEEEC2ERKS3_ CODE
 0001:001d7f60 00000082H .text$_ZN5Eigen8internal9evaluatorINS_15PlainObjectBaseINS_6MatrixIbLin1ELi1ELi0ELin1ELi1EEEEEEC2ERKS5_ CODE
 0001:001d7ff0 00000007H .text$_ZN5Eigen8internal14evaluator_baseINS_6MatrixIbLin1ELi1ELi0ELin1ELi1EEEEC2Ev CODE
 0001:001d8000 00000019H .text$_ZNK5Eigen15PlainObjectBaseINS_6MatrixIbLin1ELi1ELi0ELin1ELi1EEEE4dataEv CODE
 0001:001d8020 0000002dH .text$_ZN5Eigen8internal30plainobjectbase_evaluator_dataIbLi0EEC1EPKbx CODE
 0001:001d8050 00000007H .text$_ZN5Eigen8internal14evaluator_baseINS_6MatrixIbLin1ELi1ELi0ELin1ELi1EEEED2Ev CODE
 0001:001d8060 0000000eH .text$_ZNK5Eigen12DenseStorageIbLin1ELin1ELi1ELi0EE4dataEv CODE
 0001:001d8070 00000030H .text$_ZN5Eigen8internal30plainobjectbase_evaluator_dataIbLi0EEC2EPKbx CODE
 0001:001d80a0 00000019H .text$_ZN5Eigen8internal9evaluatorINS_6MatrixIbLin1ELi1ELi0ELin1ELi1EEEED2Ev CODE
 0001:001d80c0 00000019H .text$_ZN5Eigen8internal9evaluatorINS_15PlainObjectBaseINS_6MatrixIbLin1ELi1ELi0ELin1ELi1EEEEEED2Ev CODE
 0001:001d80e0 00000077H .text$_ZN5Eigen5BlockINS_6MatrixIdLin1ELi1ELi0ELin1ELi1EEELi1ELi1ELb0EEC2ERS2_x CODE
 0001:001d8160 0000002dH .text$_ZN5Eigen9BlockImplINS_6MatrixIdLin1ELi1ELi0ELin1ELi1EEELi1ELi1ELb0ENS_5DenseEEC2ERS2_x CODE
 0001:001d8190 000000a9H .text$_ZN5Eigen8internal15BlockImpl_denseINS_6MatrixIdLin1ELi1ELi0ELin1ELi1EEELi1ELi1ELb0ELb1EEC2ERS3_x CODE
 0001:001d8240 00000037H .text$_ZN5Eigen7MapBaseINS_5BlockINS_6MatrixIdLin1ELi1ELi0ELin1ELi1EEELi1ELi1ELb0EEELi1EEC2EPdxx CODE
 0001:001d8280 0000002dH .text$_ZN5Eigen8internal15BlockImpl_denseINS_6MatrixIdLin1ELi1ELi0ELin1ELi1EEELi1ELi1ELb0ELb1EE4initEv CODE
 0001:001d82b0 000000c6H .text$_ZN5Eigen7MapBaseINS_5BlockINS_6MatrixIdLin1ELi1ELi0ELin1ELi1EEELi1ELi1ELb0EEELi0EEC2EPdxx CODE
 0001:001d8380 00000019H .text$_ZN5Eigen10MatrixBaseINS_5BlockINS_6MatrixIdLin1ELi1ELi0ELin1ELi1EEELi1ELi1ELb0EEEEC2Ev CODE
 0001:001d83a0 00000012H .text$_ZNK5Eigen7MapBaseINS_5BlockINS_6MatrixIdLin1ELi1ELi0ELin1ELi1EEELi1ELi1ELb0EEELi0EE11checkSanityIS4_EEvNS_8internal9enable_ifIXeqsr8internal6traitsIT_EE9AlignmentLi0EEPvE4typeE CODE
 0001:001d83c0 00000007H .text$_ZN5Eigen9DenseBaseINS_5BlockINS_6MatrixIdLin1ELi1ELi0ELin1ELi1EEELi1ELi1ELb0EEEEC2Ev CODE
 0001:001d83d0 00000036H .text$_ZNK5Eigen9EigenBaseINS_5BlockINS_6MatrixIdLin1ELi1ELi0ELin1ELi1EEELi1ELi1ELb0EEEE4rowsEv CODE
 0001:001d8410 00000021H .text$_ZNK5Eigen9EigenBaseINS_5BlockINS_6MatrixIdLin1ELi1ELi0ELin1ELi1EEELi1ELi1ELb0EEEE4colsEv CODE
 0001:001d8440 00000032H .text$_ZN5Eigen8internal15call_assignmentINS_5BlockINS_6MatrixIdLin1ELi1ELi0ELin1ELi1EEELi1ELi1ELb0EEES5_NS0_14swap_assign_opIdEEEEvRT_RKT0_RKT1_NS0_9enable_ifIXntsr25evaluator_assume_aliasingISA_EE5valueEPvE4typeE CODE
 0001:001d8480 0000000bH .text$_ZN5Eigen9EigenBaseINS_5BlockINS_6MatrixIdLin1ELi1ELi0ELin1ELi1EEELi1ELi1ELb0EEEE7derivedEv CODE
 0001:001d8490 0000000bH .text$_ZNK5Eigen9EigenBaseINS_5BlockINS_6MatrixIdLin1ELi1ELi0ELin1ELi1EEELi1ELi1ELb0EEEE18const_cast_derivedEv CODE
 0001:001d84a0 00000019H .text$_ZN5Eigen8internal14swap_assign_opIdEC1Ev CODE
 0001:001d84c0 0000000bH .text$_ZNK5Eigen9EigenBaseINS_5BlockINS_6MatrixIdLin1ELi1ELi0ELin1ELi1EEELi1ELi1ELb0EEEE7derivedEv CODE
 0001:001d84d0 00000014H .text$_ZNK5Eigen7MapBaseINS_5BlockINS_6MatrixIdLin1ELi1ELi0ELin1ELi1EEELi1ELi1ELb0EEELi0EE4rowsEv CODE
 0001:001d84f0 00000014H .text$_ZNK5Eigen7MapBaseINS_5BlockINS_6MatrixIdLin1ELi1ELi0ELin1ELi1EEELi1ELi1ELb0EEELi0EE4colsEv CODE
 0001:001d8510 00000037H .text$_ZN5Eigen8internal24call_assignment_no_aliasINS_5BlockINS_6MatrixIdLin1ELi1ELi0ELin1ELi1EEELi1ELi1ELb0EEES5_NS0_14swap_assign_opIdEEEEvRT_RKT0_RKT1_ CODE
 0001:001d8550 0000003cH .text$_ZN5Eigen8internal10AssignmentINS_5BlockINS_6MatrixIdLin1ELi1ELi0ELin1ELi1EEELi1ELi1ELb0EEES5_NS0_14swap_assign_opIdEENS0_11Dense2DenseEvE3runERS5_RKS5_RKS7_ CODE
 0001:001d8590 00000012H .text$_ZN5Eigen8internal18check_for_aliasingINS_5BlockINS_6MatrixIdLin1ELi1ELi0ELin1ELi1EEELi1ELi1ELb0EEES5_EEvRKT_RKT0_ CODE
 0001:001d85b0 00000139H .text$_ZN5Eigen8internal26call_dense_assignment_loopINS_5BlockINS_6MatrixIdLin1ELi1ELi0ELin1ELi1EEELi1ELi1ELb0EEES5_NS0_14swap_assign_opIdEEEEvRT_RKT0_RKT1_ CODE
 0001:001d86f0 00000023H .text$_ZN5Eigen8internal9evaluatorINS_5BlockINS_6MatrixIdLin1ELi1ELi0ELin1ELi1EEELi1ELi1ELb0EEEEC1ERKS5_ CODE
 0001:001d8720 00000086H .text$_ZN5Eigen8internal17resize_if_allowedINS_5BlockINS_6MatrixIdLin1ELi1ELi0ELin1ELi1EEELi1ELi1ELb0EEES5_NS0_14swap_assign_opIdEEEEvRT_RKT0_RKT1_ CODE
 0001:001d87b0 00000046H .text$_ZN5Eigen8internal31generic_dense_assignment_kernelINS0_9evaluatorINS_5BlockINS_6MatrixIdLin1ELi1ELi0ELin1ELi1EEELi1ELi1ELb0EEEEES7_NS0_14swap_assign_opIdEELi0EEC1ERS7_RKS7_RKS9_RS6_ CODE
 0001:001d8800 00000023H .text$_ZN5Eigen8internal21dense_assignment_loopINS0_31generic_dense_assignment_kernelINS0_9evaluatorINS_5BlockINS_6MatrixIdLin1ELi1ELi0ELin1ELi1EEELi1ELi1ELb0EEEEES8_NS0_14swap_assign_opIdEELi0EEELi3ELi2EE3runERSB_ CODE
 0001:001d8830 00000019H .text$_ZN5Eigen8internal9evaluatorINS_5BlockINS_6MatrixIdLin1ELi1ELi0ELin1ELi1EEELi1ELi1ELb0EEEED1Ev CODE
 0001:001d8850 00000023H .text$_ZN5Eigen8internal9evaluatorINS_5BlockINS_6MatrixIdLin1ELi1ELi0ELin1ELi1EEELi1ELi1ELb0EEEEC2ERKS5_ CODE
 0001:001d8880 0000009cH .text$_ZN5Eigen8internal15block_evaluatorINS_6MatrixIdLin1ELi1ELi0ELin1ELi1EEELi1ELi1ELb0ELb1EEC2ERKNS_5BlockIS3_Li1ELi1ELb0EEE CODE
 0001:001d8920 000000c6H .text$_ZN5Eigen8internal17mapbase_evaluatorINS_5BlockINS_6MatrixIdLin1ELi1ELi0ELin1ELi1EEELi1ELi1ELb0EEENS3_IdLi1ELi1ELi0ELi1ELi1EEEEC2ERKS5_ CODE
 0001:001d89f0 0000000eH .text$_ZNK5Eigen7MapBaseINS_5BlockINS_6MatrixIdLin1ELi1ELi0ELin1ELi1EEELi1ELi1ELb0EEELi1EE4dataEv CODE
 0001:001d8a00 00000019H .text$_ZN5Eigen8internal17mapbase_evaluatorINS_5BlockINS_6MatrixIdLin1ELi1ELi0ELin1ELi1EEELi1ELi1ELb0EEENS3_IdLi1ELi1ELi0ELi1ELi1EEEED2Ev CODE
 0001:001d8a20 00000007H .text$_ZN5Eigen8internal14evaluator_baseINS_5BlockINS_6MatrixIdLin1ELi1ELi0ELin1ELi1EEELi1ELi1ELb0EEEEC2Ev CODE
 0001:001d8a30 0000001dH .text$_ZNK5Eigen8internal15BlockImpl_denseINS_6MatrixIdLin1ELi1ELi0ELin1ELi1EEELi1ELi1ELb0ELb1EE11innerStrideEv CODE
 0001:001d8a50 0000001dH .text$_ZNK5Eigen8internal15BlockImpl_denseINS_6MatrixIdLin1ELi1ELi0ELin1ELi1EEELi1ELi1ELb0ELb1EE11outerStrideEv CODE
 0001:001d8a70 00000007H .text$_ZN5Eigen8internal14evaluator_baseINS_5BlockINS_6MatrixIdLin1ELi1ELi0ELin1ELi1EEELi1ELi1ELb0EEEED2Ev CODE
 0001:001d8a80 00000046H .text$_ZN5Eigen8internal31generic_dense_assignment_kernelINS0_9evaluatorINS_5BlockINS_6MatrixIdLin1ELi1ELi0ELin1ELi1EEELi1ELi1ELb0EEEEES7_NS0_14swap_assign_opIdEELi0EEC2ERS7_RKS7_RKS9_RS6_ CODE
 0001:001d8ad0 00000048H .text$_ZN5Eigen8internal31generic_dense_assignment_kernelINS0_9evaluatorINS_5BlockINS_6MatrixIdLin1ELi1ELi0ELin1ELi1EEELi1ELi1ELb0EEEEES7_NS0_14swap_assign_opIdEELi1EEC2ERS7_RKS7_RKS9_RS6_ CODE
 0001:001d8b20 00000007H .text$_ZN5Eigen8internal47copy_using_evaluator_innervec_CompleteUnrollingINS0_31generic_dense_assignment_kernelINS0_9evaluatorINS_5BlockINS_6MatrixIdLin1ELi1ELi0ELin1ELi1EEELi1ELi1ELb0EEEEES8_NS0_14swap_assign_opIdEELi0EEELi0ELi0EE3runERSB_ CODE
 0001:001d8b30 0000002bH .text$_ZN5Eigen8internal55copy_using_evaluator_DefaultTraversal_CompleteUnrollingINS0_31generic_dense_assignment_kernelINS0_9evaluatorINS_5BlockINS_6MatrixIdLin1ELi1ELi0ELin1ELi1EEELi1ELi1ELb0EEEEES8_NS0_14swap_assign_opIdEELi0EEELi0ELi1EE3runERSB_ CODE
 0001:001d8b60 0000005fH .text$_ZN5Eigen8internal31generic_dense_assignment_kernelINS0_9evaluatorINS_5BlockINS_6MatrixIdLin1ELi1ELi0ELin1ELi1EEELi1ELi1ELb0EEEEES7_NS0_14swap_assign_opIdEELi1EE23assignCoeffByOuterInnerExx CODE
 0001:001d8bc0 00000007H .text$_ZN5Eigen8internal55copy_using_evaluator_DefaultTraversal_CompleteUnrollingINS0_31generic_dense_assignment_kernelINS0_9evaluatorINS_5BlockINS_6MatrixIdLin1ELi1ELi0ELin1ELi1EEELi1ELi1ELb0EEEEES8_NS0_14swap_assign_opIdEELi0EEELi1ELi1EE3runERSB_ CODE
 0001:001d8bd0 00000014H .text$_ZN5Eigen8internal31generic_dense_assignment_kernelINS0_9evaluatorINS_5BlockINS_6MatrixIdLin1ELi1ELi0ELin1ELi1EEELi1ELi1ELb0EEEEES7_NS0_14swap_assign_opIdEELi1EE20rowIndexByOuterInnerExx CODE
 0001:001d8bf0 00000014H .text$_ZN5Eigen8internal31generic_dense_assignment_kernelINS0_9evaluatorINS_5BlockINS_6MatrixIdLin1ELi1ELi0ELin1ELi1EEELi1ELi1ELb0EEEEES7_NS0_14swap_assign_opIdEELi1EE20colIndexByOuterInnerExx CODE
 0001:001d8c10 00000070H .text$_ZN5Eigen8internal31generic_dense_assignment_kernelINS0_9evaluatorINS_5BlockINS_6MatrixIdLin1ELi1ELi0ELin1ELi1EEELi1ELi1ELb0EEEEES7_NS0_14swap_assign_opIdEELi1EE11assignCoeffExx CODE
 0001:001d8c80 00000028H .text$_ZNK5Eigen8internal14swap_assign_opIdE11assignCoeffERdRKd CODE
 0001:001d8cb0 0000007eH .text$_ZN5Eigen8internal17mapbase_evaluatorINS_5BlockINS_6MatrixIdLin1ELi1ELi0ELin1ELi1EEELi1ELi1ELb0EEENS3_IdLi1ELi1ELi0ELi1ELi1EEEE8coeffRefExx CODE
 0001:001d8d30 0000007eH .text$_ZNK5Eigen8internal17mapbase_evaluatorINS_5BlockINS_6MatrixIdLin1ELi1ELi0ELin1ELi1EEELi1ELi1ELb0EEENS3_IdLi1ELi1ELi0ELi1ELi1EEEE5coeffExx CODE
 0001:001d8db0 0000001dH .text$_ZNK5Eigen8internal17mapbase_evaluatorINS_5BlockINS_6MatrixIdLin1ELi1ELi0ELin1ELi1EEELi1ELi1ELb0EEENS3_IdLi1ELi1ELi0ELi1ELi1EEEE9colStrideEv CODE
 0001:001d8dd0 00000014H .text$_ZNK5Eigen8internal17mapbase_evaluatorINS_5BlockINS_6MatrixIdLin1ELi1ELi0ELin1ELi1EEELi1ELi1ELb0EEENS3_IdLi1ELi1ELi0ELi1ELi1EEEE9rowStrideEv CODE
 0001:001d8df0 00000019H .text$_ZN5Eigen8internal9evaluatorINS_5BlockINS_6MatrixIdLin1ELi1ELi0ELin1ELi1EEELi1ELi1ELb0EEEED2Ev CODE
 0001:001d8e10 00000019H .text$_ZN5Eigen8internal15block_evaluatorINS_6MatrixIdLin1ELi1ELi0ELin1ELi1EEELi1ELi1ELb0ELb1EED2Ev CODE
 0001:001d8e30 00000007H .text$_ZN5Eigen8internal14swap_assign_opIdEC2Ev CODE
 0001:001d8e40 00000019H .text$_ZN5Eigen6MatrixIbLin1ELi1ELi0ELin1ELi1EED2Ev CODE
 0001:001d8e60 00000077H .text$_ZN5Eigen5BlockIKNS_6MatrixIdLin1ELi1ELi0ELin1ELi1EEELi1ELi1ELb0EEC2ERS3_x CODE
 0001:001d8ee0 0000002dH .text$_ZN5Eigen9BlockImplIKNS_6MatrixIdLin1ELi1ELi0ELin1ELi1EEELi1ELi1ELb0ENS_5DenseEEC2ERS3_x CODE
 0001:001d8f10 000000a9H .text$_ZN5Eigen8internal15BlockImpl_denseIKNS_6MatrixIdLin1ELi1ELi0ELin1ELi1EEELi1ELi1ELb0ELb1EEC2ERS4_x CODE
 0001:001d8fc0 000000c6H .text$_ZN5Eigen7MapBaseINS_5BlockIKNS_6MatrixIdLin1ELi1ELi0ELin1ELi1EEELi1ELi1ELb0EEELi0EEC2EPKdxx CODE
 0001:001d9090 0000002dH .text$_ZN5Eigen8internal15BlockImpl_denseIKNS_6MatrixIdLin1ELi1ELi0ELin1ELi1EEELi1ELi1ELb0ELb1EE4initEv CODE
 0001:001d90c0 00000019H .text$_ZN5Eigen10MatrixBaseINS_5BlockIKNS_6MatrixIdLin1ELi1ELi0ELin1ELi1EEELi1ELi1ELb0EEEEC2Ev CODE
 0001:001d90e0 00000012H .text$_ZNK5Eigen7MapBaseINS_5BlockIKNS_6MatrixIdLin1ELi1ELi0ELin1ELi1EEELi1ELi1ELb0EEELi0EE11checkSanityIS5_EEvNS_8internal9enable_ifIXeqsr8internal6traitsIT_EE9AlignmentLi0EEPvE4typeE CODE
 0001:001d9100 00000007H .text$_ZN5Eigen9DenseBaseINS_5BlockIKNS_6MatrixIdLin1ELi1ELi0ELin1ELi1EEELi1ELi1ELb0EEEEC2Ev CODE
 0001:001d9110 00000039H .text$_ZN5Eigen9BlockImplINS_6MatrixIdLin1ELi1ELi0ELin1ELi1EEELi1ELi1ELb0ENS_5DenseEEaSINS_5BlockIKS2_Li1ELi1ELb0EEEEERS4_RKNS_9DenseBaseIT_EE CODE
 0001:001d9150 0000000bH .text$_ZNK5Eigen9EigenBaseINS_5BlockIKNS_6MatrixIdLin1ELi1ELi0ELin1ELi1EEELi1ELi1ELb0EEEE7derivedEv CODE
 0001:001d9160 00000039H .text$_ZN5Eigen8internal15BlockImpl_denseINS_6MatrixIdLin1ELi1ELi0ELin1ELi1EEELi1ELi1ELb0ELb1EEaSINS_5BlockIKS3_Li1ELi1ELb0EEEEERS4_RKNS_9DenseBaseIT_EE CODE
 0001:001d91a0 00000049H .text$_ZN5Eigen10MatrixBaseINS_5BlockINS_6MatrixIdLin1ELi1ELi0ELin1ELi1EEELi1ELi1ELb0EEEEaSINS1_IKS3_Li1ELi1ELb0EEEEERS4_RKNS_9DenseBaseIT_EE CODE
 0001:001d91f0 0000004bH .text$_ZN5Eigen8internal15call_assignmentINS_5BlockINS_6MatrixIdLin1ELi1ELi0ELin1ELi1EEELi1ELi1ELb0EEENS2_IKS4_Li1ELi1ELb0EEEEEvRT_RKT0_ CODE
 0001:001d9240 00000032H .text$_ZN5Eigen8internal15call_assignmentINS_5BlockINS_6MatrixIdLin1ELi1ELi0ELin1ELi1EEELi1ELi1ELb0EEENS2_IKS4_Li1ELi1ELb0EEENS0_9assign_opIddEEEEvRT_RKT0_RKT1_NS0_9enable_ifIXntsr25evaluator_assume_aliasingISC_EE5valueEPvE4typeE CODE
 0001:001d9280 00000037H .text$_ZN5Eigen8internal24call_assignment_no_aliasINS_5BlockINS_6MatrixIdLin1ELi1ELi0ELin1ELi1EEELi1ELi1ELb0EEENS2_IKS4_Li1ELi1ELb0EEENS0_9assign_opIddEEEEvRT_RKT0_RKT1_ CODE
 0001:001d92c0 0000003cH .text$_ZN5Eigen8internal10AssignmentINS_5BlockINS_6MatrixIdLin1ELi1ELi0ELin1ELi1EEELi1ELi1ELb0EEENS2_IKS4_Li1ELi1ELb0EEENS0_9assign_opIddEENS0_11Dense2DenseEvE3runERS5_RKS7_RKS9_ CODE
 0001:001d9300 00000012H .text$_ZN5Eigen8internal18check_for_aliasingINS_5BlockINS_6MatrixIdLin1ELi1ELi0ELin1ELi1EEELi1ELi1ELb0EEENS2_IKS4_Li1ELi1ELb0EEEEEvRKT_RKT0_ CODE
 0001:001d9320 00000118H .text$_ZN5Eigen8internal26call_dense_assignment_loopINS_5BlockINS_6MatrixIdLin1ELi1ELi0ELin1ELi1EEELi1ELi1ELb0EEENS2_IKS4_Li1ELi1ELb0EEENS0_9assign_opIddEEEEvRT_RKT0_RKT1_ CODE
 0001:001d9440 00000023H .text$_ZN5Eigen8internal9evaluatorINS_5BlockIKNS_6MatrixIdLin1ELi1ELi0ELin1ELi1EEELi1ELi1ELb0EEEEC1ERKS6_ CODE
 0001:001d9470 000000b8H .text$_ZN5Eigen8internal17resize_if_allowedINS_5BlockINS_6MatrixIdLin1ELi1ELi0ELin1ELi1EEELi1ELi1ELb0EEENS2_IKS4_Li1ELi1ELb0EEEddEEvRT_RKT0_RKNS0_9assign_opIT1_T2_EE CODE
 0001:001d9530 00000046H .text$_ZN5Eigen8internal31generic_dense_assignment_kernelINS0_9evaluatorINS_5BlockINS_6MatrixIdLin1ELi1ELi0ELin1ELi1EEELi1ELi1ELb0EEEEENS2_INS3_IKS5_Li1ELi1ELb0EEEEENS0_9assign_opIddEELi0EEC1ERS7_RKSA_RKSC_RS6_ CODE
 0001:001d9580 00000023H .text$_ZN5Eigen8internal21dense_assignment_loopINS0_31generic_dense_assignment_kernelINS0_9evaluatorINS_5BlockINS_6MatrixIdLin1ELi1ELi0ELin1ELi1EEELi1ELi1ELb0EEEEENS3_INS4_IKS6_Li1ELi1ELb0EEEEENS0_9assign_opIddEELi0EEELi3ELi2EE3runERSE_ CODE
 0001:001d95b0 00000019H .text$_ZN5Eigen8internal9evaluatorINS_5BlockIKNS_6MatrixIdLin1ELi1ELi0ELin1ELi1EEELi1ELi1ELb0EEEED1Ev CODE
 0001:001d95d0 00000023H .text$_ZN5Eigen8internal9evaluatorINS_5BlockIKNS_6MatrixIdLin1ELi1ELi0ELin1ELi1EEELi1ELi1ELb0EEEEC2ERKS6_ CODE
 0001:001d9600 0000009cH .text$_ZN5Eigen8internal15block_evaluatorIKNS_6MatrixIdLin1ELi1ELi0ELin1ELi1EEELi1ELi1ELb0ELb1EEC2ERKNS_5BlockIS4_Li1ELi1ELb0EEE CODE
 0001:001d96a0 000000c6H .text$_ZN5Eigen8internal17mapbase_evaluatorINS_5BlockIKNS_6MatrixIdLin1ELi1ELi0ELin1ELi1EEELi1ELi1ELb0EEENS3_IdLi1ELi1ELi0ELi1ELi1EEEEC2ERKS6_ CODE
 0001:001d9770 0000000eH .text$_ZNK5Eigen7MapBaseINS_5BlockIKNS_6MatrixIdLin1ELi1ELi0ELin1ELi1EEELi1ELi1ELb0EEELi0EE4dataEv CODE
 0001:001d9780 00000019H .text$_ZN5Eigen8internal17mapbase_evaluatorINS_5BlockIKNS_6MatrixIdLin1ELi1ELi0ELin1ELi1EEELi1ELi1ELb0EEENS3_IdLi1ELi1ELi0ELi1ELi1EEEED2Ev CODE
 0001:001d97a0 00000007H .text$_ZN5Eigen8internal14evaluator_baseINS_5BlockIKNS_6MatrixIdLin1ELi1ELi0ELin1ELi1EEELi1ELi1ELb0EEEEC2Ev CODE
 0001:001d97b0 0000001dH .text$_ZNK5Eigen8internal15BlockImpl_denseIKNS_6MatrixIdLin1ELi1ELi0ELin1ELi1EEELi1ELi1ELb0ELb1EE11innerStrideEv CODE
 0001:001d97d0 0000001dH .text$_ZNK5Eigen8internal15BlockImpl_denseIKNS_6MatrixIdLin1ELi1ELi0ELin1ELi1EEELi1ELi1ELb0ELb1EE11outerStrideEv CODE
 0001:001d97f0 00000007H .text$_ZN5Eigen8internal14evaluator_baseINS_5BlockIKNS_6MatrixIdLin1ELi1ELi0ELin1ELi1EEELi1ELi1ELb0EEEED2Ev CODE
 0001:001d9800 00000014H .text$_ZNK5Eigen7MapBaseINS_5BlockIKNS_6MatrixIdLin1ELi1ELi0ELin1ELi1EEELi1ELi1ELb0EEELi0EE4rowsEv CODE
 0001:001d9820 00000014H .text$_ZNK5Eigen7MapBaseINS_5BlockIKNS_6MatrixIdLin1ELi1ELi0ELin1ELi1EEELi1ELi1ELb0EEELi0EE4colsEv CODE
 0001:001d9840 00000081H .text$_ZN5Eigen9DenseBaseINS_5BlockINS_6MatrixIdLin1ELi1ELi0ELin1ELi1EEELi1ELi1ELb0EEEE6resizeExx CODE
 0001:001d98d0 00000048H .text$_ZN5Eigen8internal31generic_dense_assignment_kernelINS0_9evaluatorINS_5BlockINS_6MatrixIdLin1ELi1ELi0ELin1ELi1EEELi1ELi1ELb0EEEEENS2_INS3_IKS5_Li1ELi1ELb0EEEEENS0_9assign_opIddEELi0EEC2ERS7_RKSA_RKSC_RS6_ CODE
 0001:001d9920 00000007H .text$_ZN5Eigen8internal47copy_using_evaluator_innervec_CompleteUnrollingINS0_31generic_dense_assignment_kernelINS0_9evaluatorINS_5BlockINS_6MatrixIdLin1ELi1ELi0ELin1ELi1EEELi1ELi1ELb0EEEEENS3_INS4_IKS6_Li1ELi1ELb0EEEEENS0_9assign_opIddEELi0EEELi0ELi0EE3runERSE_ CODE
 0001:001d9930 0000002bH .text$_ZN5Eigen8internal55copy_using_evaluator_DefaultTraversal_CompleteUnrollingINS0_31generic_dense_assignment_kernelINS0_9evaluatorINS_5BlockINS_6MatrixIdLin1ELi1ELi0ELin1ELi1EEELi1ELi1ELb0EEEEENS3_INS4_IKS6_Li1ELi1ELb0EEEEENS0_9assign_opIddEELi0EEELi0ELi1EE3runERSE_ CODE
 0001:001d9960 0000005fH .text$_ZN5Eigen8internal31generic_dense_assignment_kernelINS0_9evaluatorINS_5BlockINS_6MatrixIdLin1ELi1ELi0ELin1ELi1EEELi1ELi1ELb0EEEEENS2_INS3_IKS5_Li1ELi1ELb0EEEEENS0_9assign_opIddEELi0EE23assignCoeffByOuterInnerExx CODE
 0001:001d99c0 00000007H .text$_ZN5Eigen8internal55copy_using_evaluator_DefaultTraversal_CompleteUnrollingINS0_31generic_dense_assignment_kernelINS0_9evaluatorINS_5BlockINS_6MatrixIdLin1ELi1ELi0ELin1ELi1EEELi1ELi1ELb0EEEEENS3_INS4_IKS6_Li1ELi1ELb0EEEEENS0_9assign_opIddEELi0EEELi1ELi1EE3runERSE_ CODE
 0001:001d99d0 00000014H .text$_ZN5Eigen8internal31generic_dense_assignment_kernelINS0_9evaluatorINS_5BlockINS_6MatrixIdLin1ELi1ELi0ELin1ELi1EEELi1ELi1ELb0EEEEENS2_INS3_IKS5_Li1ELi1ELb0EEEEENS0_9assign_opIddEELi0EE20rowIndexByOuterInnerExx CODE
 0001:001d99f0 00000014H .text$_ZN5Eigen8internal31generic_dense_assignment_kernelINS0_9evaluatorINS_5BlockINS_6MatrixIdLin1ELi1ELi0ELin1ELi1EEELi1ELi1ELb0EEEEENS2_INS3_IKS5_Li1ELi1ELb0EEEEENS0_9assign_opIddEELi0EE20colIndexByOuterInnerExx CODE
 0001:001d9a10 00000078H .text$_ZN5Eigen8internal31generic_dense_assignment_kernelINS0_9evaluatorINS_5BlockINS_6MatrixIdLin1ELi1ELi0ELin1ELi1EEELi1ELi1ELb0EEEEENS2_INS3_IKS5_Li1ELi1ELb0EEEEENS0_9assign_opIddEELi0EE11assignCoeffExx CODE
 0001:001d9a90 0000007cH .text$_ZNK5Eigen8internal17mapbase_evaluatorINS_5BlockIKNS_6MatrixIdLin1ELi1ELi0ELin1ELi1EEELi1ELi1ELb0EEENS3_IdLi1ELi1ELi0ELi1ELi1EEEE5coeffExx CODE
 0001:001d9b10 0000001dH .text$_ZNK5Eigen8internal17mapbase_evaluatorINS_5BlockIKNS_6MatrixIdLin1ELi1ELi0ELin1ELi1EEELi1ELi1ELb0EEENS3_IdLi1ELi1ELi0ELi1ELi1EEEE9colStrideEv CODE
 0001:001d9b30 00000014H .text$_ZNK5Eigen8internal17mapbase_evaluatorINS_5BlockIKNS_6MatrixIdLin1ELi1ELi0ELin1ELi1EEELi1ELi1ELb0EEENS3_IdLi1ELi1ELi0ELi1ELi1EEEE9rowStrideEv CODE
 0001:001d9b50 00000019H .text$_ZN5Eigen8internal9evaluatorINS_5BlockIKNS_6MatrixIdLin1ELi1ELi0ELin1ELi1EEELi1ELi1ELb0EEEED2Ev CODE
 0001:001d9b70 00000019H .text$_ZN5Eigen8internal15block_evaluatorIKNS_6MatrixIdLin1ELi1ELi0ELin1ELi1EEELi1ELi1ELb0ELb1EED2Ev CODE
 0001:001d9b90 00000023H .text$_ZN5Eigen14TriangularViewIKNS_12SparseMatrixIdLi1EiEELj5EEC1ERS3_ CODE
 0001:001d9bc0 00000030H .text$_ZN5Eigen14TriangularViewIKNS_12SparseMatrixIdLi1EiEELj5EEC2ERS3_ CODE
 0001:001d9bf0 00000019H .text$_ZN5Eigen18TriangularViewImplIKNS_12SparseMatrixIdLi1EiEELj5ENS_6SparseEEC2Ev CODE
 0001:001d9c10 0000000eH .text$_ZN5Eigen16SparseMatrixBaseINS_14TriangularViewIKNS_12SparseMatrixIdLi1EiEELj5EEEEC2Ev CODE
 0001:001d9c20 0000002dH .text$_ZN5Eigen5SolveINS_14TriangularViewIKNS_12SparseMatrixIdLi1EiEELj5EEENS_6MatrixIdLin1ELi1ELi0ELin1ELi1EEEEC1ERKS5_RKS7_ CODE
 0001:001d9c50 0000003dH .text$_ZN5Eigen5SolveINS_14TriangularViewIKNS_12SparseMatrixIdLi1EiEELj5EEENS_6MatrixIdLin1ELi1ELi0ELin1ELi1EEEEC2ERKS5_RKS7_ CODE
 0001:001d9c90 00000019H .text$_ZN5Eigen9SolveImplINS_14TriangularViewIKNS_12SparseMatrixIdLi1EiEELj5EEENS_6MatrixIdLin1ELi1ELi0ELin1ELi1EEENS_5DenseEEC2Ev CODE
 0001:001d9cb0 00000019H .text$_ZN5Eigen10MatrixBaseINS_5SolveINS_14TriangularViewIKNS_12SparseMatrixIdLi1EiEELj5EEENS_6MatrixIdLin1ELi1ELi0ELin1ELi1EEEEEEC2Ev CODE
 0001:001d9cd0 00000007H .text$_ZN5Eigen9DenseBaseINS_5SolveINS_14TriangularViewIKNS_12SparseMatrixIdLi1EiEELj5EEENS_6MatrixIdLin1ELi1ELi0ELin1ELi1EEEEEEC2Ev CODE
 0001:001d9ce0 00000049H .text$_ZN5Eigen15PlainObjectBaseINS_6MatrixIdLin1ELi1ELi0ELin1ELi1EEEE4_setINS_5SolveINS_14TriangularViewIKNS_12SparseMatrixIdLi1EiEELj5EEES2_EEEERS2_RKNS_9DenseBaseIT_EE CODE
 0001:001d9d30 0000004bH .text$_ZN5Eigen8internal15call_assignmentINS_6MatrixIdLin1ELi1ELi0ELin1ELi1EEENS_5SolveINS_14TriangularViewIKNS_12SparseMatrixIdLi1EiEELj5EEES3_EEEEvRT_RKT0_ CODE
 0001:001d9d80 0000000bH .text$_ZNK5Eigen9EigenBaseINS_5SolveINS_14TriangularViewIKNS_12SparseMatrixIdLi1EiEELj5EEENS_6MatrixIdLin1ELi1ELi0ELin1ELi1EEEEEE7derivedEv CODE
 0001:001d9d90 00000032H .text$_ZN5Eigen8internal15call_assignmentINS_6MatrixIdLin1ELi1ELi0ELin1ELi1EEENS_5SolveINS_14TriangularViewIKNS_12SparseMatrixIdLi1EiEELj5EEES3_EENS0_9assign_opIddEEEEvRT_RKT0_RKT1_NS0_9enable_ifIXntsr25evaluator_assume_aliasingISF_EE5valueEPvE4typeE CODE
 0001:001d9dd0 00000037H .text$_ZN5Eigen8internal24call_assignment_no_aliasINS_6MatrixIdLin1ELi1ELi0ELin1ELi1EEENS_5SolveINS_14TriangularViewIKNS_12SparseMatrixIdLi1EiEELj5EEES3_EENS0_9assign_opIddEEEEvRT_RKT0_RKT1_ CODE
 0001:001d9e10 000000a0H .text$_ZN5Eigen8internal10AssignmentINS_6MatrixIdLin1ELi1ELi0ELin1ELi1EEENS_5SolveINS_14TriangularViewIKNS_12SparseMatrixIdLi1EiEELj5EEES3_EENS0_9assign_opIddEENS0_11Dense2DenseEvE3runERS3_RKSA_RKSC_ CODE
 0001:001d9eb0 0000001cH .text$_ZNK5Eigen5SolveINS_14TriangularViewIKNS_12SparseMatrixIdLi1EiEELj5EEENS_6MatrixIdLin1ELi1ELi0ELin1ELi1EEEE4rowsEv CODE
 0001:001d9ed0 0000001dH .text$_ZNK5Eigen5SolveINS_14TriangularViewIKNS_12SparseMatrixIdLi1EiEELj5EEENS_6MatrixIdLin1ELi1ELi0ELin1ELi1EEEE4colsEv CODE
 0001:001d9ef0 0000000eH .text$_ZNK5Eigen5SolveINS_14TriangularViewIKNS_12SparseMatrixIdLi1EiEELj5EEENS_6MatrixIdLin1ELi1ELi0ELin1ELi1EEEE3decEv CODE
 0001:001d9f00 000000a3H .text$_ZNK5Eigen18TriangularViewImplIKNS_12SparseMatrixIdLi1EiEELj5ENS_6SparseEE11_solve_implINS_6MatrixIdLin1ELi1ELi0ELin1ELi1EEES8_EEvRKT_RT0_ CODE
 0001:001d9fb0 0000000fH .text$_ZNK5Eigen5SolveINS_14TriangularViewIKNS_12SparseMatrixIdLi1EiEELj5EEENS_6MatrixIdLin1ELi1ELi0ELin1ELi1EEEE3rhsEv CODE
 0001:001d9fc0 0000001dH .text$_ZNK5Eigen14TriangularViewIKNS_12SparseMatrixIdLi1EiEELj5EE4colsEv CODE
 0001:001d9fe0 000000ccH .text$_ZNK5Eigen18TriangularViewImplIKNS_12SparseMatrixIdLi1EiEELj5ENS_6SparseEE12solveInPlaceINS_6MatrixIdLin1ELi1ELi0ELin1ELi1EEEEEvRNS_10MatrixBaseIT_EE CODE
 0001:001da0b0 0000000bH .text$_ZN5Eigen8internal11blas_traitsINS_6MatrixIdLin1ELi1ELi0ELin1ELi1EEEE7extractERKS3_ CODE
 0001:001da0c0 0000000bH .text$_ZNK5Eigen16SparseMatrixBaseINS_14TriangularViewIKNS_12SparseMatrixIdLi1EiEELj5EEEE7derivedEv CODE
 0001:001da0d0 0000001dH .text$_ZNK5Eigen14TriangularViewIKNS_12SparseMatrixIdLi1EiEELj5EE4rowsEv CODE
 0001:001da0f0 00000295H .text$_ZN5Eigen8internal32sparse_solve_triangular_selectorIKNS_12SparseMatrixIdLi1EiEENS_6MatrixIdLin1ELi1ELi0ELin1ELi1EEELi5ELi1ELi1EE3runERS4_RS6_ CODE
 0001:001da390 0000000fH .text$_ZNK5Eigen14TriangularViewIKNS_12SparseMatrixIdLi1EiEELj5EE16nestedExpressionEv CODE
 0001:001da3a0 00000023H .text$_ZN5Eigen8internal9evaluatorIKNS_12SparseMatrixIdLi1EiEEEC1ERS4_ CODE
 0001:001da3d0 00000019H .text$_ZN5Eigen8internal9evaluatorIKNS_12SparseMatrixIdLi1EiEEED1Ev CODE
 0001:001da3f0 00000023H .text$_ZN5Eigen8internal9evaluatorIKNS_12SparseMatrixIdLi1EiEEEC2ERS4_ CODE
 0001:001da420 00000019H .text$_ZN5Eigen8internal9evaluatorIKNS_12SparseMatrixIdLi1EiEEED2Ev CODE
 0001:001da440 00000023H .text$_ZN5Eigen14TriangularViewIKNS_12SparseMatrixIdLi1EiEELj2EEC1ERS3_ CODE
 0001:001da470 00000030H .text$_ZN5Eigen14TriangularViewIKNS_12SparseMatrixIdLi1EiEELj2EEC2ERS3_ CODE
 0001:001da4a0 00000019H .text$_ZN5Eigen18TriangularViewImplIKNS_12SparseMatrixIdLi1EiEELj2ENS_6SparseEEC2Ev CODE
 0001:001da4c0 0000000eH .text$_ZN5Eigen16SparseMatrixBaseINS_14TriangularViewIKNS_12SparseMatrixIdLi1EiEELj2EEEEC2Ev CODE
 0001:001da4d0 0000002dH .text$_ZN5Eigen5SolveINS_14TriangularViewIKNS_12SparseMatrixIdLi1EiEELj2EEENS_6MatrixIdLin1ELi1ELi0ELin1ELi1EEEEC1ERKS5_RKS7_ CODE
 0001:001da500 0000003dH .text$_ZN5Eigen5SolveINS_14TriangularViewIKNS_12SparseMatrixIdLi1EiEELj2EEENS_6MatrixIdLin1ELi1ELi0ELin1ELi1EEEEC2ERKS5_RKS7_ CODE
 0001:001da540 00000019H .text$_ZN5Eigen9SolveImplINS_14TriangularViewIKNS_12SparseMatrixIdLi1EiEELj2EEENS_6MatrixIdLin1ELi1ELi0ELin1ELi1EEENS_5DenseEEC2Ev CODE
 0001:001da560 00000019H .text$_ZN5Eigen10MatrixBaseINS_5SolveINS_14TriangularViewIKNS_12SparseMatrixIdLi1EiEELj2EEENS_6MatrixIdLin1ELi1ELi0ELin1ELi1EEEEEEC2Ev CODE
 0001:001da580 00000007H .text$_ZN5Eigen9DenseBaseINS_5SolveINS_14TriangularViewIKNS_12SparseMatrixIdLi1EiEELj2EEENS_6MatrixIdLin1ELi1ELi0ELin1ELi1EEEEEEC2Ev CODE
 0001:001da590 00000049H .text$_ZN5Eigen15PlainObjectBaseINS_6MatrixIdLin1ELi1ELi0ELin1ELi1EEEE4_setINS_5SolveINS_14TriangularViewIKNS_12SparseMatrixIdLi1EiEELj2EEES2_EEEERS2_RKNS_9DenseBaseIT_EE CODE
 0001:001da5e0 0000004bH .text$_ZN5Eigen8internal15call_assignmentINS_6MatrixIdLin1ELi1ELi0ELin1ELi1EEENS_5SolveINS_14TriangularViewIKNS_12SparseMatrixIdLi1EiEELj2EEES3_EEEEvRT_RKT0_ CODE
 0001:001da630 0000000bH .text$_ZNK5Eigen9EigenBaseINS_5SolveINS_14TriangularViewIKNS_12SparseMatrixIdLi1EiEELj2EEENS_6MatrixIdLin1ELi1ELi0ELin1ELi1EEEEEE7derivedEv CODE
 0001:001da640 00000032H .text$_ZN5Eigen8internal15call_assignmentINS_6MatrixIdLin1ELi1ELi0ELin1ELi1EEENS_5SolveINS_14TriangularViewIKNS_12SparseMatrixIdLi1EiEELj2EEES3_EENS0_9assign_opIddEEEEvRT_RKT0_RKT1_NS0_9enable_ifIXntsr25evaluator_assume_aliasingISF_EE5valueEPvE4typeE CODE
 0001:001da680 00000037H .text$_ZN5Eigen8internal24call_assignment_no_aliasINS_6MatrixIdLin1ELi1ELi0ELin1ELi1EEENS_5SolveINS_14TriangularViewIKNS_12SparseMatrixIdLi1EiEELj2EEES3_EENS0_9assign_opIddEEEEvRT_RKT0_RKT1_ CODE
 0001:001da6c0 000000a0H .text$_ZN5Eigen8internal10AssignmentINS_6MatrixIdLin1ELi1ELi0ELin1ELi1EEENS_5SolveINS_14TriangularViewIKNS_12SparseMatrixIdLi1EiEELj2EEES3_EENS0_9assign_opIddEENS0_11Dense2DenseEvE3runERS3_RKSA_RKSC_ CODE
 0001:001da760 0000001cH .text$_ZNK5Eigen5SolveINS_14TriangularViewIKNS_12SparseMatrixIdLi1EiEELj2EEENS_6MatrixIdLin1ELi1ELi0ELin1ELi1EEEE4rowsEv CODE
 0001:001da780 0000001dH .text$_ZNK5Eigen5SolveINS_14TriangularViewIKNS_12SparseMatrixIdLi1EiEELj2EEENS_6MatrixIdLin1ELi1ELi0ELin1ELi1EEEE4colsEv CODE
 0001:001da7a0 0000000eH .text$_ZNK5Eigen5SolveINS_14TriangularViewIKNS_12SparseMatrixIdLi1EiEELj2EEENS_6MatrixIdLin1ELi1ELi0ELin1ELi1EEEE3decEv CODE
 0001:001da7b0 000000a3H .text$_ZNK5Eigen18TriangularViewImplIKNS_12SparseMatrixIdLi1EiEELj2ENS_6SparseEE11_solve_implINS_6MatrixIdLin1ELi1ELi0ELin1ELi1EEES8_EEvRKT_RT0_ CODE
 0001:001da860 0000000fH .text$_ZNK5Eigen5SolveINS_14TriangularViewIKNS_12SparseMatrixIdLi1EiEELj2EEENS_6MatrixIdLin1ELi1ELi0ELin1ELi1EEEE3rhsEv CODE
 0001:001da870 0000001dH .text$_ZNK5Eigen14TriangularViewIKNS_12SparseMatrixIdLi1EiEELj2EE4colsEv CODE
 0001:001da890 000000ccH .text$_ZNK5Eigen18TriangularViewImplIKNS_12SparseMatrixIdLi1EiEELj2ENS_6SparseEE12solveInPlaceINS_6MatrixIdLin1ELi1ELi0ELin1ELi1EEEEEvRNS_10MatrixBaseIT_EE CODE
 0001:001da960 0000000bH .text$_ZNK5Eigen16SparseMatrixBaseINS_14TriangularViewIKNS_12SparseMatrixIdLi1EiEELj2EEEE7derivedEv CODE
 0001:001da970 0000001dH .text$_ZNK5Eigen14TriangularViewIKNS_12SparseMatrixIdLi1EiEELj2EE4rowsEv CODE
 0001:001da990 0000031cH .text$_ZN5Eigen8internal32sparse_solve_triangular_selectorIKNS_12SparseMatrixIdLi1EiEENS_6MatrixIdLin1ELi1ELi0ELin1ELi1EEELi2ELi2ELi1EE3runERS4_RS6_ CODE
 0001:001dacb0 0000000fH .text$_ZNK5Eigen14TriangularViewIKNS_12SparseMatrixIdLi1EiEELj2EE16nestedExpressionEv CODE
 0001:001dacc0 00000023H .text$_ZN5Eigen7NoAliasINS_6MatrixIdLin1ELi1ELi0ELin1ELi1EEENS_10MatrixBaseEEC1ERS2_ CODE
 0001:001dacf0 0000001eH .text$_ZN5Eigen7NoAliasINS_6MatrixIdLin1ELi1ELi0ELin1ELi1EEENS_10MatrixBaseEEC2ERS2_ CODE
 0001:001dad10 00000037H .text$_ZN5Eigen8internal24call_assignment_no_aliasINS_6MatrixIdLin1ELi1ELi0ELin1ELi1EEENS_7ProductINS_3RefIKNS_12SparseMatrixIdLi0EiEELi0ENS_11OuterStrideILin1EEEEES3_Li0EEENS0_9assign_opIddEEEEvRT_RKT0_RKT1_ CODE
 0001:001dad50 000000aaH .text$_ZN5Eigen8internal10AssignmentINS_6MatrixIdLin1ELi1ELi0ELin1ELi1EEENS_7ProductINS_3RefIKNS_12SparseMatrixIdLi0EiEELi0ENS_11OuterStrideILin1EEEEES3_Li0EEENS0_9assign_opIddEENS0_11Dense2DenseEvE3runERS3_RKSC_RKSE_ CODE
 0001:001dae00 0000004aH .text$_ZN5Eigen8internal25generic_product_impl_baseINS_3RefIKNS_12SparseMatrixIdLi0EiEELi0ENS_11OuterStrideILin1EEEEENS_6MatrixIdLin1ELi1ELi0ELin1ELi1EEENS0_20generic_product_implIS8_SA_NS_11SparseShapeENS_10DenseShapeELi7EEEE6evalToISA_EEvRT_RKS8_RKSA_ CODE
 0001:001dae50 00000049H .text$_ZN5Eigen15PlainObjectBaseINS_6MatrixIdLin1ELi1ELi0ELin1ELi1EEEE4_setINS_13CwiseBinaryOpINS_8internal20scalar_difference_opIddEEKS2_KNS5_INS6_17scalar_product_opIddEEKNS_14CwiseNullaryOpINS6_18scalar_constant_opIdEES9_EES9_EEEEEERS2_RKNS_9DenseBaseIT_EE CODE
 0001:001daea0 0000004bH .text$_ZN5Eigen8internal15call_assignmentINS_6MatrixIdLin1ELi1ELi0ELin1ELi1EEENS_13CwiseBinaryOpINS0_20scalar_difference_opIddEEKS3_KNS4_INS0_17scalar_product_opIddEEKNS_14CwiseNullaryOpINS0_18scalar_constant_opIdEES7_EES7_EEEEEEvRT_RKT0_ CODE
 0001:001daef0 00000032H .text$_ZN5Eigen8internal15call_assignmentINS_6MatrixIdLin1ELi1ELi0ELin1ELi1EEENS_13CwiseBinaryOpINS0_20scalar_difference_opIddEEKS3_KNS4_INS0_17scalar_product_opIddEEKNS_14CwiseNullaryOpINS0_18scalar_constant_opIdEES7_EES7_EEEENS0_9assign_opIddEEEEvRT_RKT0_RKT1_NS0_9enable_ifIXntsr25evaluator_assume_aliasingISM_EE5valueEPvE4typeE CODE
 0001:001daf30 00000037H .text$_ZN5Eigen8internal24call_assignment_no_aliasINS_6MatrixIdLin1ELi1ELi0ELin1ELi1EEENS_13CwiseBinaryOpINS0_20scalar_difference_opIddEEKS3_KNS4_INS0_17scalar_product_opIddEEKNS_14CwiseNullaryOpINS0_18scalar_constant_opIdEES7_EES7_EEEENS0_9assign_opIddEEEEvRT_RKT0_RKT1_ CODE
 0001:001daf70 0000003cH .text$_ZN5Eigen8internal10AssignmentINS_6MatrixIdLin1ELi1ELi0ELin1ELi1EEENS_13CwiseBinaryOpINS0_20scalar_difference_opIddEEKS3_KNS4_INS0_17scalar_product_opIddEEKNS_14CwiseNullaryOpINS0_18scalar_constant_opIdEES7_EES7_EEEENS0_9assign_opIddEENS0_11Dense2DenseEvE3runERS3_RKSH_RKSJ_ CODE
 0001:001dafb0 00000012H .text$_ZN5Eigen8internal18check_for_aliasingINS_6MatrixIdLin1ELi1ELi0ELin1ELi1EEENS_13CwiseBinaryOpINS0_20scalar_difference_opIddEEKS3_KNS4_INS0_17scalar_product_opIddEEKNS_14CwiseNullaryOpINS0_18scalar_constant_opIdEES7_EES7_EEEEEEvRKT_RKT0_ CODE
 0001:001dafd0 00000118H .text$_ZN5Eigen8internal26call_dense_assignment_loopINS_6MatrixIdLin1ELi1ELi0ELin1ELi1EEENS_13CwiseBinaryOpINS0_20scalar_difference_opIddEEKS3_KNS4_INS0_17scalar_product_opIddEEKNS_14CwiseNullaryOpINS0_18scalar_constant_opIdEES7_EES7_EEEENS0_9assign_opIddEEEEvRT_RKT0_RKT1_ CODE
 0001:001db0f0 00000023H .text$_ZN5Eigen8internal9evaluatorINS_13CwiseBinaryOpINS0_20scalar_difference_opIddEEKNS_6MatrixIdLin1ELi1ELi0ELin1ELi1EEEKNS2_INS0_17scalar_product_opIddEEKNS_14CwiseNullaryOpINS0_18scalar_constant_opIdEES7_EES7_EEEEEC1ERKSH_ CODE
 0001:001db120 000000b8H .text$_ZN5Eigen8internal17resize_if_allowedINS_6MatrixIdLin1ELi1ELi0ELin1ELi1EEENS_13CwiseBinaryOpINS0_20scalar_difference_opIddEEKS3_KNS4_INS0_17scalar_product_opIddEEKNS_14CwiseNullaryOpINS0_18scalar_constant_opIdEES7_EES7_EEEEddEEvRT_RKT0_RKNS0_9assign_opIT1_T2_EE CODE
 0001:001db1e0 00000046H .text$_ZN5Eigen8internal31generic_dense_assignment_kernelINS0_9evaluatorINS_6MatrixIdLin1ELi1ELi0ELin1ELi1EEEEENS2_INS_13CwiseBinaryOpINS0_20scalar_difference_opIddEEKS4_KNS6_INS0_17scalar_product_opIddEEKNS_14CwiseNullaryOpINS0_18scalar_constant_opIdEES9_EES9_EEEEEENS0_9assign_opIddEELi0EEC1ERS5_RKSK_RKSM_RS4_ CODE
 0001:001db230 000000a8H .text$_ZN5Eigen8internal21dense_assignment_loopINS0_31generic_dense_assignment_kernelINS0_9evaluatorINS_6MatrixIdLin1ELi1ELi0ELin1ELi1EEEEENS3_INS_13CwiseBinaryOpINS0_20scalar_difference_opIddEEKS5_KNS7_INS0_17scalar_product_opIddEEKNS_14CwiseNullaryOpINS0_18scalar_constant_opIdEESA_EESA_EEEEEENS0_9assign_opIddEELi0EEELi3ELi0EE3runERSO_ CODE
 0001:001db2e0 00000019H .text$_ZN5Eigen8internal9evaluatorINS_13CwiseBinaryOpINS0_20scalar_difference_opIddEEKNS_6MatrixIdLin1ELi1ELi0ELin1ELi1EEEKNS2_INS0_17scalar_product_opIddEEKNS_14CwiseNullaryOpINS0_18scalar_constant_opIdEES7_EES7_EEEEED1Ev CODE
 0001:001db300 00000048H .text$_ZN5Eigen8internal31generic_dense_assignment_kernelINS0_9evaluatorINS_6MatrixIdLin1ELi1ELi0ELin1ELi1EEEEENS2_INS_13CwiseBinaryOpINS0_20scalar_difference_opIddEEKS4_KNS6_INS0_17scalar_product_opIddEEKNS_14CwiseNullaryOpINS0_18scalar_constant_opIdEES9_EES9_EEEEEENS0_9assign_opIddEELi0EEC2ERS5_RKSK_RKSM_RS4_ CODE
 0001:001db350 0000001dH .text$_ZNK5Eigen8internal31generic_dense_assignment_kernelINS0_9evaluatorINS_6MatrixIdLin1ELi1ELi0ELin1ELi1EEEEENS2_INS_13CwiseBinaryOpINS0_20scalar_difference_opIddEEKS4_KNS6_INS0_17scalar_product_opIddEEKNS_14CwiseNullaryOpINS0_18scalar_constant_opIdEES9_EES9_EEEEEENS0_9assign_opIddEELi0EE4sizeEv CODE
 0001:001db370 00000017H .text$_ZN5Eigen8internal31unaligned_dense_assignment_loopILb1EE3runINS0_31generic_dense_assignment_kernelINS0_9evaluatorINS_6MatrixIdLin1ELi1ELi0ELin1ELi1EEEEENS5_INS_13CwiseBinaryOpINS0_20scalar_difference_opIddEEKS7_KNS9_INS0_17scalar_product_opIddEEKNS_14CwiseNullaryOpINS0_18scalar_constant_opIdEESC_EESC_EEEEEENS0_9assign_opIddEELi0EEEEEvRT_xx CODE
 0001:001db390 00000069H .text$_ZN5Eigen8internal31generic_dense_assignment_kernelINS0_9evaluatorINS_6MatrixIdLin1ELi1ELi0ELin1ELi1EEEEENS2_INS_13CwiseBinaryOpINS0_20scalar_difference_opIddEEKS4_KNS6_INS0_17scalar_product_opIddEEKNS_14CwiseNullaryOpINS0_18scalar_constant_opIdEES9_EES9_EEEEEENS0_9assign_opIddEELi0EE12assignPacketILi16ELi16EDv2_dEEvx CODE
 0001:001db400 00000054H .text$_ZN5Eigen8internal31unaligned_dense_assignment_loopILb0EE3runINS0_31generic_dense_assignment_kernelINS0_9evaluatorINS_6MatrixIdLin1ELi1ELi0ELin1ELi1EEEEENS5_INS_13CwiseBinaryOpINS0_20scalar_difference_opIddEEKS7_KNS9_INS0_17scalar_product_opIddEEKNS_14CwiseNullaryOpINS0_18scalar_constant_opIdEESC_EESC_EEEEEENS0_9assign_opIddEELi0EEEEEvRT_xx CODE
 0001:001db460 00000069H .text$_ZN5Eigen8internal31generic_dense_assignment_kernelINS0_9evaluatorINS_6MatrixIdLin1ELi1ELi0ELin1ELi1EEEEENS2_INS_13CwiseBinaryOpINS0_20scalar_difference_opIddEEKS4_KNS6_INS0_17scalar_product_opIddEEKNS_14CwiseNullaryOpINS0_18scalar_constant_opIdEES9_EES9_EEEEEENS0_9assign_opIddEELi0EE11assignCoeffEx CODE
 0001:001db4d0 00000037H .text$_ZN5Eigen13CwiseBinaryOpINS_8internal13scalar_sum_opIddEEKNS0_INS1_17scalar_product_opIddEEKNS_14CwiseNullaryOpINS1_18scalar_constant_opIdEEKNS_6MatrixIdLin1ELi1ELi0ELin1ELi1EEEEESB_EESF_EC1ERSF_SH_RKS3_ CODE
 0001:001db510 000000d3H .text$_ZN5Eigen13CwiseBinaryOpINS_8internal13scalar_sum_opIddEEKNS0_INS1_17scalar_product_opIddEEKNS_14CwiseNullaryOpINS1_18scalar_constant_opIdEEKNS_6MatrixIdLin1ELi1ELi0ELin1ELi1EEEEESB_EESF_EC2ERSF_SH_RKS3_ CODE
 0001:001db5f0 00000019H .text$_ZN5Eigen17CwiseBinaryOpImplINS_8internal13scalar_sum_opIddEEKNS_13CwiseBinaryOpINS1_17scalar_product_opIddEEKNS_14CwiseNullaryOpINS1_18scalar_constant_opIdEEKNS_6MatrixIdLin1ELi1ELi0ELin1ELi1EEEEESC_EESG_NS_5DenseEEC2Ev CODE
 0001:001db610 00000019H .text$_ZN5Eigen10MatrixBaseINS_13CwiseBinaryOpINS_8internal13scalar_sum_opIddEEKNS1_INS2_17scalar_product_opIddEEKNS_14CwiseNullaryOpINS2_18scalar_constant_opIdEEKNS_6MatrixIdLin1ELi1ELi0ELin1ELi1EEEEESC_EESG_EEEC2Ev CODE
 0001:001db630 00000007H .text$_ZN5Eigen9DenseBaseINS_13CwiseBinaryOpINS_8internal13scalar_sum_opIddEEKNS1_INS2_17scalar_product_opIddEEKNS_14CwiseNullaryOpINS2_18scalar_constant_opIdEEKNS_6MatrixIdLin1ELi1ELi0ELin1ELi1EEEEESC_EESG_EEEC2Ev CODE
 0001:001db640 00000032H .text$_ZN5Eigen8internal15call_assignmentINS_6MatrixIdLin1ELi1ELi0ELin1ELi1EEENS_13CwiseBinaryOpINS0_13scalar_sum_opIddEEKNS4_INS0_17scalar_product_opIddEEKNS_14CwiseNullaryOpINS0_18scalar_constant_opIdEEKS3_EESC_EESG_EENS0_13add_assign_opIddEEEEvRT_RKT0_RKT1_NS0_9enable_ifIXntsr25evaluator_assume_aliasingISM_EE5valueEPvE4typeE CODE
 0001:001db680 0000000bH .text$_ZNK5Eigen9EigenBaseINS_13CwiseBinaryOpINS_8internal13scalar_sum_opIddEEKNS1_INS2_17scalar_product_opIddEEKNS_14CwiseNullaryOpINS2_18scalar_constant_opIdEEKNS_6MatrixIdLin1ELi1ELi0ELin1ELi1EEEEESC_EESG_EEE7derivedEv CODE
 0001:001db690 00000019H .text$_ZN5Eigen8internal13add_assign_opIddEC1Ev CODE
 0001:001db6b0 00000037H .text$_ZN5Eigen8internal24call_assignment_no_aliasINS_6MatrixIdLin1ELi1ELi0ELin1ELi1EEENS_13CwiseBinaryOpINS0_13scalar_sum_opIddEEKNS4_INS0_17scalar_product_opIddEEKNS_14CwiseNullaryOpINS0_18scalar_constant_opIdEEKS3_EESC_EESG_EENS0_13add_assign_opIddEEEEvRT_RKT0_RKT1_ CODE
 0001:001db6f0 0000003cH .text$_ZN5Eigen8internal10AssignmentINS_6MatrixIdLin1ELi1ELi0ELin1ELi1EEENS_13CwiseBinaryOpINS0_13scalar_sum_opIddEEKNS4_INS0_17scalar_product_opIddEEKNS_14CwiseNullaryOpINS0_18scalar_constant_opIdEEKS3_EESC_EESG_EENS0_13add_assign_opIddEENS0_11Dense2DenseEvE3runERS3_RKSH_RKSJ_ CODE
 0001:001db730 00000012H .text$_ZN5Eigen8internal18check_for_aliasingINS_6MatrixIdLin1ELi1ELi0ELin1ELi1EEENS_13CwiseBinaryOpINS0_13scalar_sum_opIddEEKNS4_INS0_17scalar_product_opIddEEKNS_14CwiseNullaryOpINS0_18scalar_constant_opIdEEKS3_EESC_EESG_EEEEvRKT_RKT0_ CODE
 0001:001db750 00000118H .text$_ZN5Eigen8internal26call_dense_assignment_loopINS_6MatrixIdLin1ELi1ELi0ELin1ELi1EEENS_13CwiseBinaryOpINS0_13scalar_sum_opIddEEKNS4_INS0_17scalar_product_opIddEEKNS_14CwiseNullaryOpINS0_18scalar_constant_opIdEEKS3_EESC_EESG_EENS0_13add_assign_opIddEEEEvRT_RKT0_RKT1_ CODE
 0001:001db870 00000023H .text$_ZN5Eigen8internal9evaluatorINS_13CwiseBinaryOpINS0_13scalar_sum_opIddEEKNS2_INS0_17scalar_product_opIddEEKNS_14CwiseNullaryOpINS0_18scalar_constant_opIdEEKNS_6MatrixIdLin1ELi1ELi0ELin1ELi1EEEEESC_EESG_EEEC1ERKSH_ CODE
 0001:001db8a0 00000086H .text$_ZN5Eigen8internal17resize_if_allowedINS_6MatrixIdLin1ELi1ELi0ELin1ELi1EEENS_13CwiseBinaryOpINS0_13scalar_sum_opIddEEKNS4_INS0_17scalar_product_opIddEEKNS_14CwiseNullaryOpINS0_18scalar_constant_opIdEEKS3_EESC_EESG_EENS0_13add_assign_opIddEEEEvRT_RKT0_RKT1_ CODE
 0001:001db930 00000046H .text$_ZN5Eigen8internal31generic_dense_assignment_kernelINS0_9evaluatorINS_6MatrixIdLin1ELi1ELi0ELin1ELi1EEEEENS2_INS_13CwiseBinaryOpINS0_13scalar_sum_opIddEEKNS6_INS0_17scalar_product_opIddEEKNS_14CwiseNullaryOpINS0_18scalar_constant_opIdEEKS4_EESE_EESI_EEEENS0_13add_assign_opIddEELi0EEC1ERS5_RKSK_RKSM_RS4_ CODE
 0001:001db980 000000a8H .text$_ZN5Eigen8internal21dense_assignment_loopINS0_31generic_dense_assignment_kernelINS0_9evaluatorINS_6MatrixIdLin1ELi1ELi0ELin1ELi1EEEEENS3_INS_13CwiseBinaryOpINS0_13scalar_sum_opIddEEKNS7_INS0_17scalar_product_opIddEEKNS_14CwiseNullaryOpINS0_18scalar_constant_opIdEEKS5_EESF_EESJ_EEEENS0_13add_assign_opIddEELi0EEELi3ELi0EE3runERSO_ CODE
 0001:001dba30 00000019H .text$_ZN5Eigen8internal9evaluatorINS_13CwiseBinaryOpINS0_13scalar_sum_opIddEEKNS2_INS0_17scalar_product_opIddEEKNS_14CwiseNullaryOpINS0_18scalar_constant_opIdEEKNS_6MatrixIdLin1ELi1ELi0ELin1ELi1EEEEESC_EESG_EEED1Ev CODE
 0001:001dba50 00000023H .text$_ZN5Eigen8internal9evaluatorINS_13CwiseBinaryOpINS0_13scalar_sum_opIddEEKNS2_INS0_17scalar_product_opIddEEKNS_14CwiseNullaryOpINS0_18scalar_constant_opIdEEKNS_6MatrixIdLin1ELi1ELi0ELin1ELi1EEEEESC_EESG_EEEC2ERKSH_ CODE
 0001:001dba80 00000061H .text$_ZN5Eigen8internal16binary_evaluatorINS_13CwiseBinaryOpINS0_13scalar_sum_opIddEEKNS2_INS0_17scalar_product_opIddEEKNS_14CwiseNullaryOpINS0_18scalar_constant_opIdEEKNS_6MatrixIdLin1ELi1ELi0ELin1ELi1EEEEESC_EESG_EENS0_10IndexBasedESI_ddEC2ERKSH_ CODE
 0001:001dbaf0 00000007H .text$_ZN5Eigen8internal14evaluator_baseINS_13CwiseBinaryOpINS0_13scalar_sum_opIddEEKNS2_INS0_17scalar_product_opIddEEKNS_14CwiseNullaryOpINS0_18scalar_constant_opIdEEKNS_6MatrixIdLin1ELi1ELi0ELin1ELi1EEEEESC_EESG_EEEC2Ev CODE
 0001:001dbb00 00000023H .text$_ZN5Eigen8internal16binary_evaluatorINS_13CwiseBinaryOpINS0_13scalar_sum_opIddEEKNS2_INS0_17scalar_product_opIddEEKNS_14CwiseNullaryOpINS0_18scalar_constant_opIdEEKNS_6MatrixIdLin1ELi1ELi0ELin1ELi1EEEEESC_EESG_EENS0_10IndexBasedESI_ddE4DataC1ERKSH_ CODE
 0001:001dbb30 00000007H .text$_ZN5Eigen8internal14evaluator_baseINS_13CwiseBinaryOpINS0_13scalar_sum_opIddEEKNS2_INS0_17scalar_product_opIddEEKNS_14CwiseNullaryOpINS0_18scalar_constant_opIdEEKNS_6MatrixIdLin1ELi1ELi0ELin1ELi1EEEEESC_EESG_EEED2Ev CODE
 0001:001dbb40 000000baH .text$_ZN5Eigen8internal16binary_evaluatorINS_13CwiseBinaryOpINS0_13scalar_sum_opIddEEKNS2_INS0_17scalar_product_opIddEEKNS_14CwiseNullaryOpINS0_18scalar_constant_opIdEEKNS_6MatrixIdLin1ELi1ELi0ELin1ELi1EEEEESC_EESG_EENS0_10IndexBasedESI_ddE4DataC2ERKSH_ CODE
 0001:001dbc00 0000000fH .text$_ZNK5Eigen13CwiseBinaryOpINS_8internal13scalar_sum_opIddEEKNS0_INS1_17scalar_product_opIddEEKNS_14CwiseNullaryOpINS1_18scalar_constant_opIdEEKNS_6MatrixIdLin1ELi1ELi0ELin1ELi1EEEEESB_EESF_E7functorEv CODE
 0001:001dbc10 0000000fH .text$_ZNK5Eigen13CwiseBinaryOpINS_8internal13scalar_sum_opIddEEKNS0_INS1_17scalar_product_opIddEEKNS_14CwiseNullaryOpINS1_18scalar_constant_opIdEEKNS_6MatrixIdLin1ELi1ELi0ELin1ELi1EEEEESB_EESF_E3lhsEv CODE
 0001:001dbc20 0000000fH .text$_ZNK5Eigen13CwiseBinaryOpINS_8internal13scalar_sum_opIddEEKNS0_INS1_17scalar_product_opIddEEKNS_14CwiseNullaryOpINS1_18scalar_constant_opIdEEKNS_6MatrixIdLin1ELi1ELi0ELin1ELi1EEEEESB_EESF_E3rhsEv CODE
 0001:001dbc30 0000001dH .text$_ZNK5Eigen13CwiseBinaryOpINS_8internal13scalar_sum_opIddEEKNS0_INS1_17scalar_product_opIddEEKNS_14CwiseNullaryOpINS1_18scalar_constant_opIdEEKNS_6MatrixIdLin1ELi1ELi0ELin1ELi1EEEEESB_EESF_E4rowsEv CODE
 0001:001dbc50 0000001dH .text$_ZNK5Eigen13CwiseBinaryOpINS_8internal13scalar_sum_opIddEEKNS0_INS1_17scalar_product_opIddEEKNS_14CwiseNullaryOpINS1_18scalar_constant_opIdEEKNS_6MatrixIdLin1ELi1ELi0ELin1ELi1EEEEESB_EESF_E4colsEv CODE
 0001:001dbc70 00000048H .text$_ZN5Eigen8internal31generic_dense_assignment_kernelINS0_9evaluatorINS_6MatrixIdLin1ELi1ELi0ELin1ELi1EEEEENS2_INS_13CwiseBinaryOpINS0_13scalar_sum_opIddEEKNS6_INS0_17scalar_product_opIddEEKNS_14CwiseNullaryOpINS0_18scalar_constant_opIdEEKS4_EESE_EESI_EEEENS0_13add_assign_opIddEELi0EEC2ERS5_RKSK_RKSM_RS4_ CODE
 0001:001dbcc0 0000001dH .text$_ZNK5Eigen8internal31generic_dense_assignment_kernelINS0_9evaluatorINS_6MatrixIdLin1ELi1ELi0ELin1ELi1EEEEENS2_INS_13CwiseBinaryOpINS0_13scalar_sum_opIddEEKNS6_INS0_17scalar_product_opIddEEKNS_14CwiseNullaryOpINS0_18scalar_constant_opIdEEKS4_EESE_EESI_EEEENS0_13add_assign_opIddEELi0EE4sizeEv CODE
 0001:001dbce0 00000017H .text$_ZN5Eigen8internal31unaligned_dense_assignment_loopILb1EE3runINS0_31generic_dense_assignment_kernelINS0_9evaluatorINS_6MatrixIdLin1ELi1ELi0ELin1ELi1EEEEENS5_INS_13CwiseBinaryOpINS0_13scalar_sum_opIddEEKNS9_INS0_17scalar_product_opIddEEKNS_14CwiseNullaryOpINS0_18scalar_constant_opIdEEKS7_EESH_EESL_EEEENS0_13add_assign_opIddEELi0EEEEEvRT_xx CODE
 0001:001dbd00 00000069H .text$_ZN5Eigen8internal31generic_dense_assignment_kernelINS0_9evaluatorINS_6MatrixIdLin1ELi1ELi0ELin1ELi1EEEEENS2_INS_13CwiseBinaryOpINS0_13scalar_sum_opIddEEKNS6_INS0_17scalar_product_opIddEEKNS_14CwiseNullaryOpINS0_18scalar_constant_opIdEEKS4_EESE_EESI_EEEENS0_13add_assign_opIddEELi0EE12assignPacketILi16ELi16EDv2_dEEvx CODE
 0001:001dbd70 00000054H .text$_ZN5Eigen8internal31unaligned_dense_assignment_loopILb0EE3runINS0_31generic_dense_assignment_kernelINS0_9evaluatorINS_6MatrixIdLin1ELi1ELi0ELin1ELi1EEEEENS5_INS_13CwiseBinaryOpINS0_13scalar_sum_opIddEEKNS9_INS0_17scalar_product_opIddEEKNS_14CwiseNullaryOpINS0_18scalar_constant_opIdEEKS7_EESH_EESL_EEEENS0_13add_assign_opIddEELi0EEEEEvRT_xx CODE
 0001:001dbdd0 00000081H .text$_ZNK5Eigen8internal13add_assign_opIddE12assignPacketILi16EDv2_dEEvPdRKT0_ CODE
 0001:001dbe60 0000006eH .text$_ZNK5Eigen8internal16binary_evaluatorINS_13CwiseBinaryOpINS0_13scalar_sum_opIddEEKNS2_INS0_17scalar_product_opIddEEKNS_14CwiseNullaryOpINS0_18scalar_constant_opIdEEKNS_6MatrixIdLin1ELi1ELi0ELin1ELi1EEEEESC_EESG_EENS0_10IndexBasedESI_ddE6packetILi16EDv2_dEET0_x CODE
 0001:001dbed0 0000000bH .text$_ZNK5Eigen8internal16binary_evaluatorINS_13CwiseBinaryOpINS0_13scalar_sum_opIddEEKNS2_INS0_17scalar_product_opIddEEKNS_14CwiseNullaryOpINS0_18scalar_constant_opIdEEKNS_6MatrixIdLin1ELi1ELi0ELin1ELi1EEEEESC_EESG_EENS0_10IndexBasedESI_ddE4Data4funcEv CODE
 0001:001dbee0 00000069H .text$_ZN5Eigen8internal31generic_dense_assignment_kernelINS0_9evaluatorINS_6MatrixIdLin1ELi1ELi0ELin1ELi1EEEEENS2_INS_13CwiseBinaryOpINS0_13scalar_sum_opIddEEKNS6_INS0_17scalar_product_opIddEEKNS_14CwiseNullaryOpINS0_18scalar_constant_opIdEEKS4_EESE_EESI_EEEENS0_13add_assign_opIddEELi0EE11assignCoeffEx CODE
 0001:001dbf50 0000002cH .text$_ZNK5Eigen8internal13add_assign_opIddE11assignCoeffERdRKd CODE
 0001:001dbf80 0000006eH .text$_ZNK5Eigen8internal16binary_evaluatorINS_13CwiseBinaryOpINS0_13scalar_sum_opIddEEKNS2_INS0_17scalar_product_opIddEEKNS_14CwiseNullaryOpINS0_18scalar_constant_opIdEEKNS_6MatrixIdLin1ELi1ELi0ELin1ELi1EEEEESC_EESG_EENS0_10IndexBasedESI_ddE5coeffEx CODE
 0001:001dbff0 00000019H .text$_ZN5Eigen8internal9evaluatorINS_13CwiseBinaryOpINS0_13scalar_sum_opIddEEKNS2_INS0_17scalar_product_opIddEEKNS_14CwiseNullaryOpINS0_18scalar_constant_opIdEEKNS_6MatrixIdLin1ELi1ELi0ELin1ELi1EEEEESC_EESG_EEED2Ev CODE
 0001:001dc010 00000028H .text$_ZN5Eigen8internal16binary_evaluatorINS_13CwiseBinaryOpINS0_13scalar_sum_opIddEEKNS2_INS0_17scalar_product_opIddEEKNS_14CwiseNullaryOpINS0_18scalar_constant_opIdEEKNS_6MatrixIdLin1ELi1ELi0ELin1ELi1EEEEESC_EESG_EENS0_10IndexBasedESI_ddED2Ev CODE
 0001:001dc040 00000019H .text$_ZN5Eigen8internal16binary_evaluatorINS_13CwiseBinaryOpINS0_13scalar_sum_opIddEEKNS2_INS0_17scalar_product_opIddEEKNS_14CwiseNullaryOpINS0_18scalar_constant_opIdEEKNS_6MatrixIdLin1ELi1ELi0ELin1ELi1EEEEESC_EESG_EENS0_10IndexBasedESI_ddE4DataD1Ev CODE
 0001:001dc060 00000030H .text$_ZN5Eigen8internal16binary_evaluatorINS_13CwiseBinaryOpINS0_13scalar_sum_opIddEEKNS2_INS0_17scalar_product_opIddEEKNS_14CwiseNullaryOpINS0_18scalar_constant_opIdEEKNS_6MatrixIdLin1ELi1ELi0ELin1ELi1EEEEESC_EESG_EENS0_10IndexBasedESI_ddE4DataD2Ev CODE
 0001:001dc090 00000007H .text$_ZN5Eigen8internal13add_assign_opIddEC2Ev CODE
 0001:001dc0a0 00000019H .text$_ZN5Eigen6MatrixIdLin1ELi1ELi0ELin1ELi1EED2Ev CODE
 0001:001dc0c0 0000002cH .text$_Z17__libcpp_isfiniteB6v15007IdEbT_ CODE
 0001:001dc0f0 00000019H .text$_ZN5Eigen8BiCGSTABINS_12SparseMatrixIdLi0EiEENS_13IncompleteLUTIdiEEED2Ev CODE
 0001:001dc110 0000003dH .text$_ZN5Eigen19IterativeSolverBaseINS_8BiCGSTABINS_12SparseMatrixIdLi0EiEENS_13IncompleteLUTIdiEEEEED2Ev CODE
 0001:001dc150 00000051H .text$_ZN5Eigen12SparseMatrixIdLi1EiED2Ev CODE
 0001:001dc1b0 0000003aH .text$_ZNSt3__16vectorIN5Eigen7TripletIdiEENS_9allocatorIS3_EEED2B6v15007Ev CODE
 0001:001dc1f0 00000023H .text$_ZNSt3__16vectorIN5Eigen7TripletIdiEENS_9allocatorIS3_EEE16__destroy_vectorC1ERS6_ CODE
 0001:001dc220 0000008cH .text$_ZNSt3__16vectorIN5Eigen7TripletIdiEENS_9allocatorIS3_EEE16__destroy_vectorclB6v15007Ev CODE
 0001:001dc2b0 0000001eH .text$_ZNSt3__16vectorIN5Eigen7TripletIdiEENS_9allocatorIS3_EEE16__destroy_vectorC2ERS6_ CODE
 0001:001dc2d0 00000007H .text$_ZNSt3__118__debug_db_erase_cB6v15007INS_6vectorIN5Eigen7TripletIdiEENS_9allocatorIS4_EEEEEEvPT_ CODE
 0001:001dc2e0 0000001cH .text$_ZNSt3__16vectorIN5Eigen7TripletIdiEENS_9allocatorIS3_EEE7__clearB6v15007Ev CODE
 0001:001dc300 00000086H .text$_ZNSt3__16vectorIN5Eigen7TripletIdiEENS_9allocatorIS3_EEE22__base_destruct_at_endB6v15007EPS3_ CODE
 0001:001dc390 00000019H .text$_ZN5Eigen8BiCGSTABINS_12SparseMatrixIdLi0EiEENS_22DiagonalPreconditionerIdEEEC1Ev CODE
 0001:001dc3b0 0000002fH .text$_ZN5Eigen19IterativeSolverBaseINS_8BiCGSTABINS_12SparseMatrixIdLi0EiEENS_22DiagonalPreconditionerIdEEEEE12setToleranceERKd CODE
 0001:001dc3e0 0000002aH .text$_ZN5Eigen19IterativeSolverBaseINS_8BiCGSTABINS_12SparseMatrixIdLi0EiEENS_22DiagonalPreconditionerIdEEEEE16setMaxIterationsEx CODE
 0001:001dc410 0000008cH .text$_ZN5Eigen19IterativeSolverBaseINS_8BiCGSTABINS_12SparseMatrixIdLi0EiEENS_22DiagonalPreconditionerIdEEEEE7computeINS2_IdLi1EiEEEERS6_RKNS_9EigenBaseIT_EE CODE
 0001:001dc4a0 00000045H .text$_ZNK5Eigen19IterativeSolverBaseINS_8BiCGSTABINS_12SparseMatrixIdLi0EiEENS_22DiagonalPreconditionerIdEEEEE4infoEv CODE
 0001:001dc4f0 000000ccH .text$_ZNK5Eigen16SparseSolverBaseINS_8BiCGSTABINS_12SparseMatrixIdLi0EiEENS_22DiagonalPreconditionerIdEEEEE5solveINS_6MatrixIdLin1ELi1ELi0ELin1ELi1EEEEEKNS_5SolveIS6_T_EERKNS_10MatrixBaseISC_EE CODE
 0001:001dc5c0 00000023H .text$_ZN5Eigen6MatrixIdLin1ELi1ELi0ELin1ELi1EEC1INS_5SolveINS_8BiCGSTABINS_12SparseMatrixIdLi0EiEENS_22DiagonalPreconditionerIdEEEES1_EEEERKNS_9EigenBaseIT_EE CODE
 0001:001dc5f0 00000019H .text$_ZN5Eigen8BiCGSTABINS_12SparseMatrixIdLi0EiEENS_22DiagonalPreconditionerIdEEED1Ev CODE
 0001:001dc610 00000019H .text$_ZN5Eigen8BiCGSTABINS_12SparseMatrixIdLi0EiEENS_22DiagonalPreconditionerIdEEEC2Ev CODE
 0001:001dc630 000000c4H .text$_ZN5Eigen19IterativeSolverBaseINS_8BiCGSTABINS_12SparseMatrixIdLi0EiEENS_22DiagonalPreconditionerIdEEEEEC2Ev CODE
 0001:001dc700 00000025H .text$_ZN5Eigen16SparseSolverBaseINS_8BiCGSTABINS_12SparseMatrixIdLi0EiEENS_22DiagonalPreconditionerIdEEEEEC2Ev CODE
 0001:001dc730 00000019H .text$_ZN5Eigen22DiagonalPreconditionerIdEC1Ev CODE
 0001:001dc750 00000046H .text$_ZN5Eigen19IterativeSolverBaseINS_8BiCGSTABINS_12SparseMatrixIdLi0EiEENS_22DiagonalPreconditionerIdEEEEE4initEv CODE
 0001:001dc7a0 00000019H .text$_ZN5Eigen22DiagonalPreconditionerIdED1Ev CODE
 0001:001dc7c0 00000019H .text$_ZN5Eigen16SparseSolverBaseINS_8BiCGSTABINS_12SparseMatrixIdLi0EiEENS_22DiagonalPreconditionerIdEEEEED2Ev CODE
 0001:001dc7e0 00000026H .text$_ZN5Eigen22DiagonalPreconditionerIdEC2Ev CODE
 0001:001dc810 00000019H .text$_ZN5Eigen6MatrixIdLin1ELi1ELi0ELin1ELi1EEC1Ev CODE
 0001:001dc830 0000001eH .text$_ZN5Eigen6MatrixIdLin1ELi1ELi0ELin1ELi1EEC2Ev CODE
 0001:001dc850 00000019H .text$_ZN5Eigen22DiagonalPreconditionerIdED2Ev CODE
 0001:001dc870 0000000bH .text$_ZN5Eigen16SparseSolverBaseINS_8BiCGSTABINS_12SparseMatrixIdLi0EiEENS_22DiagonalPreconditionerIdEEEEE7derivedEv CODE
 0001:001dc880 00000027H .text$_ZN5Eigen19IterativeSolverBaseINS_8BiCGSTABINS_12SparseMatrixIdLi0EiEENS_22DiagonalPreconditionerIdEEEEE4grabINS2_IdLi1EiEEEEvRKT_ CODE
 0001:001dc8b0 00000023H .text$_ZN5Eigen22DiagonalPreconditionerIdE7computeINS_3RefIKNS_12SparseMatrixIdLi0EiEELi0ENS_11OuterStrideILin1EEEEEEERS1_RKT_ CODE
 0001:001dc8e0 0000001dH .text$_ZNK5Eigen19IterativeSolverBaseINS_8BiCGSTABINS_12SparseMatrixIdLi0EiEENS_22DiagonalPreconditionerIdEEEEE6matrixEv CODE
 0001:001dc900 00000009H .text$_ZN5Eigen22DiagonalPreconditionerIdE4infoEv CODE
 0001:001dc910 0000019aH .text$_ZN5Eigen22DiagonalPreconditionerIdE9factorizeINS_3RefIKNS_12SparseMatrixIdLi0EiEELi0ENS_11OuterStrideILin1EEEEEEERS1_RKT_ CODE
 0001:001dcab0 0000000bH .text$_ZNK5Eigen16SparseSolverBaseINS_8BiCGSTABINS_12SparseMatrixIdLi0EiEENS_22DiagonalPreconditionerIdEEEEE7derivedEv CODE
 0001:001dcac0 00000021H .text$_ZNK5Eigen19IterativeSolverBaseINS_8BiCGSTABINS_12SparseMatrixIdLi0EiEENS_22DiagonalPreconditionerIdEEEEE4rowsEv CODE
 0001:001dcaf0 0000002dH .text$_ZN5Eigen5SolveINS_8BiCGSTABINS_12SparseMatrixIdLi0EiEENS_22DiagonalPreconditionerIdEEEENS_6MatrixIdLin1ELi1ELi0ELin1ELi1EEEEC1ERKS6_RKS8_ CODE
 0001:001dcb20 0000003dH .text$_ZN5Eigen5SolveINS_8BiCGSTABINS_12SparseMatrixIdLi0EiEENS_22DiagonalPreconditionerIdEEEENS_6MatrixIdLin1ELi1ELi0ELin1ELi1EEEEC2ERKS6_RKS8_ CODE
 0001:001dcb60 00000019H .text$_ZN5Eigen9SolveImplINS_8BiCGSTABINS_12SparseMatrixIdLi0EiEENS_22DiagonalPreconditionerIdEEEENS_6MatrixIdLin1ELi1ELi0ELin1ELi1EEENS_5DenseEEC2Ev CODE
 0001:001dcb80 00000019H .text$_ZN5Eigen10MatrixBaseINS_5SolveINS_8BiCGSTABINS_12SparseMatrixIdLi0EiEENS_22DiagonalPreconditionerIdEEEENS_6MatrixIdLin1ELi1ELi0ELin1ELi1EEEEEEC2Ev CODE
 0001:001dcba0 00000007H .text$_ZN5Eigen9DenseBaseINS_5SolveINS_8BiCGSTABINS_12SparseMatrixIdLi0EiEENS_22DiagonalPreconditionerIdEEEENS_6MatrixIdLin1ELi1ELi0ELin1ELi1EEEEEEC2Ev CODE
 0001:001dcbb0 00000035H .text$_ZN5Eigen6MatrixIdLin1ELi1ELi0ELin1ELi1EEC2INS_5SolveINS_8BiCGSTABINS_12SparseMatrixIdLi0EiEENS_22DiagonalPreconditionerIdEEEES1_EEEERKNS_9EigenBaseIT_EE CODE
 0001:001dcbf0 0000000bH .text$_ZNK5Eigen9EigenBaseINS_5SolveINS_8BiCGSTABINS_12SparseMatrixIdLi0EiEENS_22DiagonalPreconditionerIdEEEENS_6MatrixIdLin1ELi1ELi0ELin1ELi1EEEEEE7derivedEv CODE
 0001:001dcc00 0000008cH .text$_ZN5Eigen15PlainObjectBaseINS_6MatrixIdLin1ELi1ELi0ELin1ELi1EEEEC2INS_5SolveINS_8BiCGSTABINS_12SparseMatrixIdLi0EiEENS_22DiagonalPreconditionerIdEEEES2_EEEERKNS_9DenseBaseIT_EE CODE
 0001:001dcc90 00000158H .text$_ZN5Eigen15PlainObjectBaseINS_6MatrixIdLin1ELi1ELi0ELin1ELi1EEEE10resizeLikeINS_5SolveINS_8BiCGSTABINS_12SparseMatrixIdLi0EiEENS_22DiagonalPreconditionerIdEEEES2_EEEEvRKNS_9EigenBaseIT_EE CODE
 0001:001dcdf0 0000005fH .text$_ZN5Eigen15PlainObjectBaseINS_6MatrixIdLin1ELi1ELi0ELin1ELi1EEEE12_set_noaliasINS_5SolveINS_8BiCGSTABINS_12SparseMatrixIdLi0EiEENS_22DiagonalPreconditionerIdEEEES2_EEEERS2_RKNS_9DenseBaseIT_EE CODE
 0001:001dce50 0000001cH .text$_ZNK5Eigen5SolveINS_8BiCGSTABINS_12SparseMatrixIdLi0EiEENS_22DiagonalPreconditionerIdEEEENS_6MatrixIdLin1ELi1ELi0ELin1ELi1EEEE4rowsEv CODE
 0001:001dce70 0000001dH .text$_ZNK5Eigen5SolveINS_8BiCGSTABINS_12SparseMatrixIdLi0EiEENS_22DiagonalPreconditionerIdEEEENS_6MatrixIdLin1ELi1ELi0ELin1ELi1EEEE4colsEv CODE
 0001:001dce90 00000021H .text$_ZNK5Eigen19IterativeSolverBaseINS_8BiCGSTABINS_12SparseMatrixIdLi0EiEENS_22DiagonalPreconditionerIdEEEEE4colsEv CODE
 0001:001dcec0 00000037H .text$_ZN5Eigen8internal24call_assignment_no_aliasINS_6MatrixIdLin1ELi1ELi0ELin1ELi1EEENS_5SolveINS_8BiCGSTABINS_12SparseMatrixIdLi0EiEENS_22DiagonalPreconditionerIdEEEES3_EENS0_9assign_opIddEEEEvRT_RKT0_RKT1_ CODE
 0001:001dcf00 000000a0H .text$_ZN5Eigen8internal10AssignmentINS_6MatrixIdLin1ELi1ELi0ELin1ELi1EEENS_5SolveINS_8BiCGSTABINS_12SparseMatrixIdLi0EiEENS_22DiagonalPreconditionerIdEEEES3_EENS0_9assign_opIddEENS0_11Dense2DenseEvE3runERS3_RKSB_RKSD_ CODE
 0001:001dcfa0 0000000eH .text$_ZNK5Eigen5SolveINS_8BiCGSTABINS_12SparseMatrixIdLi0EiEENS_22DiagonalPreconditionerIdEEEENS_6MatrixIdLin1ELi1ELi0ELin1ELi1EEEE3decEv CODE
 0001:001dcfb0 00000049H .text$_ZNK5Eigen19IterativeSolverBaseINS_8BiCGSTABINS_12SparseMatrixIdLi0EiEENS_22DiagonalPreconditionerIdEEEEE11_solve_implINS_6MatrixIdLin1ELi1ELi0ELin1ELi1EEESA_EEvRKT_RT0_ CODE
 0001:001dd000 0000000fH .text$_ZNK5Eigen5SolveINS_8BiCGSTABINS_12SparseMatrixIdLi0EiEENS_22DiagonalPreconditionerIdEEEENS_6MatrixIdLin1ELi1ELi0ELin1ELi1EEEE3rhsEv CODE
 0001:001dd010 0000004eH .text$_ZNK5Eigen19IterativeSolverBaseINS_8BiCGSTABINS_12SparseMatrixIdLi0EiEENS_22DiagonalPreconditionerIdEEEEE22_solve_with_guess_implINS_6MatrixIdLin1ELi1ELi0ELin1ELi1EEESA_EENS_8internal9enable_ifIXooeqsrT_17ColsAtCompileTimeLi1EeqsrT0_17ColsAtCompileTimeLi1EEvE4typeERKSD_RNS_10MatrixBaseISE_EE CODE
 0001:001dd060 000000d8H .text$_ZNK5Eigen8BiCGSTABINS_12SparseMatrixIdLi0EiEENS_22DiagonalPreconditionerIdEEE29_solve_vector_with_guess_implINS_6MatrixIdLin1ELi1ELi0ELin1ELi1EEES8_EEvRKT_RT0_ CODE
 0001:001dd140 0000005cH .text$_ZNK5Eigen19IterativeSolverBaseINS_8BiCGSTABINS_12SparseMatrixIdLi0EiEENS_22DiagonalPreconditionerIdEEEEE13maxIterationsEv CODE
 0001:001dd1a0 00000ba9H .text$_ZN5Eigen8internal8bicgstabINS_3RefIKNS_12SparseMatrixIdLi0EiEELi0ENS_11OuterStrideILin1EEEEENS_6MatrixIdLin1ELi1ELi0ELin1ELi1EEESA_NS_22DiagonalPreconditionerIdEEEEbRKT_RKT0_RT1_RKT2_RxRNSJ_10RealScalarE CODE
 0001:001ddd50 000000b6H .text$_ZNK5Eigen22DiagonalPreconditionerIdE5solveINS_6MatrixIdLin1ELi1ELi0ELin1ELi1EEEEEKNS_5SolveIS1_T_EERKNS_10MatrixBaseIS6_EE CODE
 0001:001dde10 00000023H .text$_ZN5Eigen6MatrixIdLin1ELi1ELi0ELin1ELi1EEaSINS_5SolveINS_22DiagonalPreconditionerIdEES1_EEEERS1_RKNS_9DenseBaseIT_EE CODE
 0001:001dde40 0000002dH .text$_ZN5Eigen5SolveINS_22DiagonalPreconditionerIdEENS_6MatrixIdLin1ELi1ELi0ELin1ELi1EEEEC1ERKS2_RKS4_ CODE
 0001:001dde70 0000003dH .text$_ZN5Eigen5SolveINS_22DiagonalPreconditionerIdEENS_6MatrixIdLin1ELi1ELi0ELin1ELi1EEEEC2ERKS2_RKS4_ CODE
 0001:001ddeb0 00000019H .text$_ZN5Eigen9SolveImplINS_22DiagonalPreconditionerIdEENS_6MatrixIdLin1ELi1ELi0ELin1ELi1EEENS_5DenseEEC2Ev CODE
 0001:001dded0 00000019H .text$_ZN5Eigen10MatrixBaseINS_5SolveINS_22DiagonalPreconditionerIdEENS_6MatrixIdLin1ELi1ELi0ELin1ELi1EEEEEEC2Ev CODE
 0001:001ddef0 00000007H .text$_ZN5Eigen9DenseBaseINS_5SolveINS_22DiagonalPreconditionerIdEENS_6MatrixIdLin1ELi1ELi0ELin1ELi1EEEEEEC2Ev CODE
 0001:001ddf00 00000049H .text$_ZN5Eigen15PlainObjectBaseINS_6MatrixIdLin1ELi1ELi0ELin1ELi1EEEE4_setINS_5SolveINS_22DiagonalPreconditionerIdEES2_EEEERS2_RKNS_9DenseBaseIT_EE CODE
 0001:001ddf50 0000004bH .text$_ZN5Eigen8internal15call_assignmentINS_6MatrixIdLin1ELi1ELi0ELin1ELi1EEENS_5SolveINS_22DiagonalPreconditionerIdEES3_EEEEvRT_RKT0_ CODE
 0001:001ddfa0 0000000bH .text$_ZNK5Eigen9EigenBaseINS_5SolveINS_22DiagonalPreconditionerIdEENS_6MatrixIdLin1ELi1ELi0ELin1ELi1EEEEEE7derivedEv CODE
 0001:001ddfb0 00000032H .text$_ZN5Eigen8internal15call_assignmentINS_6MatrixIdLin1ELi1ELi0ELin1ELi1EEENS_5SolveINS_22DiagonalPreconditionerIdEES3_EENS0_9assign_opIddEEEEvRT_RKT0_RKT1_NS0_9enable_ifIXntsr25evaluator_assume_aliasingISC_EE5valueEPvE4typeE CODE
 0001:001ddff0 00000037H .text$_ZN5Eigen8internal24call_assignment_no_aliasINS_6MatrixIdLin1ELi1ELi0ELin1ELi1EEENS_5SolveINS_22DiagonalPreconditionerIdEES3_EENS0_9assign_opIddEEEEvRT_RKT0_RKT1_ CODE
 0001:001de030 000000a0H .text$_ZN5Eigen8internal10AssignmentINS_6MatrixIdLin1ELi1ELi0ELin1ELi1EEENS_5SolveINS_22DiagonalPreconditionerIdEES3_EENS0_9assign_opIddEENS0_11Dense2DenseEvE3runERS3_RKS7_RKS9_ CODE
 0001:001de0d0 0000001cH .text$_ZNK5Eigen5SolveINS_22DiagonalPreconditionerIdEENS_6MatrixIdLin1ELi1ELi0ELin1ELi1EEEE4rowsEv CODE
 0001:001de0f0 0000001dH .text$_ZNK5Eigen5SolveINS_22DiagonalPreconditionerIdEENS_6MatrixIdLin1ELi1ELi0ELin1ELi1EEEE4colsEv CODE
 0001:001de110 0000000eH .text$_ZNK5Eigen5SolveINS_22DiagonalPreconditionerIdEENS_6MatrixIdLin1ELi1ELi0ELin1ELi1EEEE3decEv CODE
 0001:001de120 0000005aH .text$_ZNK5Eigen22DiagonalPreconditionerIdE11_solve_implINS_6MatrixIdLin1ELi1ELi0ELin1ELi1EEES4_EEvRKT_RT0_ CODE
 0001:001de180 0000000fH .text$_ZNK5Eigen5SolveINS_22DiagonalPreconditionerIdEENS_6MatrixIdLin1ELi1ELi0ELin1ELi1EEEE3rhsEv CODE
 0001:001de190 00000019H .text$_ZNK5Eigen22DiagonalPreconditionerIdE4colsEv CODE
 0001:001de1b0 0000002aH .text$_ZNK5Eigen10MatrixBaseINS_6MatrixIdLin1ELi1ELi0ELin1ELi1EEEE5arrayEv CODE
 0001:001de1e0 0000006bH .text$_ZNK5Eigen9ArrayBaseINS_12ArrayWrapperIKNS_6MatrixIdLin1ELi1ELi0ELin1ELi1EEEEEEmlIS5_EEKNS_13CwiseBinaryOpINS_8internal17scalar_product_opIdNS9_6traitsIT_E6ScalarEEEKS5_KSC_EERKNS0_ISC_EE CODE
 0001:001de250 00000023H .text$_ZN5Eigen6MatrixIdLin1ELi1ELi0ELin1ELi1EEaSINS_13CwiseBinaryOpINS_8internal17scalar_product_opIddEEKNS_12ArrayWrapperIKS1_EESA_EEEERS1_RKNS_9DenseBaseIT_EE CODE
 0001:001de280 00000023H .text$_ZN5Eigen12ArrayWrapperIKNS_6MatrixIdLin1ELi1ELi0ELin1ELi1EEEEC1ERS3_ CODE
 0001:001de2b0 0000002fH .text$_ZN5Eigen12ArrayWrapperIKNS_6MatrixIdLin1ELi1ELi0ELin1ELi1EEEEC2ERS3_ CODE
 0001:001de2e0 00000019H .text$_ZN5Eigen9ArrayBaseINS_12ArrayWrapperIKNS_6MatrixIdLin1ELi1ELi0ELin1ELi1EEEEEEC2Ev CODE
 0001:001de300 00000007H .text$_ZN5Eigen9DenseBaseINS_12ArrayWrapperIKNS_6MatrixIdLin1ELi1ELi0ELin1ELi1EEEEEEC2Ev CODE
 0001:001de310 0000000bH .text$_ZNK5Eigen9EigenBaseINS_12ArrayWrapperIKNS_6MatrixIdLin1ELi1ELi0ELin1ELi1EEEEEE7derivedEv CODE
 0001:001de320 00000037H .text$_ZN5Eigen13CwiseBinaryOpINS_8internal17scalar_product_opIddEEKNS_12ArrayWrapperIKNS_6MatrixIdLin1ELi1ELi0ELin1ELi1EEEEES9_EC1ERS9_SB_RKS3_ CODE
 0001:001de360 000000c4H .text$_ZN5Eigen13CwiseBinaryOpINS_8internal17scalar_product_opIddEEKNS_12ArrayWrapperIKNS_6MatrixIdLin1ELi1ELi0ELin1ELi1EEEEES9_EC2ERS9_SB_RKS3_ CODE
 0001:001de430 00000019H .text$_ZN5Eigen17CwiseBinaryOpImplINS_8internal17scalar_product_opIddEEKNS_12ArrayWrapperIKNS_6MatrixIdLin1ELi1ELi0ELin1ELi1EEEEES9_NS_5DenseEEC2Ev CODE
 0001:001de450 0000001cH .text$_ZNK5Eigen12ArrayWrapperIKNS_6MatrixIdLin1ELi1ELi0ELin1ELi1EEEE4rowsEv CODE
 0001:001de470 0000001cH .text$_ZNK5Eigen12ArrayWrapperIKNS_6MatrixIdLin1ELi1ELi0ELin1ELi1EEEE4colsEv CODE
 0001:001de490 00000019H .text$_ZN5Eigen9ArrayBaseINS_13CwiseBinaryOpINS_8internal17scalar_product_opIddEEKNS_12ArrayWrapperIKNS_6MatrixIdLin1ELi1ELi0ELin1ELi1EEEEESA_EEEC2Ev CODE
 0001:001de4b0 00000007H .text$_ZN5Eigen9DenseBaseINS_13CwiseBinaryOpINS_8internal17scalar_product_opIddEEKNS_12ArrayWrapperIKNS_6MatrixIdLin1ELi1ELi0ELin1ELi1EEEEESA_EEEC2Ev CODE
 0001:001de4c0 00000049H .text$_ZN5Eigen15PlainObjectBaseINS_6MatrixIdLin1ELi1ELi0ELin1ELi1EEEE4_setINS_13CwiseBinaryOpINS_8internal17scalar_product_opIddEEKNS_12ArrayWrapperIKS2_EESC_EEEERS2_RKNS_9DenseBaseIT_EE CODE
 0001:001de510 0000004bH .text$_ZN5Eigen8internal15call_assignmentINS_6MatrixIdLin1ELi1ELi0ELin1ELi1EEENS_13CwiseBinaryOpINS0_17scalar_product_opIddEEKNS_12ArrayWrapperIKS3_EESA_EEEEvRT_RKT0_ CODE
 0001:001de560 0000000bH .text$_ZNK5Eigen9EigenBaseINS_13CwiseBinaryOpINS_8internal17scalar_product_opIddEEKNS_12ArrayWrapperIKNS_6MatrixIdLin1ELi1ELi0ELin1ELi1EEEEESA_EEE7derivedEv CODE
 0001:001de570 00000032H .text$_ZN5Eigen8internal15call_assignmentINS_6MatrixIdLin1ELi1ELi0ELin1ELi1EEENS_13CwiseBinaryOpINS0_17scalar_product_opIddEEKNS_12ArrayWrapperIKS3_EESA_EENS0_9assign_opIddEEEEvRT_RKT0_RKT1_NS0_9enable_ifIXntsr25evaluator_assume_aliasingISG_EE5valueEPvE4typeE CODE
 0001:001de5b0 00000037H .text$_ZN5Eigen8internal24call_assignment_no_aliasINS_6MatrixIdLin1ELi1ELi0ELin1ELi1EEENS_13CwiseBinaryOpINS0_17scalar_product_opIddEEKNS_12ArrayWrapperIKS3_EESA_EENS0_9assign_opIddEEEEvRT_RKT0_RKT1_ CODE
 0001:001de5f0 0000003cH .text$_ZN5Eigen8internal10AssignmentINS_6MatrixIdLin1ELi1ELi0ELin1ELi1EEENS_13CwiseBinaryOpINS0_17scalar_product_opIddEEKNS_12ArrayWrapperIKS3_EESA_EENS0_9assign_opIddEENS0_11Dense2DenseEvE3runERS3_RKSB_RKSD_ CODE
 0001:001de630 00000012H .text$_ZN5Eigen8internal18check_for_aliasingINS_6MatrixIdLin1ELi1ELi0ELin1ELi1EEENS_13CwiseBinaryOpINS0_17scalar_product_opIddEEKNS_12ArrayWrapperIKS3_EESA_EEEEvRKT_RKT0_ CODE
 0001:001de650 00000118H .text$_ZN5Eigen8internal26call_dense_assignment_loopINS_6MatrixIdLin1ELi1ELi0ELin1ELi1EEENS_13CwiseBinaryOpINS0_17scalar_product_opIddEEKNS_12ArrayWrapperIKS3_EESA_EENS0_9assign_opIddEEEEvRT_RKT0_RKT1_ CODE
 0001:001de770 00000023H .text$_ZN5Eigen8internal9evaluatorINS_13CwiseBinaryOpINS0_17scalar_product_opIddEEKNS_12ArrayWrapperIKNS_6MatrixIdLin1ELi1ELi0ELin1ELi1EEEEESA_EEEC1ERKSB_ CODE
 0001:001de7a0 000000b8H .text$_ZN5Eigen8internal17resize_if_allowedINS_6MatrixIdLin1ELi1ELi0ELin1ELi1EEENS_13CwiseBinaryOpINS0_17scalar_product_opIddEEKNS_12ArrayWrapperIKS3_EESA_EEddEEvRT_RKT0_RKNS0_9assign_opIT1_T2_EE CODE
 0001:001de860 00000046H .text$_ZN5Eigen8internal31generic_dense_assignment_kernelINS0_9evaluatorINS_6MatrixIdLin1ELi1ELi0ELin1ELi1EEEEENS2_INS_13CwiseBinaryOpINS0_17scalar_product_opIddEEKNS_12ArrayWrapperIKS4_EESC_EEEENS0_9assign_opIddEELi0EEC1ERS5_RKSE_RKSG_RS4_ CODE
 0001:001de8b0 000000a8H .text$_ZN5Eigen8internal21dense_assignment_loopINS0_31generic_dense_assignment_kernelINS0_9evaluatorINS_6MatrixIdLin1ELi1ELi0ELin1ELi1EEEEENS3_INS_13CwiseBinaryOpINS0_17scalar_product_opIddEEKNS_12ArrayWrapperIKS5_EESD_EEEENS0_9assign_opIddEELi0EEELi3ELi0EE3runERSI_ CODE
 0001:001de960 00000019H .text$_ZN5Eigen8internal9evaluatorINS_13CwiseBinaryOpINS0_17scalar_product_opIddEEKNS_12ArrayWrapperIKNS_6MatrixIdLin1ELi1ELi0ELin1ELi1EEEEESA_EEED1Ev CODE
 0001:001de980 00000023H .text$_ZN5Eigen8internal9evaluatorINS_13CwiseBinaryOpINS0_17scalar_product_opIddEEKNS_12ArrayWrapperIKNS_6MatrixIdLin1ELi1ELi0ELin1ELi1EEEEESA_EEEC2ERKSB_ CODE
 0001:001de9b0 00000061H .text$_ZN5Eigen8internal16binary_evaluatorINS_13CwiseBinaryOpINS0_17scalar_product_opIddEEKNS_12ArrayWrapperIKNS_6MatrixIdLin1ELi1ELi0ELin1ELi1EEEEESA_EENS0_10IndexBasedESC_ddEC2ERKSB_ CODE
 0001:001dea20 00000007H .text$_ZN5Eigen8internal14evaluator_baseINS_13CwiseBinaryOpINS0_17scalar_product_opIddEEKNS_12ArrayWrapperIKNS_6MatrixIdLin1ELi1ELi0ELin1ELi1EEEEESA_EEEC2Ev CODE
 0001:001dea30 00000023H .text$_ZN5Eigen8internal16binary_evaluatorINS_13CwiseBinaryOpINS0_17scalar_product_opIddEEKNS_12ArrayWrapperIKNS_6MatrixIdLin1ELi1ELi0ELin1ELi1EEEEESA_EENS0_10IndexBasedESC_ddE4DataC1ERKSB_ CODE
 0001:001dea60 00000007H .text$_ZN5Eigen8internal14evaluator_baseINS_13CwiseBinaryOpINS0_17scalar_product_opIddEEKNS_12ArrayWrapperIKNS_6MatrixIdLin1ELi1ELi0ELin1ELi1EEEEESA_EEED2Ev CODE
 0001:001dea70 000000baH .text$_ZN5Eigen8internal16binary_evaluatorINS_13CwiseBinaryOpINS0_17scalar_product_opIddEEKNS_12ArrayWrapperIKNS_6MatrixIdLin1ELi1ELi0ELin1ELi1EEEEESA_EENS0_10IndexBasedESC_ddE4DataC2ERKSB_ CODE
 0001:001deb30 0000000fH .text$_ZNK5Eigen13CwiseBinaryOpINS_8internal17scalar_product_opIddEEKNS_12ArrayWrapperIKNS_6MatrixIdLin1ELi1ELi0ELin1ELi1EEEEES9_E7functorEv CODE
 0001:001deb40 0000000bH .text$_ZNK5Eigen13CwiseBinaryOpINS_8internal17scalar_product_opIddEEKNS_12ArrayWrapperIKNS_6MatrixIdLin1ELi1ELi0ELin1ELi1EEEEES9_E3lhsEv CODE
 0001:001deb50 00000023H .text$_ZN5Eigen8internal9evaluatorIKNS_12ArrayWrapperIKNS_6MatrixIdLin1ELi1ELi0ELin1ELi1EEEEEEC1ERS7_ CODE
 0001:001deb80 0000000fH .text$_ZNK5Eigen13CwiseBinaryOpINS_8internal17scalar_product_opIddEEKNS_12ArrayWrapperIKNS_6MatrixIdLin1ELi1ELi0ELin1ELi1EEEEES9_E3rhsEv CODE
 0001:001deb90 00000019H .text$_ZN5Eigen8internal9evaluatorIKNS_12ArrayWrapperIKNS_6MatrixIdLin1ELi1ELi0ELin1ELi1EEEEEED1Ev CODE
 0001:001debb0 00000023H .text$_ZN5Eigen8internal9evaluatorIKNS_12ArrayWrapperIKNS_6MatrixIdLin1ELi1ELi0ELin1ELi1EEEEEEC2ERS7_ CODE
 0001:001debe0 00000023H .text$_ZN5Eigen8internal9evaluatorINS_12ArrayWrapperIKNS_6MatrixIdLin1ELi1ELi0ELin1ELi1EEEEEEC2ERKS6_ CODE
 0001:001dec10 00000035H .text$_ZN5Eigen8internal15unary_evaluatorINS_12ArrayWrapperIKNS_6MatrixIdLin1ELi1ELi0ELin1ELi1EEEEENS0_10IndexBasedEdEC2ERKS6_ CODE
 0001:001dec50 0000000eH .text$_ZNK5Eigen12ArrayWrapperIKNS_6MatrixIdLin1ELi1ELi0ELin1ELi1EEEE16nestedExpressionEv CODE
 0001:001dec60 00000061H .text$_ZN5Eigen8internal22evaluator_wrapper_baseINS_12ArrayWrapperIKNS_6MatrixIdLin1ELi1ELi0ELin1ELi1EEEEEEC2ERS5_ CODE
 0001:001decd0 00000007H .text$_ZN5Eigen8internal14evaluator_baseINS_12ArrayWrapperIKNS_6MatrixIdLin1ELi1ELi0ELin1ELi1EEEEEEC2Ev CODE
 0001:001dece0 00000007H .text$_ZN5Eigen8internal14evaluator_baseINS_12ArrayWrapperIKNS_6MatrixIdLin1ELi1ELi0ELin1ELi1EEEEEED2Ev CODE
 0001:001decf0 00000019H .text$_ZN5Eigen8internal9evaluatorIKNS_12ArrayWrapperIKNS_6MatrixIdLin1ELi1ELi0ELin1ELi1EEEEEED2Ev CODE
 0001:001ded10 00000019H .text$_ZN5Eigen8internal9evaluatorINS_12ArrayWrapperIKNS_6MatrixIdLin1ELi1ELi0ELin1ELi1EEEEEED2Ev CODE
 0001:001ded30 00000019H .text$_ZN5Eigen8internal15unary_evaluatorINS_12ArrayWrapperIKNS_6MatrixIdLin1ELi1ELi0ELin1ELi1EEEEENS0_10IndexBasedEdED2Ev CODE
 0001:001ded50 00000028H .text$_ZN5Eigen8internal22evaluator_wrapper_baseINS_12ArrayWrapperIKNS_6MatrixIdLin1ELi1ELi0ELin1ELi1EEEEEED2Ev CODE
 0001:001ded80 0000001dH .text$_ZNK5Eigen13CwiseBinaryOpINS_8internal17scalar_product_opIddEEKNS_12ArrayWrapperIKNS_6MatrixIdLin1ELi1ELi0ELin1ELi1EEEEES9_E4rowsEv CODE
 0001:001deda0 00000019H .text$_ZNK5Eigen13CwiseBinaryOpINS_8internal17scalar_product_opIddEEKNS_12ArrayWrapperIKNS_6MatrixIdLin1ELi1ELi0ELin1ELi1EEEEES9_E4colsEv CODE
 0001:001dedc0 00000048H .text$_ZN5Eigen8internal31generic_dense_assignment_kernelINS0_9evaluatorINS_6MatrixIdLin1ELi1ELi0ELin1ELi1EEEEENS2_INS_13CwiseBinaryOpINS0_17scalar_product_opIddEEKNS_12ArrayWrapperIKS4_EESC_EEEENS0_9assign_opIddEELi0EEC2ERS5_RKSE_RKSG_RS4_ CODE
 0001:001dee10 0000001dH .text$_ZNK5Eigen8internal31generic_dense_assignment_kernelINS0_9evaluatorINS_6MatrixIdLin1ELi1ELi0ELin1ELi1EEEEENS2_INS_13CwiseBinaryOpINS0_17scalar_product_opIddEEKNS_12ArrayWrapperIKS4_EESC_EEEENS0_9assign_opIddEELi0EE4sizeEv CODE
 0001:001dee30 00000017H .text$_ZN5Eigen8internal31unaligned_dense_assignment_loopILb1EE3runINS0_31generic_dense_assignment_kernelINS0_9evaluatorINS_6MatrixIdLin1ELi1ELi0ELin1ELi1EEEEENS5_INS_13CwiseBinaryOpINS0_17scalar_product_opIddEEKNS_12ArrayWrapperIKS7_EESF_EEEENS0_9assign_opIddEELi0EEEEEvRT_xx CODE
 0001:001dee50 00000069H .text$_ZN5Eigen8internal31generic_dense_assignment_kernelINS0_9evaluatorINS_6MatrixIdLin1ELi1ELi0ELin1ELi1EEEEENS2_INS_13CwiseBinaryOpINS0_17scalar_product_opIddEEKNS_12ArrayWrapperIKS4_EESC_EEEENS0_9assign_opIddEELi0EE12assignPacketILi16ELi16EDv2_dEEvx CODE
 0001:001deec0 00000054H .text$_ZN5Eigen8internal31unaligned_dense_assignment_loopILb0EE3runINS0_31generic_dense_assignment_kernelINS0_9evaluatorINS_6MatrixIdLin1ELi1ELi0ELin1ELi1EEEEENS5_INS_13CwiseBinaryOpINS0_17scalar_product_opIddEEKNS_12ArrayWrapperIKS7_EESF_EEEENS0_9assign_opIddEELi0EEEEEvRT_xx CODE
 0001:001def20 0000006eH .text$_ZNK5Eigen8internal16binary_evaluatorINS_13CwiseBinaryOpINS0_17scalar_product_opIddEEKNS_12ArrayWrapperIKNS_6MatrixIdLin1ELi1ELi0ELin1ELi1EEEEESA_EENS0_10IndexBasedESC_ddE6packetILi16EDv2_dEET0_x CODE
 0001:001def90 0000000bH .text$_ZNK5Eigen8internal16binary_evaluatorINS_13CwiseBinaryOpINS0_17scalar_product_opIddEEKNS_12ArrayWrapperIKNS_6MatrixIdLin1ELi1ELi0ELin1ELi1EEEEESA_EENS0_10IndexBasedESC_ddE4Data4funcEv CODE
 0001:001defa0 00000023H .text$_ZNK5Eigen8internal22evaluator_wrapper_baseINS_12ArrayWrapperIKNS_6MatrixIdLin1ELi1ELi0ELin1ELi1EEEEEE6packetILi16EDv2_dEET0_x CODE
 0001:001defd0 00000069H .text$_ZN5Eigen8internal31generic_dense_assignment_kernelINS0_9evaluatorINS_6MatrixIdLin1ELi1ELi0ELin1ELi1EEEEENS2_INS_13CwiseBinaryOpINS0_17scalar_product_opIddEEKNS_12ArrayWrapperIKS4_EESC_EEEENS0_9assign_opIddEELi0EE11assignCoeffEx CODE
 0001:001df040 00000065H .text$_ZNK5Eigen8internal16binary_evaluatorINS_13CwiseBinaryOpINS0_17scalar_product_opIddEEKNS_12ArrayWrapperIKNS_6MatrixIdLin1ELi1ELi0ELin1ELi1EEEEESA_EENS0_10IndexBasedESC_ddE5coeffEx CODE
 0001:001df0b0 00000023H .text$_ZNK5Eigen8internal22evaluator_wrapper_baseINS_12ArrayWrapperIKNS_6MatrixIdLin1ELi1ELi0ELin1ELi1EEEEEE5coeffEx CODE
 0001:001df0e0 00000019H .text$_ZN5Eigen8internal9evaluatorINS_13CwiseBinaryOpINS0_17scalar_product_opIddEEKNS_12ArrayWrapperIKNS_6MatrixIdLin1ELi1ELi0ELin1ELi1EEEEESA_EEED2Ev CODE
 0001:001df100 00000028H .text$_ZN5Eigen8internal16binary_evaluatorINS_13CwiseBinaryOpINS0_17scalar_product_opIddEEKNS_12ArrayWrapperIKNS_6MatrixIdLin1ELi1ELi0ELin1ELi1EEEEESA_EENS0_10IndexBasedESC_ddED2Ev CODE
 0001:001df130 00000019H .text$_ZN5Eigen8internal16binary_evaluatorINS_13CwiseBinaryOpINS0_17scalar_product_opIddEEKNS_12ArrayWrapperIKNS_6MatrixIdLin1ELi1ELi0ELin1ELi1EEEEESA_EENS0_10IndexBasedESC_ddE4DataD1Ev CODE
 0001:001df150 00000030H .text$_ZN5Eigen8internal16binary_evaluatorINS_13CwiseBinaryOpINS0_17scalar_product_opIddEEKNS_12ArrayWrapperIKNS_6MatrixIdLin1ELi1ELi0ELin1ELi1EEEEESA_EENS0_10IndexBasedESC_ddE4DataD2Ev CODE
 0001:001df180 00000019H .text$_ZN5Eigen8BiCGSTABINS_12SparseMatrixIdLi0EiEENS_22DiagonalPreconditionerIdEEED2Ev CODE
 0001:001df1a0 0000003dH .text$_ZN5Eigen19IterativeSolverBaseINS_8BiCGSTABINS_12SparseMatrixIdLi0EiEENS_22DiagonalPreconditionerIdEEEEED2Ev CODE
 0001:001df1e0 00000019H .text$_ZN5Eigen14SimplicialLDLTINS_12SparseMatrixIdLi0EiEELi1ENS_11AMDOrderingIiEEEC1Ev CODE
 0001:001df200 0000005aH .text$_ZN5Eigen12SparseMatrixIdLi0EiE15setFromTripletsINSt3__111__wrap_iterIPNS_7TripletIdiEEEEEEvRKT_SB_ CODE
 0001:001df260 00000019H .text$_ZN5Eigen14SimplicialLDLTINS_12SparseMatrixIdLi0EiEELi1ENS_11AMDOrderingIiEEED1Ev CODE
 0001:001df280 00000019H .text$_ZN5Eigen14SimplicialLDLTINS_12SparseMatrixIdLi0EiEELi1ENS_11AMDOrderingIiEEEC2Ev CODE
 0001:001df2a0 00000199H .text$_ZN5Eigen22SimplicialCholeskyBaseINS_14SimplicialLDLTINS_12SparseMatrixIdLi0EiEELi1ENS_11AMDOrderingIiEEEEEC2Ev CODE
 0001:001df440 00000025H .text$_ZN5Eigen16SparseSolverBaseINS_14SimplicialLDLTINS_12SparseMatrixIdLi0EiEELi1ENS_11AMDOrderingIiEEEEEC2Ev CODE
 0001:001df470 00000019H .text$_ZN5Eigen16SparseSolverBaseINS_14SimplicialLDLTINS_12SparseMatrixIdLi0EiEELi1ENS_11AMDOrderingIiEEEEED2Ev CODE
 0001:001df490 000003b5H .text$_ZN5Eigen8internal17set_from_tripletsINSt3__111__wrap_iterIPNS_7TripletIdiEEEENS_12SparseMatrixIdLi0EiEENS0_13scalar_sum_opIddEEEEvRKT_SE_RT0_T1_ CODE
 0001:001df850 0000003cH .text$_ZN5Eigen12SparseMatrixIdLi1EiE7reserveINS_6MatrixIiLin1ELi1ELi0ELin1ELi1EEEEEvRKT_RKNS5_10value_typeE CODE
 0001:001df890 00000121H .text$_ZN5Eigen12SparseMatrixIdLi1EiE22insertBackUncompressedExx CODE
 0001:001df9c0 00000423H .text$_ZN5Eigen12SparseMatrixIdLi1EiE18collapseDuplicatesINS_8internal13scalar_sum_opIddEEEEvT_ CODE
 0001:001dfdf0 0000066aH .text$_ZN5Eigen12SparseMatrixIdLi1EiE19reserveInnerVectorsINS_6MatrixIiLin1ELi1ELi0ELin1ELi1EEEEEvRKT_ CODE
 0001:001e0460 00000019H .text$_ZN5Eigen16SparseMatrixBaseINS_12SparseMatrixIdLi1EiEEE13convert_indexEx CODE
 0001:001e0480 0000000fH .text$_ZNK5Eigen12SparseMatrixIdLi1EiE9innerSizeEv CODE
 0001:001e0490 00000019H .text$_ZN5Eigen14SimplicialLDLTINS_12SparseMatrixIdLi0EiEELi1ENS_11AMDOrderingIiEEED2Ev CODE
 0001:001e04b0 00000078H .text$_ZN5Eigen22SimplicialCholeskyBaseINS_14SimplicialLDLTINS_12SparseMatrixIdLi0EiEELi1ENS_11AMDOrderingIiEEEEED2Ev CODE
 0001:001e0530 00000019H .text$_ZN5Eigen8internal8FixedIntILi1EEC1Ev CODE
 0001:001e0550 00000007H .text$_ZN5Eigen8internal8FixedIntILi1EEC2Ev CODE
 0001:001e0560 0000186cH .text                   CODE
 0001:001e1dd0 0000000bH .text$_ZSt14get_unexpectedv CODE
 0001:001e1de0 00000045H .text$_ZSt9terminatev   CODE
 0001:001e1e30 00000013H .text$_ZSt12__unexpectedPFvvE CODE
 0001:001e1e50 00000014H .text$_ZSt10unexpectedv CODE
 0001:001e1e70 0000000bH .text$_ZSt13get_terminatev CODE
 0001:001e1e80 0000002fH .text$_ZSt11__terminatePFvvE CODE
 0001:001e1eb0 0000000bH .text$_ZSt15get_new_handlerv CODE
 0001:001e1ebc 00000000H .text                   CODE
 0001:001e1ec0 00000001H .text$_ZNSt9exceptionD2Ev CODE
 0001:001e1ed0 00000005H .text$_ZNSt9exceptionD0Ev CODE
 0001:001e1ee0 00000008H .text$_ZNKSt9exception4whatEv CODE
 0001:001e1ef0 00000005H .text$_ZNSt13bad_exceptionD0Ev CODE
 0001:001e1f00 00000008H .text$_ZNKSt13bad_exception4whatEv CODE
 0001:001e1f10 0000000bH .text$_ZNSt9bad_allocC2Ev CODE
 0001:001e1f20 00000005H .text$_ZNSt9bad_allocD0Ev CODE
 0001:001e1f30 00000008H .text$_ZNKSt9bad_alloc4whatEv CODE
 0001:001e1f40 0000000bH .text$_ZNSt20bad_array_new_lengthC2Ev CODE
 0001:001e1f50 00000005H .text$_ZNSt20bad_array_new_lengthD0Ev CODE
 0001:001e1f60 00000008H .text$_ZNKSt20bad_array_new_length4whatEv CODE
 0001:001e1f68 00000000H .text                   CODE
 0001:001e1f70 0000003aH .text$_ZNSt11logic_errorD2Ev CODE
 0001:001e1fb0 00000042H .text$_ZNSt11logic_errorD0Ev CODE
 0001:001e2000 00000005H .text$_ZNKSt11logic_error4whatEv CODE
 0001:001e2010 0000003aH .text$_ZNSt13runtime_errorD2Ev CODE
 0001:001e2050 00000042H .text$_ZNSt13runtime_errorD0Ev CODE
 0001:001e20a0 00000005H .text$_ZNKSt13runtime_error4whatEv CODE
 0001:001e20b0 00000042H .text$_ZNSt12domain_errorD0Ev CODE
 0001:001e2100 00000042H .text$_ZNSt16invalid_argumentD0Ev CODE
 0001:001e2150 00000042H .text$_ZNSt12length_errorD0Ev CODE
 0001:001e21a0 00000042H .text$_ZNSt12out_of_rangeD0Ev CODE
 0001:001e21f0 00000042H .text$_ZNSt11range_errorD0Ev CODE
 0001:001e2240 00000042H .text$_ZNSt14overflow_errorD0Ev CODE
 0001:001e2290 00000042H .text$_ZNSt15underflow_errorD0Ev CODE
 0001:001e22d4 00000000H .text                   CODE
 0001:001e22e0 00000005H .text$_ZN10__cxxabiv116__shim_type_infoD2Ev CODE
 0001:001e22f0 00000002H .text$_ZN10__cxxabiv116__shim_type_infoD0Ev CODE
 0001:001e2300 00000001H .text$_ZNK10__cxxabiv116__shim_type_info5noop1Ev CODE
 0001:001e2310 00000001H .text$_ZNK10__cxxabiv116__shim_type_info5noop2Ev CODE
 0001:001e2320 0000001aH .text$_ZN10__cxxabiv123__fundamental_type_infoD0Ev CODE
 0001:001e2340 0000001aH .text$_ZN10__cxxabiv117__array_type_infoD0Ev CODE
 0001:001e2360 0000001aH .text$_ZN10__cxxabiv120__function_type_infoD0Ev CODE
 0001:001e2380 0000001aH .text$_ZN10__cxxabiv116__enum_type_infoD0Ev CODE
 0001:001e23a0 0000001aH .text$_ZN10__cxxabiv117__class_type_infoD0Ev CODE
 0001:001e23c0 0000001aH .text$_ZN10__cxxabiv120__si_class_type_infoD0Ev CODE
 0001:001e23e0 0000001aH .text$_ZN10__cxxabiv121__vmi_class_type_infoD0Ev CODE
 0001:001e2400 0000001aH .text$_ZN10__cxxabiv117__pbase_type_infoD0Ev CODE
 0001:001e2420 0000001aH .text$_ZN10__cxxabiv119__pointer_type_infoD0Ev CODE
 0001:001e2440 0000001aH .text$_ZN10__cxxabiv129__pointer_to_member_type_infoD0Ev CODE
 0001:001e2460 00000027H .text$_ZNK10__cxxabiv123__fundamental_type_info9can_catchEPKNS_16__shim_type_infoERPv CODE
 0001:001e2490 00000003H .text$_ZNK10__cxxabiv117__array_type_info9can_catchEPKNS_16__shim_type_infoERPv CODE
 0001:001e24a0 00000003H .text$_ZNK10__cxxabiv120__function_type_info9can_catchEPKNS_16__shim_type_infoERPv CODE
 0001:001e24b0 00000027H .text$_ZNK10__cxxabiv116__enum_type_info9can_catchEPKNS_16__shim_type_infoERPv CODE
 0001:001e24e0 000000bfH .text$_ZNK10__cxxabiv117__class_type_info9can_catchEPKNS_16__shim_type_infoERPv CODE
 0001:001e25a0 00000108H .text$__dynamic_cast    CODE
 0001:001e26b0 00000038H .text$_ZNK10__cxxabiv117__class_type_info24process_found_base_classEPNS_19__dynamic_cast_infoEPvi CODE
 0001:001e26f0 00000069H .text$_ZNK10__cxxabiv117__class_type_info27has_unambiguous_public_baseEPNS_19__dynamic_cast_infoEPvi CODE
 0001:001e2760 0000008dH .text$_ZNK10__cxxabiv120__si_class_type_info27has_unambiguous_public_baseEPNS_19__dynamic_cast_infoEPvi CODE
 0001:001e27f0 00000041H .text$_ZNK10__cxxabiv122__base_class_type_info27has_unambiguous_public_baseEPNS_19__dynamic_cast_infoEPvi CODE
 0001:001e2840 0000017aH .text$_ZNK10__cxxabiv121__vmi_class_type_info27has_unambiguous_public_baseEPNS_19__dynamic_cast_infoEPvi CODE
 0001:001e29c0 00000074H .text$_ZNK10__cxxabiv117__pbase_type_info9can_catchEPKNS_16__shim_type_infoERPv CODE
 0001:001e2a40 000002b0H .text$_ZNK10__cxxabiv119__pointer_type_info9can_catchEPKNS_16__shim_type_infoERPv CODE
 0001:001e2cf0 000000eeH .text$_ZNK10__cxxabiv119__pointer_type_info16can_catch_nestedEPKNS_16__shim_type_infoE CODE
 0001:001e2de0 00000090H .text$_ZNK10__cxxabiv129__pointer_to_member_type_info16can_catch_nestedEPKNS_16__shim_type_infoE CODE
 0001:001e2e70 00000164H .text$_ZNK10__cxxabiv129__pointer_to_member_type_info9can_catchEPKNS_16__shim_type_infoERPv CODE
 0001:001e2fe0 0000005eH .text$_ZNK10__cxxabiv117__class_type_info29process_static_type_above_dstEPNS_19__dynamic_cast_infoEPKvS4_i CODE
 0001:001e3040 00000012H .text$_ZNK10__cxxabiv117__class_type_info29process_static_type_below_dstEPNS_19__dynamic_cast_infoEPKvi CODE
 0001:001e3060 00000367H .text$_ZNK10__cxxabiv121__vmi_class_type_info16search_below_dstEPNS_19__dynamic_cast_infoEPKvib CODE
 0001:001e33d0 00000050H .text$_ZNK10__cxxabiv122__base_class_type_info16search_above_dstEPNS_19__dynamic_cast_infoEPKvS4_ib CODE
 0001:001e3420 00000037H .text$_ZNK10__cxxabiv122__base_class_type_info16search_below_dstEPNS_19__dynamic_cast_infoEPKvib CODE
 0001:001e3460 0000014aH .text$_ZNK10__cxxabiv120__si_class_type_info16search_below_dstEPNS_19__dynamic_cast_infoEPKvib CODE
 0001:001e35b0 000000e7H .text$_ZNK10__cxxabiv117__class_type_info16search_below_dstEPNS_19__dynamic_cast_infoEPKvib CODE
 0001:001e36a0 000001f9H .text$_ZNK10__cxxabiv121__vmi_class_type_info16search_above_dstEPNS_19__dynamic_cast_infoEPKvS4_ib CODE
 0001:001e38a0 000000ceH .text$_ZNK10__cxxabiv120__si_class_type_info16search_above_dstEPNS_19__dynamic_cast_infoEPKvS4_ib CODE
 0001:001e3970 000000a4H .text$_ZNK10__cxxabiv117__class_type_info16search_above_dstEPNS_19__dynamic_cast_infoEPKvS4_ib CODE
 0001:001e3a14 00000000H .text                   CODE
 0001:001e3a20 0000006bH .text$_Znwy             CODE
 0001:001e3a90 0000002cH .text$_ZnwyRKSt9nothrow_t CODE
 0001:001e3ac0 00000005H .text$_Znay             CODE
 0001:001e3ad0 0000002cH .text$_ZnayRKSt9nothrow_t CODE
 0001:001e3b00 00000005H .text$_ZdlPv            CODE
 0001:001e3b10 00000005H .text$_ZdlPvRKSt9nothrow_t CODE
 0001:001e3b20 00000005H .text$_ZdlPvy           CODE
 0001:001e3b30 00000005H .text$_ZdaPv            CODE
 0001:001e3b40 00000005H .text$_ZdaPvRKSt9nothrow_t CODE
 0001:001e3b50 00000005H .text$_ZdaPvy           CODE
 0001:001e3b60 00000071H .text$_ZnwySt11align_val_t CODE
 0001:001e3be0 0000002cH .text$_ZnwySt11align_val_tRKSt9nothrow_t CODE
 0001:001e3c10 00000005H .text$_ZnaySt11align_val_t CODE
 0001:001e3c20 0000002cH .text$_ZnaySt11align_val_tRKSt9nothrow_t CODE
 0001:001e3c50 00000018H .text$_ZdlPvSt11align_val_t CODE
 0001:001e3c70 00000005H .text$_ZdlPvSt11align_val_tRKSt9nothrow_t CODE
 0001:001e3c80 00000008H .text$_ZdlPvySt11align_val_t CODE
 0001:001e3c90 00000005H .text$_ZdaPvSt11align_val_t CODE
 0001:001e3ca0 00000005H .text$_ZdaPvSt11align_val_tRKSt9nothrow_t CODE
 0001:001e3cb0 00000008H .text$_ZdaPvySt11align_val_t CODE
 0001:001e3cb8 00000000H .text                   CODE
 0001:001e3cc0 00000004H .text$_ZN10__cxxabiv119__setExceptionClassEP17_Unwind_Exceptiony CODE
 0001:001e3cd0 00000004H .text$_ZN10__cxxabiv119__getExceptionClassEPK17_Unwind_Exception CODE
 0001:001e3ce0 0000002aH .text$_ZN10__cxxabiv121__isOurExceptionClassEPK17_Unwind_Exception CODE
 0001:001e3d10 00000050H .text$_ZN10__cxxabiv122exception_cleanup_funcE19_Unwind_Reason_CodeP17_Unwind_Exception CODE
 0001:001e3d60 0000004fH .text$__cxa_decrement_exception_refcount CODE
 0001:001e3db0 00000050H .text$__cxa_allocate_exception CODE
 0001:001e3e00 000000a0H .text$__cxa_begin_catch CODE
 0001:001e3ea0 0000001fH .text$__cxa_free_exception CODE
 0001:001e3ec0 0000004eH .text$__cxa_allocate_dependent_exception CODE
 0001:001e3f10 00000005H .text$__cxa_free_dependent_exception CODE
 0001:001e3f20 00000068H .text$__cxa_init_exception CODE
 0001:001e3f90 000000cdH .text$__cxa_throw       CODE
 0001:001e4060 0000011fH .text$__cxa_rethrow     CODE
 0001:001e4180 0000001bH .text$_ZN10__cxxabiv1L12failed_throwEPNS_15__cxa_exceptionE CODE
 0001:001e41a0 00000005H .text$__cxa_get_exception_ptr CODE
 0001:001e41b0 000000fbH .text$__cxa_end_catch   CODE
 0001:001e42b0 0000004fH .text$__cxa_current_exception_type CODE
 0001:001e4300 0000000eH .text$__cxa_increment_exception_refcount CODE
 0001:001e4310 00000076H .text$__cxa_current_primary_exception CODE
 0001:001e4390 0000013eH .text$__cxa_rethrow_primary_exception CODE
 0001:001e44d0 0000006dH .text$_ZN10__cxxabiv1L27dependent_exception_cleanupE19_Unwind_Reason_CodeP17_Unwind_Exception CODE
 0001:001e4540 0000002eH .text$__cxa_uncaught_exception CODE
 0001:001e4570 00000026H .text$__cxa_uncaught_exceptions CODE
 0001:001e4598 00000000H .text                   CODE
 0001:001e45a0 00000350H .text$__gxx_personality_seh0 CODE
 0001:001e48f0 00000213H .text$_ZN10__cxxabiv1L21__gxx_personality_impEi14_Unwind_ActionyP17_Unwind_ExceptionP15_Unwind_Context CODE
 0001:001e4b10 0000022eH .text$__cxa_call_unexpected CODE
 0001:001e4d40 000001c4H .text$_ZN10__cxxabiv1L18readEncodedPointerEPPKhhy CODE
 0001:001e4f10 0000011eH .text$_ZN10__cxxabiv1L24exception_spec_can_catchExPKhhPKNS_16__shim_type_infoEPvP17_Unwind_Exceptiony CODE
 0001:001e5030 0000072dH .text$_ZN10__cxxabiv1L11scan_eh_tabERNS_12_GLOBAL__N_112scan_resultsE14_Unwind_ActionbP17_Unwind_ExceptionP15_Unwind_Context CODE
 0001:001e5760 00000000H .text                   CODE
 0001:001e5760 00000087H .text$_ZNSt11logic_errorC2ERKNSt3__112basic_stringIcNS0_11char_traitsIcEENS0_9allocatorIcEEEE CODE
 0001:001e57f0 00000079H .text$_ZNSt11logic_errorC2EPKc CODE
 0001:001e5870 0000001bH .text$_ZNSt11logic_errorC2ERKS_ CODE
 0001:001e5890 00000038H .text$_ZNSt11logic_erroraSERKS_ CODE
 0001:001e58d0 00000087H .text$_ZNSt13runtime_errorC2ERKNSt3__112basic_stringIcNS0_11char_traitsIcEENS0_9allocatorIcEEEE CODE
 0001:001e5960 00000079H .text$_ZNSt13runtime_errorC2EPKc CODE
 0001:001e59e0 0000001bH .text$_ZNSt13runtime_errorC2ERKS_ CODE
 0001:001e5a00 00000038H .text$_ZNSt13runtime_erroraSERKS_ CODE
 0001:001e5a38 00000000H .text                   CODE
 0001:001e5a40 00000710H .text$_GCC_specific_handler CODE
 0001:001e6150 00000092H .text$__libunwind_seh_personality CODE
 0001:001e61f0 0000006cH .text$_Unwind_RaiseException CODE
 0001:001e6260 00000314H .text$_Unwind_Resume    CODE
 0001:001e6580 000002bdH .text$_ZL20unwind_phase2_forcedP13unw_context_tP17_Unwind_ExceptionPF19_Unwind_Reason_Codei14_Unwind_ActionyS2_P15_Unwind_ContextPvES7_ CODE
 0001:001e6840 00000075H .text$_Unwind_ForcedUnwind CODE
 0001:001e68c0 00000042H .text$_Unwind_GetLanguageSpecificData CODE
 0001:001e6910 00000045H .text$_Unwind_GetRegionStart CODE
 0001:001e6960 00000001H .text$_ZN9libunwind20AbstractUnwindCursorD2Ev CODE
 0001:001e6970 00000001H .text$_ZN9libunwind12UnwindCursorINS_17LocalAddressSpaceENS_16Registers_x86_64EED0Ev CODE
 0001:001e6980 0000000aH .text$_ZN9libunwind12UnwindCursorINS_17LocalAddressSpaceENS_16Registers_x86_64EE8validRegEi CODE
 0001:001e6990 000001a8H .text$_ZN9libunwind12UnwindCursorINS_17LocalAddressSpaceENS_16Registers_x86_64EE6getRegEi CODE
 0001:001e6b40 00000174H .text$_ZN9libunwind12UnwindCursorINS_17LocalAddressSpaceENS_16Registers_x86_64EE6setRegEiy CODE
 0001:001e6cc0 00000003H .text$_ZN9libunwind12UnwindCursorINS_17LocalAddressSpaceENS_16Registers_x86_64EE13validFloatRegEi CODE
 0001:001e6cd0 00000043H .text$_ZN9libunwind12UnwindCursorINS_17LocalAddressSpaceENS_16Registers_x86_64EE11getFloatRegEi CODE
 0001:001e6d20 00000043H .text$_ZN9libunwind12UnwindCursorINS_17LocalAddressSpaceENS_16Registers_x86_64EE11setFloatRegEid CODE
 0001:001e6d70 00000099H .text$_ZN9libunwind12UnwindCursorINS_17LocalAddressSpaceENS_16Registers_x86_64EE4stepEv CODE
 0001:001e6e10 0000004cH .text$_ZN9libunwind12UnwindCursorINS_17LocalAddressSpaceENS_16Registers_x86_64EE7getInfoEP15unw_proc_info_t CODE
 0001:001e6e60 0000000eH .text$_ZN9libunwind12UnwindCursorINS_17LocalAddressSpaceENS_16Registers_x86_64EE6jumptoEv CODE
 0001:001e6e70 00000003H .text$_ZN9libunwind12UnwindCursorINS_17LocalAddressSpaceENS_16Registers_x86_64EE13isSignalFrameEv CODE
 0001:001e6e80 00000016H .text$_ZN9libunwind12UnwindCursorINS_17LocalAddressSpaceENS_16Registers_x86_64EE15getFunctionNameEPcyPy CODE
 0001:001e6ea0 0000003eH .text$_ZN9libunwind12UnwindCursorINS_17LocalAddressSpaceENS_16Registers_x86_64EE24setInfoBasedOnIPRegisterEb CODE
 0001:001e6ee0 00000022H .text$_ZN9libunwind12UnwindCursorINS_17LocalAddressSpaceENS_16Registers_x86_64EE15getRegisterNameEi CODE
 0001:001e6f10 000000e9H .text$_ZN9libunwind12UnwindCursorINS_17LocalAddressSpaceENS_16Registers_x86_64EE14getInfoFromSEHEy CODE
 0001:001e7000 0001ec00H .text                   CODE
 0001:00205c00 00000086H .text$__cxa_get_globals CODE
 0001:00205c90 00000037H .text$__cxa_get_globals_fast CODE
 0001:00205cd0 0000002dH .text$_ZN10__cxxabiv112_GLOBAL__N_110construct_Ev CODE
 0001:00205d00 0000002cH .text$_ZN10__cxxabiv112_GLOBAL__N_19destruct_EPv CODE
 0001:00205d2c 00000000H .text                   CODE
 0001:00205d30 0000007cH .text$abort_message     CODE
 0001:00205dac 00000000H .text                   CODE
 0001:00205db0 00000127H .text$_ZL28demangling_terminate_handlerv CODE
 0001:00205ee0 00000018H .text$_ZL29demangling_unexpected_handlerv CODE
 0001:00205f00 00000016H .text$_ZSt14set_unexpectedPFvvE CODE
 0001:00205f20 00000016H .text$_ZSt13set_terminatePFvvE CODE
 0001:00205f40 0000000bH .text$_ZSt15set_new_handlerPFvvE CODE
 0001:00205f50 00000005H .text$_ZZL8demanglePKcEN3$_08__invokeES0_ CODE
 0001:00205f60 00000001H .text$_ZZL8demanglePKcEN3$_18__invokeES0_ CODE
 0001:00205f64 00000000H .text                   CODE
 0001:00205f70 00000001H .text$_ZNSt9type_infoD2Ev CODE
 0001:00205f80 00000005H .text$_ZNSt9type_infoD0Ev CODE
 0001:00205f90 0000000bH .text$_ZNSt8bad_castC2Ev CODE
 0001:00205fa0 00000005H .text$_ZNSt8bad_castD2Ev CODE
 0001:00205fb0 0000001aH .text$_ZNSt8bad_castD0Ev CODE
 0001:00205fd0 00000008H .text$_ZNKSt8bad_cast4whatEv CODE
 0001:00205fe0 0000000bH .text$_ZNSt10bad_typeidC2Ev CODE
 0001:00205ff0 00000005H .text$_ZNSt10bad_typeidD2Ev CODE
 0001:00206000 0000001aH .text$_ZNSt10bad_typeidD0Ev CODE
 0001:00206020 00000008H .text$_ZNKSt10bad_typeid4whatEv CODE
 0001:00206028 00000000H .text                   CODE
 0001:00206030 00000011H .text$__cxa_pure_virtual CODE
 0001:00206050 00000011H .text$__cxa_deleted_virtual CODE
 0001:00206064 00000000H .text                   CODE
 0001:00206070 0000010aH .text$_ZN10__cxxabiv130__aligned_malloc_with_fallbackEy CODE
 0001:00206180 00000123H .text$_ZN10__cxxabiv122__calloc_with_fallbackEyy CODE
 0001:002062b0 0000010aH .text$_ZN10__cxxabiv128__aligned_free_with_fallbackEPv CODE
 0001:002063c0 0000010aH .text$_ZN10__cxxabiv120__free_with_fallbackEPv CODE
 0001:002064cc 00000000H .text                   CODE
 0001:002064d0 00000010H .text$_Z27delphi_exception_destructorPv CODE
 0001:002064e0 0000000fH .text$_Z27get_delphi_type_from_objectPv CODE
 0001:002064f0 0000002eH .text$_Z24is_delphi_type_inheritedPKvS0_ CODE
 0001:00206520 00000016H .text$__delphi_init_eh  CODE
 0001:00206540 0000000bH .text$_Z14is_delphi_typePKv CODE
 0001:00206550 0000000aH .text$__throw_as_delphi CODE
 0001:00206560 00000001H .text$_CPPDbgExcNotify  CODE
 0001:00206570 00000040H .text$_ZN6System14_RaiseAtExceptEPNS_7TObjectEPv CODE
 0001:002065b0 00000000H .text                   CODE
 0001:002065b0 00000049H .text$_Z13__notifyThrowPvPSt9type_infoS_ CODE
 0001:002065fc 00000000H .text                   CODE
 0001:00206600 0000004dH .text$_Unwind_DeleteException CODE
 0001:00206650 00000053H .text$_Unwind_GetGR     CODE
 0001:002066b0 00000050H .text$_Unwind_SetGR     CODE
 0001:00206700 0000004cH .text$_Unwind_GetIP     CODE
 0001:00206750 0000004aH .text$_Unwind_SetIP     CODE
 0001:0020679c 00000000H .text                   CODE
 0001:002067a0 00000224H .text$__unw_init_local  CODE
 0001:002069d0 0000003eH .text$logAPIs           CODE
 0001:00206a10 0000009bH .text$__unw_get_reg     CODE
 0001:00206ab0 000000e9H .text$__unw_set_reg     CODE
 0001:00206ba0 0000009cH .text$__unw_get_fpreg   CODE
 0001:00206c40 000000a4H .text$__unw_set_fpreg   CODE
 0001:00206cf0 0000006dH .text$__unw_step        CODE
 0001:00206d60 00000087H .text$__unw_get_proc_info CODE
 0001:00206df0 00000072H .text$__unw_resume      CODE
 0001:00206e70 0000009aH .text$__unw_get_proc_name CODE
 0001:00206f10 00000079H .text$__unw_is_fpreg    CODE
 0001:00206f90 00000079H .text$__unw_regname     CODE
 0001:00207010 00000070H .text$__unw_is_signal_frame CODE
 0001:00207080 0000003eH .text$logUnwinding      CODE
 0001:002070c0 0000003eH .text$logDWARF          CODE
 0001:00207100 00000d40H .text                   CODE
 0001:00207e40 00000010H .text$_ZNSt3__129__libcpp_recursive_mutex_initEPA5_Pv CODE
 0001:00207e50 00000010H .text$_ZNSt3__129__libcpp_recursive_mutex_lockEPA5_Pv CODE
 0001:00207e60 00000013H .text$_ZNSt3__132__libcpp_recursive_mutex_trylockEPA5_Pv CODE
 0001:00207e80 00000010H .text$_ZNSt3__131__libcpp_recursive_mutex_unlockEPA5_Pv CODE
 0001:00207e90 00000010H .text$_ZNSt3__132__libcpp_recursive_mutex_destroyEPA5_Pv CODE
 0001:00207ea0 00000010H .text$_ZNSt3__119__libcpp_mutex_lockEPPv CODE
 0001:00207eb0 00000013H .text$_ZNSt3__122__libcpp_mutex_trylockEPPv CODE
 0001:00207ed0 00000010H .text$_ZNSt3__121__libcpp_mutex_unlockEPPv CODE
 0001:00207ee0 00000003H .text$_ZNSt3__122__libcpp_mutex_destroyEPPv CODE
 0001:00207ef0 00000010H .text$_ZNSt3__123__libcpp_condvar_signalEPPv CODE
 0001:00207f00 00000010H .text$_ZNSt3__126__libcpp_condvar_broadcastEPPv CODE
 0001:00207f10 00000019H .text$_ZNSt3__121__libcpp_condvar_waitEPPvS1_ CODE
 0001:00207f30 00000094H .text$_ZNSt3__126__libcpp_condvar_timedwaitEPPvS1_P8timespec CODE
 0001:00207fd0 00000003H .text$_ZNSt3__124__libcpp_condvar_destroyEPPv CODE
 0001:00207fe0 0000002aH .text$_ZNSt3__121__libcpp_execute_onceEPPvPFvvE CODE
 0001:00208010 00000010H .text$_ZNSt3__1L37__libcpp_init_once_execute_once_thunkB6v15007EP13_RTL_RUN_ONCEPvPS2_ CODE
 0001:00208020 00000006H .text$_ZNSt3__124__libcpp_thread_id_equalEll CODE
 0001:00208030 00000006H .text$_ZNSt3__123__libcpp_thread_id_lessEll CODE
 0001:00208040 00000008H .text$_ZNSt3__122__libcpp_thread_isnullEPKPv CODE
 0001:00208050 00000063H .text$_ZNSt3__122__libcpp_thread_createEPPvPFS0_S0_ES0_ CODE
 0001:002080c0 00000021H .text$_ZNSt3__1L28__libcpp_beginthreadex_thunkB6v15007EPv CODE
 0001:002080f0 00000005H .text$_ZNSt3__130__libcpp_thread_get_current_idEv CODE
 0001:00208100 00000008H .text$_ZNSt3__122__libcpp_thread_get_idEPKPv CODE
 0001:00208110 0000003bH .text$_ZNSt3__120__libcpp_thread_joinEPPv CODE
 0001:00208150 00000020H .text$_ZNSt3__122__libcpp_thread_detachEPPv CODE
 0001:00208170 00000005H .text$_ZNSt3__121__libcpp_thread_yieldEv CODE
 0001:00208180 00000037H .text$_ZNSt3__125__libcpp_thread_sleep_forERKNS_6chrono8durationIxNS_5ratioILx1ELx1000000000EEEEE CODE
 0001:002081c0 00000029H .text$_ZNSt3__119__libcpp_tls_createEPlPFvPvE CODE
 0001:002081f0 00000005H .text$_ZNSt3__116__libcpp_tls_getEl CODE
 0001:00208200 0000001dH .text$_ZNSt3__116__libcpp_tls_setElPv CODE
 0001:00208220 00000000H .text                   CODE
 0001:00208220 00000065H .text$_ZNK12_GLOBAL__N_116itanium_demangle4Node4dumpEv CODE
 0001:00208290 00000838H .text$_ZNK12_GLOBAL__N_116itanium_demangle4Node5visitINSt3__117reference_wrapperINS_11DumpVisitorEEEEEvT_ CODE
 0001:00208ad0 000007b0H .text$__cxa_demangle    CODE
 0001:00209280 000000e0H .text$_ZN12_GLOBAL__N_116itanium_demangle22AbstractManglingParserINS0_14ManglingParserINS_16DefaultAllocatorEEES3_ED2Ev CODE
 0001:00209360 0000007aH .text$_ZNKSt3__117reference_wrapperIN12_GLOBAL__N_111DumpVisitorEEclB6v15007IJPKNS1_16itanium_demangle8NameTypeEEEENS_11__invoke_ofIRS2_JDpT_EE4typeEDpOSB_ CODE
 0001:002093e0 0000015bH .text$_ZNKSt3__117reference_wrapperIN12_GLOBAL__N_111DumpVisitorEEclB6v15007IJPKNS1_16itanium_demangle26SyntheticTemplateParamNameEEEENS_11__invoke_ofIRS2_JDpT_EE4typeEDpOSB_ CODE
 0001:00209540 0000005bH .text$_ZNKSt3__117reference_wrapperIN12_GLOBAL__N_111DumpVisitorEEclB6v15007IJPKNS1_16itanium_demangle27ExpandedSpecialSubstitutionEEEENS_11__invoke_ofIRS2_JDpT_EE4typeEDpOSB_ CODE
 0001:002095a0 0000005bH .text$_ZNKSt3__117reference_wrapperIN12_GLOBAL__N_111DumpVisitorEEclB6v15007IJPKNS1_16itanium_demangle19SpecialSubstitutionEEEENS_11__invoke_ofIRS2_JDpT_EE4typeEDpOSB_ CODE
 0001:00209600 0000007aH .text$_ZNKSt3__117reference_wrapperIN12_GLOBAL__N_111DumpVisitorEEclB6v15007IJPKNS1_16itanium_demangle15UnnamedTypeNameEEEENS_11__invoke_ofIRS2_JDpT_EE4typeEDpOSB_ CODE
 0001:00209680 0000007aH .text$_ZNKSt3__117reference_wrapperIN12_GLOBAL__N_111DumpVisitorEEclB6v15007IJPKNS1_16itanium_demangle13FunctionParamEEEENS_11__invoke_ofIRS2_JDpT_EE4typeEDpOSB_ CODE
 0001:00209700 0000007bH .text$_ZNKSt3__117reference_wrapperIN12_GLOBAL__N_111DumpVisitorEEclB6v15007IJPKNS1_16itanium_demangle8BoolExprEEEENS_11__invoke_ofIRS2_JDpT_EE4typeEDpOSB_ CODE
 0001:00209780 0000009cH .text$_ZNKSt3__117reference_wrapperIN12_GLOBAL__N_111DumpVisitorEEclB6v15007IJPKNS1_16itanium_demangle14IntegerLiteralEEEENS_11__invoke_ofIRS2_JDpT_EE4typeEDpOSB_ CODE
 0001:00209820 0000007aH .text$_ZNKSt3__117reference_wrapperIN12_GLOBAL__N_111DumpVisitorEEclB6v15007IJPKNS1_16itanium_demangle16FloatLiteralImplIfEEEEENS_11__invoke_ofIRS2_JDpT_EE4typeEDpOSC_ CODE
 0001:002098a0 0000007aH .text$_ZNKSt3__117reference_wrapperIN12_GLOBAL__N_111DumpVisitorEEclB6v15007IJPKNS1_16itanium_demangle16FloatLiteralImplIdEEEEENS_11__invoke_ofIRS2_JDpT_EE4typeEDpOSC_ CODE
 0001:00209920 0000007aH .text$_ZNKSt3__117reference_wrapperIN12_GLOBAL__N_111DumpVisitorEEclB6v15007IJPKNS1_16itanium_demangle16FloatLiteralImplIeEEEEENS_11__invoke_ofIRS2_JDpT_EE4typeEDpOSC_ CODE
 0001:002099a0 000000bbH .text$_ZNSt3__18__invokeB6v15007IRN12_GLOBAL__N_111DumpVisitorEJPKNS1_16itanium_demangle13NodeArrayNodeEEEEDTclclsr3stdE7declvalIT_EEspclsr3stdE7declvalIT0_EEEEOS8_DpOS9_ CODE
 0001:00209a60 000000d5H .text$_ZN12_GLOBAL__N_111DumpVisitor23printWithPendingNewlineINS_16itanium_demangle9NodeArrayEEEvT_ CODE
 0001:00209b40 000000b3H .text$_ZN12_GLOBAL__N_111DumpVisitor14printWithCommaIPKNS_16itanium_demangle4NodeEEEvT_ CODE
 0001:00209c00 000000f4H .text$_ZNSt3__18__invokeB6v15007IRN12_GLOBAL__N_111DumpVisitorEJPKNS1_16itanium_demangle9DotSuffixEEEEDTclclsr3stdE7declvalIT_EEspclsr3stdE7declvalIT0_EEEEOS8_DpOS9_ CODE
 0001:00209d00 000000bdH .text$_ZN12_GLOBAL__N_111DumpVisitor14printWithCommaINS_16itanium_demangle10StringViewEEEvT_ CODE
 0001:00209dc0 00000100H .text$_ZNSt3__18__invokeB6v15007IRN12_GLOBAL__N_111DumpVisitorEJPKNS1_16itanium_demangle17VendorExtQualTypeEEEEDTclclsr3stdE7declvalIT_EEspclsr3stdE7declvalIT0_EEEEOS8_DpOS9_ CODE
 0001:00209ec0 000000e8H .text$_ZNSt3__18__invokeB6v15007IRN12_GLOBAL__N_111DumpVisitorEJPKNS1_16itanium_demangle8QualTypeEEEEDTclclsr3stdE7declvalIT_EEspclsr3stdE7declvalIT0_EEEEOS8_DpOS9_ CODE
 0001:00209fb0 000001c2H .text$_ZN12_GLOBAL__N_111DumpVisitor14printWithCommaINS_16itanium_demangle10QualifiersEEEvT_ CODE
 0001:0020a180 000000ddH .text$_ZNSt3__18__invokeB6v15007IRN12_GLOBAL__N_111DumpVisitorEJPKNS1_16itanium_demangle22ConversionOperatorTypeEEEEDTclclsr3stdE7declvalIT_EEspclsr3stdE7declvalIT0_EEEEOS8_DpOS9_ CODE
 0001:0020a260 000000f4H .text$_ZNSt3__18__invokeB6v15007IRN12_GLOBAL__N_111DumpVisitorEJPKNS1_16itanium_demangle20PostfixQualifiedTypeEEEEDTclclsr3stdE7declvalIT_EEspclsr3stdE7declvalIT0_EEEEOS8_DpOS9_ CODE
 0001:0020a360 000000d2H .text$_ZNSt3__18__invokeB6v15007IRN12_GLOBAL__N_111DumpVisitorEJPKNS1_16itanium_demangle22ElaboratedTypeSpefTypeEEEEDTclclsr3stdE7declvalIT_EEspclsr3stdE7declvalIT0_EEEEOS8_DpOS9_ CODE
 0001:0020a440 000000b3H .text$_ZN12_GLOBAL__N_111DumpVisitor14printWithCommaIPNS_16itanium_demangle4NodeEEEvT_ CODE
 0001:0020a500 000000f4H .text$_ZNSt3__18__invokeB6v15007IRN12_GLOBAL__N_111DumpVisitorEJPKNS1_16itanium_demangle10AbiTagAttrEEEEDTclclsr3stdE7declvalIT_EEspclsr3stdE7declvalIT0_EEEEOS8_DpOS9_ CODE
 0001:0020a600 000000bbH .text$_ZNSt3__18__invokeB6v15007IRN12_GLOBAL__N_111DumpVisitorEJPKNS1_16itanium_demangle12EnableIfAttrEEEEDTclclsr3stdE7declvalIT_EEspclsr3stdE7declvalIT0_EEEEOS8_DpOS9_ CODE
 0001:0020a6c0 000000f4H .text$_ZNSt3__18__invokeB6v15007IRN12_GLOBAL__N_111DumpVisitorEJPKNS1_16itanium_demangle13ObjCProtoNameEEEEDTclclsr3stdE7declvalIT_EEspclsr3stdE7declvalIT0_EEEEOS8_DpOS9_ CODE
 0001:0020a7c0 000000ddH .text$_ZNSt3__18__invokeB6v15007IRN12_GLOBAL__N_111DumpVisitorEJPKNS1_16itanium_demangle11PointerTypeEEEEDTclclsr3stdE7declvalIT_EEspclsr3stdE7declvalIT0_EEEEOS8_DpOS9_ CODE
 0001:0020a8a0 0000016dH .text$_ZNSt3__18__invokeB6v15007IRN12_GLOBAL__N_111DumpVisitorEJPKNS1_16itanium_demangle13ReferenceTypeEEEEDTclclsr3stdE7declvalIT_EEspclsr3stdE7declvalIT0_EEEEOS8_DpOS9_ CODE
 0001:0020aa10 000000e9H .text$_ZNSt3__18__invokeB6v15007IRN12_GLOBAL__N_111DumpVisitorEJPKNS1_16itanium_demangle19PointerToMemberTypeEEEEDTclclsr3stdE7declvalIT_EEspclsr3stdE7declvalIT0_EEEEOS8_DpOS9_ CODE
 0001:0020ab00 000000e9H .text$_ZNSt3__18__invokeB6v15007IRN12_GLOBAL__N_111DumpVisitorEJPKNS1_16itanium_demangle9ArrayTypeEEEEDTclclsr3stdE7declvalIT_EEspclsr3stdE7declvalIT0_EEEEOS8_DpOS9_ CODE
 0001:0020abf0 00000129H .text$_ZNSt3__18__invokeB6v15007IRN12_GLOBAL__N_111DumpVisitorEJPKNS1_16itanium_demangle12FunctionTypeEEEEDTclclsr3stdE7declvalIT_EEspclsr3stdE7declvalIT0_EEEEOS8_DpOS9_ CODE
 0001:0020ad20 0000022bH .text$_ZN12_GLOBAL__N_111DumpVisitor14printWithCommaINS_16itanium_demangle9NodeArrayEEEvT_ CODE
 0001:0020af50 00000105H .text$_ZN12_GLOBAL__N_111DumpVisitor14printWithCommaINS_16itanium_demangle15FunctionRefQualEEEvT_ CODE
 0001:0020b060 000000ddH .text$_ZNSt3__18__invokeB6v15007IRN12_GLOBAL__N_111DumpVisitorEJPKNS1_16itanium_demangle12NoexceptSpecEEEEDTclclsr3stdE7declvalIT_EEspclsr3stdE7declvalIT0_EEEEOS8_DpOS9_ CODE
 0001:0020b140 000000bbH .text$_ZNSt3__18__invokeB6v15007IRN12_GLOBAL__N_111DumpVisitorEJPKNS1_16itanium_demangle20DynamicExceptionSpecEEEEDTclclsr3stdE7declvalIT_EEspclsr3stdE7declvalIT0_EEEEOS8_DpOS9_ CODE
 0001:0020b200 00000147H .text$_ZNSt3__18__invokeB6v15007IRN12_GLOBAL__N_111DumpVisitorEJPKNS1_16itanium_demangle16FunctionEncodingEEEEDTclclsr3stdE7declvalIT_EEspclsr3stdE7declvalIT0_EEEEOS8_DpOS9_ CODE
 0001:0020b350 000000ddH .text$_ZNSt3__18__invokeB6v15007IRN12_GLOBAL__N_111DumpVisitorEJPKNS1_16itanium_demangle15LiteralOperatorEEEEDTclclsr3stdE7declvalIT_EEspclsr3stdE7declvalIT0_EEEEOS8_DpOS9_ CODE
 0001:0020b430 000000d2H .text$_ZNSt3__18__invokeB6v15007IRN12_GLOBAL__N_111DumpVisitorEJPKNS1_16itanium_demangle11SpecialNameEEEEDTclclsr3stdE7declvalIT_EEspclsr3stdE7declvalIT0_EEEEOS8_DpOS9_ CODE
 0001:0020b510 000000e9H .text$_ZNSt3__18__invokeB6v15007IRN12_GLOBAL__N_111DumpVisitorEJPKNS1_16itanium_demangle21CtorVtableSpecialNameEEEEDTclclsr3stdE7declvalIT_EEspclsr3stdE7declvalIT0_EEEEOS8_DpOS9_ CODE
 0001:0020b600 000000e9H .text$_ZNSt3__18__invokeB6v15007IRN12_GLOBAL__N_111DumpVisitorEJPKNS1_16itanium_demangle13QualifiedNameEEEEDTclclsr3stdE7declvalIT_EEspclsr3stdE7declvalIT0_EEEEOS8_DpOS9_ CODE
 0001:0020b6f0 000000e9H .text$_ZNSt3__18__invokeB6v15007IRN12_GLOBAL__N_111DumpVisitorEJPKNS1_16itanium_demangle10NestedNameEEEEDTclclsr3stdE7declvalIT_EEspclsr3stdE7declvalIT0_EEEEOS8_DpOS9_ CODE
 0001:0020b7e0 000000e9H .text$_ZNSt3__18__invokeB6v15007IRN12_GLOBAL__N_111DumpVisitorEJPKNS1_16itanium_demangle9LocalNameEEEEDTclclsr3stdE7declvalIT_EEspclsr3stdE7declvalIT0_EEEEOS8_DpOS9_ CODE
 0001:0020b8d0 000000f6H .text$_ZNSt3__18__invokeB6v15007IRN12_GLOBAL__N_111DumpVisitorEJPKNS1_16itanium_demangle10ModuleNameEEEEDTclclsr3stdE7declvalIT_EEspclsr3stdE7declvalIT0_EEEEOS8_DpOS9_ CODE
 0001:0020b9d0 000000bfH .text$_ZN12_GLOBAL__N_111DumpVisitor14printWithCommaIbEEvT_ CODE
 0001:0020ba90 000000e9H .text$_ZNSt3__18__invokeB6v15007IRN12_GLOBAL__N_111DumpVisitorEJPKNS1_16itanium_demangle12ModuleEntityEEEEDTclclsr3stdE7declvalIT_EEspclsr3stdE7declvalIT0_EEEEOS8_DpOS9_ CODE
 0001:0020bb80 000000e9H .text$_ZNSt3__18__invokeB6v15007IRN12_GLOBAL__N_111DumpVisitorEJPKNS1_16itanium_demangle10VectorTypeEEEEDTclclsr3stdE7declvalIT_EEspclsr3stdE7declvalIT0_EEEEOS8_DpOS9_ CODE
 0001:0020bc70 000000ddH .text$_ZNSt3__18__invokeB6v15007IRN12_GLOBAL__N_111DumpVisitorEJPKNS1_16itanium_demangle15PixelVectorTypeEEEEDTclclsr3stdE7declvalIT_EEspclsr3stdE7declvalIT0_EEEEOS8_DpOS9_ CODE
 0001:0020bd50 000000ddH .text$_ZNSt3__18__invokeB6v15007IRN12_GLOBAL__N_111DumpVisitorEJPKNS1_16itanium_demangle12BinaryFPTypeEEEEDTclclsr3stdE7declvalIT_EEspclsr3stdE7declvalIT0_EEEEOS8_DpOS9_ CODE
 0001:0020be30 000000e8H .text$_ZNSt3__18__invokeB6v15007IRN12_GLOBAL__N_111DumpVisitorEJPKNS1_16itanium_demangle10BitIntTypeEEEEDTclclsr3stdE7declvalIT_EEspclsr3stdE7declvalIT0_EEEEOS8_DpOS9_ CODE
 0001:0020bf20 000000ddH .text$_ZNSt3__18__invokeB6v15007IRN12_GLOBAL__N_111DumpVisitorEJPKNS1_16itanium_demangle21TypeTemplateParamDeclEEEEDTclclsr3stdE7declvalIT_EEspclsr3stdE7declvalIT0_EEEEOS8_DpOS9_ CODE
 0001:0020c000 000000e9H .text$_ZNSt3__18__invokeB6v15007IRN12_GLOBAL__N_111DumpVisitorEJPKNS1_16itanium_demangle24NonTypeTemplateParamDeclEEEEDTclclsr3stdE7declvalIT_EEspclsr3stdE7declvalIT0_EEEEOS8_DpOS9_ CODE
 0001:0020c0f0 000000f4H .text$_ZNSt3__18__invokeB6v15007IRN12_GLOBAL__N_111DumpVisitorEJPKNS1_16itanium_demangle25TemplateTemplateParamDeclEEEEDTclclsr3stdE7declvalIT_EEspclsr3stdE7declvalIT0_EEEEOS8_DpOS9_ CODE
 0001:0020c1f0 000000ddH .text$_ZNSt3__18__invokeB6v15007IRN12_GLOBAL__N_111DumpVisitorEJPKNS1_16itanium_demangle21TemplateParamPackDeclEEEEDTclclsr3stdE7declvalIT_EEspclsr3stdE7declvalIT0_EEEEOS8_DpOS9_ CODE
 0001:0020c2d0 000000bbH .text$_ZNSt3__18__invokeB6v15007IRN12_GLOBAL__N_111DumpVisitorEJPKNS1_16itanium_demangle13ParameterPackEEEEDTclclsr3stdE7declvalIT_EEspclsr3stdE7declvalIT0_EEEEOS8_DpOS9_ CODE
 0001:0020c390 000000bbH .text$_ZNSt3__18__invokeB6v15007IRN12_GLOBAL__N_111DumpVisitorEJPKNS1_16itanium_demangle20TemplateArgumentPackEEEEDTclclsr3stdE7declvalIT_EEspclsr3stdE7declvalIT0_EEEEOS8_DpOS9_ CODE
 0001:0020c450 000000ddH .text$_ZNSt3__18__invokeB6v15007IRN12_GLOBAL__N_111DumpVisitorEJPKNS1_16itanium_demangle22ParameterPackExpansionEEEEDTclclsr3stdE7declvalIT_EEspclsr3stdE7declvalIT0_EEEEOS8_DpOS9_ CODE
 0001:0020c530 000000bbH .text$_ZNSt3__18__invokeB6v15007IRN12_GLOBAL__N_111DumpVisitorEJPKNS1_16itanium_demangle12TemplateArgsEEEEDTclclsr3stdE7declvalIT_EEspclsr3stdE7declvalIT0_EEEEOS8_DpOS9_ CODE
 0001:0020c5f0 000000e7H .text$_ZNSt3__18__invokeB6v15007IRN12_GLOBAL__N_111DumpVisitorEJPKNS1_16itanium_demangle24ForwardTemplateReferenceEEEEDTclclsr3stdE7declvalIT_EEspclsr3stdE7declvalIT0_EEEEOS8_DpOS9_ CODE
 0001:0020c6e0 000000e9H .text$_ZNSt3__18__invokeB6v15007IRN12_GLOBAL__N_111DumpVisitorEJPKNS1_16itanium_demangle20NameWithTemplateArgsEEEEDTclclsr3stdE7declvalIT_EEspclsr3stdE7declvalIT0_EEEEOS8_DpOS9_ CODE
 0001:0020c7d0 000000ddH .text$_ZNSt3__18__invokeB6v15007IRN12_GLOBAL__N_111DumpVisitorEJPKNS1_16itanium_demangle19GlobalQualifiedNameEEEEDTclclsr3stdE7declvalIT_EEspclsr3stdE7declvalIT0_EEEEOS8_DpOS9_ CODE
 0001:0020c8b0 000000d4H .text$_ZN12_GLOBAL__N_111DumpVisitor14CtorArgPrinterclINS_16itanium_demangle14SpecialSubKindEJEEEvT_DpT0_ CODE
 0001:0020c990 0000018eH .text$_ZNSt3__18__invokeB6v15007IRN12_GLOBAL__N_111DumpVisitorEJPKNS1_16itanium_demangle12CtorDtorNameEEEEDTclclsr3stdE7declvalIT_EEspclsr3stdE7declvalIT0_EEEEOS8_DpOS9_ CODE
 0001:0020cb20 000000ddH .text$_ZNSt3__18__invokeB6v15007IRN12_GLOBAL__N_111DumpVisitorEJPKNS1_16itanium_demangle8DtorNameEEEEDTclclsr3stdE7declvalIT_EEspclsr3stdE7declvalIT0_EEEEOS8_DpOS9_ CODE
 0001:0020cc00 0000010dH .text$_ZNSt3__18__invokeB6v15007IRN12_GLOBAL__N_111DumpVisitorEJPKNS1_16itanium_demangle15ClosureTypeNameEEEEDTclclsr3stdE7declvalIT_EEspclsr3stdE7declvalIT0_EEEEOS8_DpOS9_ CODE
 0001:0020cd10 000000bbH .text$_ZNSt3__18__invokeB6v15007IRN12_GLOBAL__N_111DumpVisitorEJPKNS1_16itanium_demangle21StructuredBindingNameEEEEDTclclsr3stdE7declvalIT_EEspclsr3stdE7declvalIT0_EEEEOS8_DpOS9_ CODE
 0001:0020cdd0 00000122H .text$_ZNSt3__18__invokeB6v15007IRN12_GLOBAL__N_111DumpVisitorEJPKNS1_16itanium_demangle10BinaryExprEEEEDTclclsr3stdE7declvalIT_EEspclsr3stdE7declvalIT0_EEEEOS8_DpOS9_ CODE
 0001:0020cf00 00000314H .text$_ZN12_GLOBAL__N_111DumpVisitor14printWithCommaINS_16itanium_demangle4Node4PrecEEEvT_ CODE
 0001:0020d220 000000fbH .text$_ZNSt3__18__invokeB6v15007IRN12_GLOBAL__N_111DumpVisitorEJPKNS1_16itanium_demangle18ArraySubscriptExprEEEEDTclclsr3stdE7declvalIT_EEspclsr3stdE7declvalIT0_EEEEOS8_DpOS9_ CODE
 0001:0020d320 00000105H .text$_ZNSt3__18__invokeB6v15007IRN12_GLOBAL__N_111DumpVisitorEJPKNS1_16itanium_demangle11PostfixExprEEEEDTclclsr3stdE7declvalIT_EEspclsr3stdE7declvalIT0_EEEEOS8_DpOS9_ CODE
 0001:0020d430 00000118H .text$_ZNSt3__18__invokeB6v15007IRN12_GLOBAL__N_111DumpVisitorEJPKNS1_16itanium_demangle15ConditionalExprEEEEDTclclsr3stdE7declvalIT_EEspclsr3stdE7declvalIT0_EEEEOS8_DpOS9_ CODE
 0001:0020d550 00000122H .text$_ZNSt3__18__invokeB6v15007IRN12_GLOBAL__N_111DumpVisitorEJPKNS1_16itanium_demangle10MemberExprEEEEDTclclsr3stdE7declvalIT_EEspclsr3stdE7declvalIT0_EEEEOS8_DpOS9_ CODE
 0001:0020d680 00000134H .text$_ZNSt3__18__invokeB6v15007IRN12_GLOBAL__N_111DumpVisitorEJPKNS1_16itanium_demangle13SubobjectExprEEEEDTclclsr3stdE7declvalIT_EEspclsr3stdE7declvalIT0_EEEEOS8_DpOS9_ CODE
 0001:0020d7c0 000000f5H .text$_ZNSt3__18__invokeB6v15007IRN12_GLOBAL__N_111DumpVisitorEJPKNS1_16itanium_demangle13EnclosingExprEEEEDTclclsr3stdE7declvalIT_EEspclsr3stdE7declvalIT0_EEEEOS8_DpOS9_ CODE
 0001:0020d8c0 00000102H .text$_ZNSt3__18__invokeB6v15007IRN12_GLOBAL__N_111DumpVisitorEJPKNS1_16itanium_demangle8CastExprEEEEDTclclsr3stdE7declvalIT_EEspclsr3stdE7declvalIT0_EEEEOS8_DpOS9_ CODE
 0001:0020d9d0 000000ddH .text$_ZNSt3__18__invokeB6v15007IRN12_GLOBAL__N_111DumpVisitorEJPKNS1_16itanium_demangle19SizeofParamPackExprEEEEDTclclsr3stdE7declvalIT_EEspclsr3stdE7declvalIT0_EEEEOS8_DpOS9_ CODE
 0001:0020dab0 00000105H .text$_ZNSt3__18__invokeB6v15007IRN12_GLOBAL__N_111DumpVisitorEJPKNS1_16itanium_demangle8CallExprEEEEDTclclsr3stdE7declvalIT_EEspclsr3stdE7declvalIT0_EEEEOS8_DpOS9_ CODE
 0001:0020dbc0 00000127H .text$_ZNSt3__18__invokeB6v15007IRN12_GLOBAL__N_111DumpVisitorEJPKNS1_16itanium_demangle7NewExprEEEEDTclclsr3stdE7declvalIT_EEspclsr3stdE7declvalIT0_EEEEOS8_DpOS9_ CODE
 0001:0020dcf0 00000118H .text$_ZNSt3__18__invokeB6v15007IRN12_GLOBAL__N_111DumpVisitorEJPKNS1_16itanium_demangle10DeleteExprEEEEDTclclsr3stdE7declvalIT_EEspclsr3stdE7declvalIT0_EEEEOS8_DpOS9_ CODE
 0001:0020de10 000000f5H .text$_ZNSt3__18__invokeB6v15007IRN12_GLOBAL__N_111DumpVisitorEJPKNS1_16itanium_demangle10PrefixExprEEEEDTclclsr3stdE7declvalIT_EEspclsr3stdE7declvalIT0_EEEEOS8_DpOS9_ CODE
 0001:0020df10 00000105H .text$_ZNSt3__18__invokeB6v15007IRN12_GLOBAL__N_111DumpVisitorEJPKNS1_16itanium_demangle14ConversionExprEEEEDTclclsr3stdE7declvalIT_EEspclsr3stdE7declvalIT0_EEEEOS8_DpOS9_ CODE
 0001:0020e020 00000122H .text$_ZNSt3__18__invokeB6v15007IRN12_GLOBAL__N_111DumpVisitorEJPKNS1_16itanium_demangle29PointerToMemberConversionExprEEEEDTclclsr3stdE7declvalIT_EEspclsr3stdE7declvalIT0_EEEEOS8_DpOS9_ CODE
 0001:0020e150 000000f4H .text$_ZNSt3__18__invokeB6v15007IRN12_GLOBAL__N_111DumpVisitorEJPKNS1_16itanium_demangle12InitListExprEEEEDTclclsr3stdE7declvalIT_EEspclsr3stdE7declvalIT0_EEEEOS8_DpOS9_ CODE
 0001:0020e250 0000010dH .text$_ZNSt3__18__invokeB6v15007IRN12_GLOBAL__N_111DumpVisitorEJPKNS1_16itanium_demangle8FoldExprEEEEDTclclsr3stdE7declvalIT_EEspclsr3stdE7declvalIT0_EEEEOS8_DpOS9_ CODE
 0001:0020e360 000000ddH .text$_ZNSt3__18__invokeB6v15007IRN12_GLOBAL__N_111DumpVisitorEJPKNS1_16itanium_demangle9ThrowExprEEEEDTclclsr3stdE7declvalIT_EEspclsr3stdE7declvalIT0_EEEEOS8_DpOS9_ CODE
 0001:0020e440 000000ddH .text$_ZNSt3__18__invokeB6v15007IRN12_GLOBAL__N_111DumpVisitorEJPKNS1_16itanium_demangle13StringLiteralEEEEDTclclsr3stdE7declvalIT_EEspclsr3stdE7declvalIT0_EEEEOS8_DpOS9_ CODE
 0001:0020e520 000000ddH .text$_ZNSt3__18__invokeB6v15007IRN12_GLOBAL__N_111DumpVisitorEJPKNS1_16itanium_demangle10LambdaExprEEEEDTclclsr3stdE7declvalIT_EEspclsr3stdE7declvalIT0_EEEEOS8_DpOS9_ CODE
 0001:0020e600 000000f4H .text$_ZNSt3__18__invokeB6v15007IRN12_GLOBAL__N_111DumpVisitorEJPKNS1_16itanium_demangle11EnumLiteralEEEEDTclclsr3stdE7declvalIT_EEspclsr3stdE7declvalIT0_EEEEOS8_DpOS9_ CODE
 0001:0020e700 000000f6H .text$_ZNSt3__18__invokeB6v15007IRN12_GLOBAL__N_111DumpVisitorEJPKNS1_16itanium_demangle10BracedExprEEEEDTclclsr3stdE7declvalIT_EEspclsr3stdE7declvalIT0_EEEEOS8_DpOS9_ CODE
 0001:0020e800 000000f6H .text$_ZNSt3__18__invokeB6v15007IRN12_GLOBAL__N_111DumpVisitorEJPKNS1_16itanium_demangle15BracedRangeExprEEEEDTclclsr3stdE7declvalIT_EEspclsr3stdE7declvalIT0_EEEEOS8_DpOS9_ CODE
 0001:0020e900 00000046H .text$_ZN12_GLOBAL__N_116itanium_demangle22AbstractManglingParserINS0_14ManglingParserINS_16DefaultAllocatorEEES3_E9consumeIfENS0_10StringViewE CODE
 0001:0020e950 00000c9cH .text$_ZN12_GLOBAL__N_116itanium_demangle22AbstractManglingParserINS0_14ManglingParserINS_16DefaultAllocatorEEES3_E13parseEncodingEv CODE
 0001:0020f5f0 00000069H .text$_ZN12_GLOBAL__N_116itanium_demangle22AbstractManglingParserINS0_14ManglingParserINS_16DefaultAllocatorEEES3_E11parseNumberEb CODE
 0001:0020f660 000000bbH .text$_ZN12_GLOBAL__N_116itanium_demangle22AbstractManglingParserINS0_14ManglingParserINS_16DefaultAllocatorEEES3_E4makeINS0_11SpecialNameEJRA34_KcRPNS0_4NodeEEEESC_DpOT0_ CODE
 0001:0020f720 000016d8H .text$_ZN12_GLOBAL__N_116itanium_demangle22AbstractManglingParserINS0_14ManglingParserINS_16DefaultAllocatorEEES3_E9parseTypeEv CODE
 0001:00210e00 0000075cH .text$_ZN12_GLOBAL__N_116itanium_demangle22AbstractManglingParserINS0_14ManglingParserINS_16DefaultAllocatorEEES3_E9parseNameEPNS5_9NameStateE CODE
 0001:00211560 0000026cH .text$_ZN12_GLOBAL__N_116itanium_demangle22AbstractManglingParserINS0_14ManglingParserINS_16DefaultAllocatorEEES3_E16parseTemplateArgEv CODE
 0001:002117d0 000000abH .text$_ZN12_GLOBAL__N_116itanium_demangle14PODSmallVectorIPNS0_4NodeELy32EE9push_backERKS3_ CODE
 0001:00211880 000000a2H .text$_ZN12_GLOBAL__N_116itanium_demangle22AbstractManglingParserINS0_14ManglingParserINS_16DefaultAllocatorEEES3_E4makeINS0_12EnableIfAttrEJNS0_9NodeArrayEEEEPNS0_4NodeEDpOT0_ CODE
 0001:00211930 00000177H .text$_ZN12_GLOBAL__N_116itanium_demangle22AbstractManglingParserINS0_14ManglingParserINS_16DefaultAllocatorEEES3_E20popTrailingNodeArrayEy CODE
 0001:00211ab0 000000f6H .text$_ZN12_GLOBAL__N_116itanium_demangle22AbstractManglingParserINS0_14ManglingParserINS_16DefaultAllocatorEEES3_E4makeINS0_16FunctionEncodingEJRPNS0_4NodeESA_NS0_9NodeArrayESA_RNS0_10QualifiersERNS0_15FunctionRefQualEEEES9_DpOT0_ CODE
 0001:00211bb0 00000201H .text$_ZZN12_GLOBAL__N_116itanium_demangle22AbstractManglingParserINS0_14ManglingParserINS_16DefaultAllocatorEEES3_E13parseEncodingEvEN18SaveTemplateParamsD2Ev CODE
 0001:00211dc0 000000b0H .text$_ZN12_GLOBAL__N_116itanium_demangle22AbstractManglingParserINS0_14ManglingParserINS_16DefaultAllocatorEEES3_E4makeINS0_11SpecialNameEJRA31_KcRPNS0_4NodeEEEESC_DpOT0_ CODE
 0001:00211e70 000000b0H .text$_ZN12_GLOBAL__N_116itanium_demangle22AbstractManglingParserINS0_14ManglingParserINS_16DefaultAllocatorEEES3_E4makeINS0_11SpecialNameEJRA12_KcRPNS0_4NodeEEEESC_DpOT0_ CODE
 0001:00211f20 000000b0H .text$_ZN12_GLOBAL__N_116itanium_demangle22AbstractManglingParserINS0_14ManglingParserINS_16DefaultAllocatorEEES3_E4makeINS0_11SpecialNameEJRA9_KcRPNS0_4NodeEEEESC_DpOT0_ CODE
 0001:00211fd0 000000b0H .text$_ZN12_GLOBAL__N_116itanium_demangle22AbstractManglingParserINS0_14ManglingParserINS_16DefaultAllocatorEEES3_E4makeINS0_11SpecialNameEJRA14_KcRPNS0_4NodeEEEESC_DpOT0_ CODE
 0001:00212080 000000b0H .text$_ZN12_GLOBAL__N_116itanium_demangle22AbstractManglingParserINS0_14ManglingParserINS_16DefaultAllocatorEEES3_E4makeINS0_11SpecialNameEJRA19_KcRPNS0_4NodeEEEESC_DpOT0_ CODE
 0001:00212130 0000016eH .text$_ZN12_GLOBAL__N_116itanium_demangle22AbstractManglingParserINS0_14ManglingParserINS_16DefaultAllocatorEEES3_E15parseCallOffsetEv CODE
 0001:002122a0 000000b0H .text$_ZN12_GLOBAL__N_116itanium_demangle22AbstractManglingParserINS0_14ManglingParserINS_16DefaultAllocatorEEES3_E4makeINS0_11SpecialNameEJRA27_KcRPNS0_4NodeEEEESC_DpOT0_ CODE
 0001:00212350 000000a7H .text$_ZN12_GLOBAL__N_116itanium_demangle22AbstractManglingParserINS0_14ManglingParserINS_16DefaultAllocatorEEES3_E4makeINS0_21CtorVtableSpecialNameEJRPNS0_4NodeESA_EEES9_DpOT0_ CODE
 0001:00212400 000000b0H .text$_ZN12_GLOBAL__N_116itanium_demangle22AbstractManglingParserINS0_14ManglingParserINS_16DefaultAllocatorEEES3_E4makeINS0_11SpecialNameEJRA41_KcRPNS0_4NodeEEEESC_DpOT0_ CODE
 0001:002124b0 000000b0H .text$_ZN12_GLOBAL__N_116itanium_demangle22AbstractManglingParserINS0_14ManglingParserINS_16DefaultAllocatorEEES3_E4makeINS0_11SpecialNameEJRA18_KcRPNS0_4NodeEEEESC_DpOT0_ CODE
 0001:00212560 000000b0H .text$_ZN12_GLOBAL__N_116itanium_demangle22AbstractManglingParserINS0_14ManglingParserINS_16DefaultAllocatorEEES3_E4makeINS0_11SpecialNameEJRA22_KcRPNS0_4NodeEEEESC_DpOT0_ CODE
 0001:00212610 000000b0H .text$_ZN12_GLOBAL__N_116itanium_demangle22AbstractManglingParserINS0_14ManglingParserINS_16DefaultAllocatorEEES3_E4makeINS0_11SpecialNameEJRA25_KcRPNS0_4NodeEEEESC_DpOT0_ CODE
 0001:002126c0 000001f2H .text$_ZN12_GLOBAL__N_116itanium_demangle22AbstractManglingParserINS0_14ManglingParserINS_16DefaultAllocatorEEES3_E18parseModuleNameOptERPNS0_10ModuleNameE CODE
 0001:002128c0 00000003H .text$_ZNK12_GLOBAL__N_116itanium_demangle4Node19hasRHSComponentSlowERNS0_12OutputBufferE CODE
 0001:002128d0 00000003H .text$_ZNK12_GLOBAL__N_116itanium_demangle4Node12hasArraySlowERNS0_12OutputBufferE CODE
 0001:002128e0 00000003H .text$_ZNK12_GLOBAL__N_116itanium_demangle4Node15hasFunctionSlowERNS0_12OutputBufferE CODE
 0001:002128f0 00000004H .text$_ZNK12_GLOBAL__N_116itanium_demangle4Node13getSyntaxNodeERNS0_12OutputBufferE CODE
 0001:00212900 000000afH .text$_ZNK12_GLOBAL__N_116itanium_demangle11SpecialName9printLeftERNS0_12OutputBufferE CODE
 0001:002129b0 00000001H .text$_ZNK12_GLOBAL__N_116itanium_demangle4Node10printRightERNS0_12OutputBufferE CODE
 0001:002129c0 0000000aH .text$_ZNK12_GLOBAL__N_116itanium_demangle4Node11getBaseNameEv CODE
 0001:002129d0 00000005H .text$_ZN12_GLOBAL__N_116itanium_demangle11SpecialNameD0Ev CODE
 0001:002129e0 0000011fH .text$_ZNK12_GLOBAL__N_116itanium_demangle21CtorVtableSpecialName9printLeftERNS0_12OutputBufferE CODE
 0001:00212b00 00000005H .text$_ZN12_GLOBAL__N_116itanium_demangle21CtorVtableSpecialNameD0Ev CODE
 0001:00212b10 000001adH .text$_ZN12_GLOBAL__N_116itanium_demangle22AbstractManglingParserINS0_14ManglingParserINS_16DefaultAllocatorEEES3_E15parseSourceNameEPNS5_9NameStateE CODE
 0001:00212cc0 000000a2H .text$_ZN12_GLOBAL__N_116itanium_demangle22AbstractManglingParserINS0_14ManglingParserINS_16DefaultAllocatorEEES3_E4makeINS0_8NameTypeEJRNS0_10StringViewEEEEPNS0_4NodeEDpOT0_ CODE
 0001:00212d70 00000075H .text$_ZNK12_GLOBAL__N_116itanium_demangle8NameType9printLeftERNS0_12OutputBufferE CODE
 0001:00212df0 0000000bH .text$_ZNK12_GLOBAL__N_116itanium_demangle8NameType11getBaseNameEv CODE
 0001:00212e00 00000005H .text$_ZN12_GLOBAL__N_116itanium_demangle8NameTypeD0Ev CODE
 0001:00212e10 000000e3H .text$_ZNK12_GLOBAL__N_116itanium_demangle10ModuleName9printLeftERNS0_12OutputBufferE CODE
 0001:00212f00 00000005H .text$_ZN12_GLOBAL__N_116itanium_demangle10ModuleNameD0Ev CODE
 0001:00212f10 0000016fH .text$_ZN12_GLOBAL__N_116itanium_demangle22AbstractManglingParserINS0_14ManglingParserINS_16DefaultAllocatorEEES3_E17parseUnscopedNameEPNS5_9NameStateEPb CODE
 0001:00213080 00000764H .text$_ZN12_GLOBAL__N_116itanium_demangle22AbstractManglingParserINS0_14ManglingParserINS_16DefaultAllocatorEEES3_E17parseTemplateArgsEb CODE
 0001:002137f0 000000a7H .text$_ZN12_GLOBAL__N_116itanium_demangle22AbstractManglingParserINS0_14ManglingParserINS_16DefaultAllocatorEEES3_E4makeINS0_20NameWithTemplateArgsEJRPNS0_4NodeESA_EEES9_DpOT0_ CODE
 0001:002138a0 000003b3H .text$_ZN12_GLOBAL__N_116itanium_demangle22AbstractManglingParserINS0_14ManglingParserINS_16DefaultAllocatorEEES3_E18parseTemplateParamEv CODE
 0001:00213c60 00000124H .text$_ZN12_GLOBAL__N_116itanium_demangle22AbstractManglingParserINS0_14ManglingParserINS_16DefaultAllocatorEEES3_E13parseDecltypeEv CODE
 0001:00213d90 000002e8H .text$_ZN12_GLOBAL__N_116itanium_demangle22AbstractManglingParserINS0_14ManglingParserINS_16DefaultAllocatorEEES3_E17parseSubstitutionEv CODE
 0001:00214080 000005aaH .text$_ZN12_GLOBAL__N_116itanium_demangle22AbstractManglingParserINS0_14ManglingParserINS_16DefaultAllocatorEEES3_E20parseUnqualifiedNameEPNS5_9NameStateEPNS0_4NodeEPNS0_10ModuleNameE CODE
 0001:00214630 000000abH .text$_ZN12_GLOBAL__N_116itanium_demangle14PODSmallVectorIPNS1_IPNS0_4NodeELy8EEELy4EE9push_backERKS5_ CODE
 0001:002146e0 000000acH .text$_ZN12_GLOBAL__N_116itanium_demangle22AbstractManglingParserINS0_14ManglingParserINS_16DefaultAllocatorEEES3_E4makeINS0_8NameTypeEJRA5_KcEEEPNS0_4NodeEDpOT0_ CODE
 0001:00214790 0000004bH .text$_ZNK12_GLOBAL__N_116itanium_demangle24ForwardTemplateReference19hasRHSComponentSlowERNS0_12OutputBufferE CODE
 0001:002147e0 0000004fH .text$_ZNK12_GLOBAL__N_116itanium_demangle24ForwardTemplateReference12hasArraySlowERNS0_12OutputBufferE CODE
 0001:00214830 0000004fH .text$_ZNK12_GLOBAL__N_116itanium_demangle24ForwardTemplateReference15hasFunctionSlowERNS0_12OutputBufferE CODE
 0001:00214880 00000039H .text$_ZNK12_GLOBAL__N_116itanium_demangle24ForwardTemplateReference13getSyntaxNodeERNS0_12OutputBufferE CODE
 0001:002148c0 00000039H .text$_ZNK12_GLOBAL__N_116itanium_demangle24ForwardTemplateReference9printLeftERNS0_12OutputBufferE CODE
 0001:00214900 00000039H .text$_ZNK12_GLOBAL__N_116itanium_demangle24ForwardTemplateReference10printRightERNS0_12OutputBufferE CODE
 0001:00214940 00000005H .text$_ZN12_GLOBAL__N_116itanium_demangle24ForwardTemplateReferenceD0Ev CODE
 0001:00214950 000014f8H .text$_ZN12_GLOBAL__N_116itanium_demangle22AbstractManglingParserINS0_14ManglingParserINS_16DefaultAllocatorEEES3_E9parseExprEv CODE
 0001:00215e50 000000cbH .text$_ZN12_GLOBAL__N_116itanium_demangle22AbstractManglingParserINS0_14ManglingParserINS_16DefaultAllocatorEEES3_E4makeINS0_11PostfixExprEJRPNS0_4NodeERNS0_10StringViewENS8_4PrecEEEES9_DpOT0_ CODE
 0001:00215f20 000000bcH .text$_ZN12_GLOBAL__N_116itanium_demangle22AbstractManglingParserINS0_14ManglingParserINS_16DefaultAllocatorEEES3_E4makeINS0_18ArraySubscriptExprEJRPNS0_4NodeESA_NS8_4PrecEEEES9_DpOT0_ CODE
 0001:00215fe0 000000daH .text$_ZN12_GLOBAL__N_116itanium_demangle22AbstractManglingParserINS0_14ManglingParserINS_16DefaultAllocatorEEES3_E4makeINS0_10MemberExprEJRPNS0_4NodeERNS0_10StringViewESA_NS8_4PrecEEEES9_DpOT0_ CODE
 0001:002160c0 00000100H .text$_ZN12_GLOBAL__N_116itanium_demangle22AbstractManglingParserINS0_14ManglingParserINS_16DefaultAllocatorEEES3_E4makeINS0_7NewExprEJRNS0_9NodeArrayERPNS0_4NodeES9_RbbNSA_4PrecEEEESB_DpOT0_ CODE
 0001:002161c0 000000cbH .text$_ZN12_GLOBAL__N_116itanium_demangle22AbstractManglingParserINS0_14ManglingParserINS_16DefaultAllocatorEEES3_E4makeINS0_8CallExprEJRPNS0_4NodeENS0_9NodeArrayENS8_4PrecEEEES9_DpOT0_ CODE
 0001:00216290 000000cbH .text$_ZN12_GLOBAL__N_116itanium_demangle22AbstractManglingParserINS0_14ManglingParserINS_16DefaultAllocatorEEES3_E4makeINS0_14ConversionExprEJRPNS0_4NodeERNS0_9NodeArrayENS8_4PrecEEEES9_DpOT0_ CODE
 0001:00216360 000000cdH .text$_ZN12_GLOBAL__N_116itanium_demangle22AbstractManglingParserINS0_14ManglingParserINS_16DefaultAllocatorEEES3_E4makeINS0_15ConditionalExprEJRPNS0_4NodeESA_SA_NS8_4PrecEEEES9_DpOT0_ CODE
 0001:00216430 000000d9H .text$_ZN12_GLOBAL__N_116itanium_demangle22AbstractManglingParserINS0_14ManglingParserINS_16DefaultAllocatorEEES3_E4makeINS0_8CastExprEJRNS0_10StringViewERPNS0_4NodeESC_NSA_4PrecEEEESB_DpOT0_ CODE
 0001:00216510 00000bd0H .text$_ZN12_GLOBAL__N_116itanium_demangle22AbstractManglingParserINS0_14ManglingParserINS_16DefaultAllocatorEEES3_E16parseExprPrimaryEv CODE
 0001:002170e0 00000382H .text$_ZN12_GLOBAL__N_116itanium_demangle22AbstractManglingParserINS0_14ManglingParserINS_16DefaultAllocatorEEES3_E18parseFunctionParamEv CODE
 0001:00217470 000002d1H .text$_ZN12_GLOBAL__N_116itanium_demangle22AbstractManglingParserINS0_14ManglingParserINS_16DefaultAllocatorEEES3_E13parseFoldExprEv CODE
 0001:00217750 000002b8H .text$_ZN12_GLOBAL__N_116itanium_demangle22AbstractManglingParserINS0_14ManglingParserINS_16DefaultAllocatorEEES3_E15parseBracedExprEv CODE
 0001:00217a10 000000abH .text$_ZN12_GLOBAL__N_116itanium_demangle22AbstractManglingParserINS0_14ManglingParserINS_16DefaultAllocatorEEES3_E4makeINS0_12InitListExprEJDnNS0_9NodeArrayEEEEPNS0_4NodeEDpOT0_ CODE
 0001:00217ac0 0000016cH .text$_ZN12_GLOBAL__N_116itanium_demangle22AbstractManglingParserINS0_14ManglingParserINS_16DefaultAllocatorEEES3_E34parsePointerToMemberConversionExprENS0_4Node4PrecE CODE
 0001:00217c30 000000d1H .text$_ZN12_GLOBAL__N_116itanium_demangle22AbstractManglingParserINS0_14ManglingParserINS_16DefaultAllocatorEEES3_E4makeINS0_13EnclosingExprEJRA10_KcRPNS0_4NodeENSB_4PrecEEEESC_DpOT0_ CODE
 0001:00217d10 00000395H .text$_ZN12_GLOBAL__N_116itanium_demangle22AbstractManglingParserINS0_14ManglingParserINS_16DefaultAllocatorEEES3_E18parseSubobjectExprEv CODE
 0001:002180b0 00000098H .text$_ZN12_GLOBAL__N_116itanium_demangle22AbstractManglingParserINS0_14ManglingParserINS_16DefaultAllocatorEEES3_E4makeINS0_22ParameterPackExpansionEJRPNS0_4NodeEEEES9_DpOT0_ CODE
 0001:00218150 00000098H .text$_ZN12_GLOBAL__N_116itanium_demangle22AbstractManglingParserINS0_14ManglingParserINS_16DefaultAllocatorEEES3_E4makeINS0_19SizeofParamPackExprEJRPNS0_4NodeEEEES9_DpOT0_ CODE
 0001:002181f0 000000b8H .text$_ZN12_GLOBAL__N_116itanium_demangle22AbstractManglingParserINS0_14ManglingParserINS_16DefaultAllocatorEEES3_E4makeINS0_13EnclosingExprEJRA11_KcRPNS0_4NodeEEEESC_DpOT0_ CODE
 0001:002182b0 000000a2H .text$_ZN12_GLOBAL__N_116itanium_demangle22AbstractManglingParserINS0_14ManglingParserINS_16DefaultAllocatorEEES3_E4makeINS0_13NodeArrayNodeEJNS0_9NodeArrayEEEEPNS0_4NodeEDpOT0_ CODE
 0001:00218360 000000b2H .text$_ZN12_GLOBAL__N_116itanium_demangle22AbstractManglingParserINS0_14ManglingParserINS_16DefaultAllocatorEEES3_E4makeINS0_12InitListExprEJRPNS0_4NodeENS0_9NodeArrayEEEES9_DpOT0_ CODE
 0001:00218420 000000acH .text$_ZN12_GLOBAL__N_116itanium_demangle22AbstractManglingParserINS0_14ManglingParserINS_16DefaultAllocatorEEES3_E4makeINS0_8NameTypeEJRA6_KcEEEPNS0_4NodeEDpOT0_ CODE
 0001:002184d0 00000098H .text$_ZN12_GLOBAL__N_116itanium_demangle22AbstractManglingParserINS0_14ManglingParserINS_16DefaultAllocatorEEES3_E4makeINS0_9ThrowExprEJRPNS0_4NodeEEEES9_DpOT0_ CODE
 0001:00218570 000006f8H .text$_ZN12_GLOBAL__N_116itanium_demangle22AbstractManglingParserINS0_14ManglingParserINS_16DefaultAllocatorEEES3_E19parseUnresolvedNameEb CODE
 0001:00218c70 000000daH .text$_ZN12_GLOBAL__N_116itanium_demangle22AbstractManglingParserINS0_14ManglingParserINS_16DefaultAllocatorEEES3_E4makeINS0_10BinaryExprEJRPNS0_4NodeERNS0_10StringViewESA_RNS8_4PrecEEEES9_DpOT0_ CODE
 0001:00218d50 00000294H .text$_ZNK12_GLOBAL__N_116itanium_demangle10BinaryExpr9printLeftERNS0_12OutputBufferE CODE
 0001:00218ff0 00000005H .text$_ZN12_GLOBAL__N_116itanium_demangle10BinaryExprD0Ev CODE
 0001:00219000 0000011fH .text$_ZNK12_GLOBAL__N_116itanium_demangle4Node14printAsOperandERNS0_12OutputBufferENS1_4PrecEb CODE
 0001:00219120 000000caH .text$_ZN12_GLOBAL__N_116itanium_demangle22AbstractManglingParserINS0_14ManglingParserINS_16DefaultAllocatorEEES3_E4makeINS0_10PrefixExprEJRNS0_10StringViewERPNS0_4NodeERNSA_4PrecEEEESB_DpOT0_ CODE
 0001:002191f0 00000096H .text$_ZNK12_GLOBAL__N_116itanium_demangle10PrefixExpr9printLeftERNS0_12OutputBufferE CODE
 0001:00219290 00000005H .text$_ZN12_GLOBAL__N_116itanium_demangle10PrefixExprD0Ev CODE
 0001:002192a0 00000090H .text$_ZNK12_GLOBAL__N_116itanium_demangle11PostfixExpr9printLeftERNS0_12OutputBufferE CODE
 0001:00219330 00000005H .text$_ZN12_GLOBAL__N_116itanium_demangle11PostfixExprD0Ev CODE
 0001:00219340 000000e8H .text$_ZNK12_GLOBAL__N_116itanium_demangle18ArraySubscriptExpr9printLeftERNS0_12OutputBufferE CODE
 0001:00219430 00000005H .text$_ZN12_GLOBAL__N_116itanium_demangle18ArraySubscriptExprD0Ev CODE
 0001:00219440 000000aeH .text$_ZNK12_GLOBAL__N_116itanium_demangle10MemberExpr9printLeftERNS0_12OutputBufferE CODE
 0001:002194f0 00000005H .text$_ZN12_GLOBAL__N_116itanium_demangle10MemberExprD0Ev CODE
 0001:00219500 00000305H .text$_ZNK12_GLOBAL__N_116itanium_demangle7NewExpr9printLeftERNS0_12OutputBufferE CODE
 0001:00219810 00000005H .text$_ZN12_GLOBAL__N_116itanium_demangle7NewExprD0Ev CODE
 0001:00219820 000000f8H .text$_ZNK12_GLOBAL__N_116itanium_demangle9NodeArray14printWithCommaERNS0_12OutputBufferE CODE
 0001:00219920 0000019dH .text$_ZNK12_GLOBAL__N_116itanium_demangle10DeleteExpr9printLeftERNS0_12OutputBufferE CODE
 0001:00219ac0 00000005H .text$_ZN12_GLOBAL__N_116itanium_demangle10DeleteExprD0Ev CODE
 0001:00219ad0 000000e9H .text$_ZNK12_GLOBAL__N_116itanium_demangle8CallExpr9printLeftERNS0_12OutputBufferE CODE
 0001:00219bc0 00000005H .text$_ZN12_GLOBAL__N_116itanium_demangle8CallExprD0Ev CODE
 0001:00219bd0 00000190H .text$_ZNK12_GLOBAL__N_116itanium_demangle14ConversionExpr9printLeftERNS0_12OutputBufferE CODE
 0001:00219d60 00000005H .text$_ZN12_GLOBAL__N_116itanium_demangle14ConversionExprD0Ev CODE
 0001:00219d70 000000fcH .text$_ZNK12_GLOBAL__N_116itanium_demangle15ConditionalExpr9printLeftERNS0_12OutputBufferE CODE
 0001:00219e70 00000005H .text$_ZN12_GLOBAL__N_116itanium_demangle15ConditionalExprD0Ev CODE
 0001:00219e80 000001f5H .text$_ZNK12_GLOBAL__N_116itanium_demangle8CastExpr9printLeftERNS0_12OutputBufferE CODE
 0001:0021a080 00000005H .text$_ZN12_GLOBAL__N_116itanium_demangle8CastExprD0Ev CODE
 0001:0021a090 000001a6H .text$_ZNK12_GLOBAL__N_116itanium_demangle13EnclosingExpr9printLeftERNS0_12OutputBufferE CODE
 0001:0021a240 00000005H .text$_ZN12_GLOBAL__N_116itanium_demangle13EnclosingExprD0Ev CODE
 0001:0021a250 0000013aH .text$_ZN12_GLOBAL__N_116itanium_demangle22AbstractManglingParserINS0_14ManglingParserINS_16DefaultAllocatorEEES3_E19parseIntegerLiteralENS0_10StringViewE CODE
 0001:0021a390 00000096H .text$_ZN12_GLOBAL__N_116itanium_demangle22AbstractManglingParserINS0_14ManglingParserINS_16DefaultAllocatorEEES3_E4makeINS0_8BoolExprEJiEEEPNS0_4NodeEDpOT0_ CODE
 0001:0021a430 00000098H .text$_ZN12_GLOBAL__N_116itanium_demangle22AbstractManglingParserINS0_14ManglingParserINS_16DefaultAllocatorEEES3_E4makeINS0_13StringLiteralEJRPNS0_4NodeEEEES9_DpOT0_ CODE
 0001:0021a4d0 000000acH .text$_ZN12_GLOBAL__N_116itanium_demangle22AbstractManglingParserINS0_14ManglingParserINS_16DefaultAllocatorEEES3_E4makeINS0_8NameTypeEJRA8_KcEEEPNS0_4NodeEDpOT0_ CODE
 0001:0021a580 00000838H .text$_ZN12_GLOBAL__N_116itanium_demangle22AbstractManglingParserINS0_14ManglingParserINS_16DefaultAllocatorEEES3_E20parseUnnamedTypeNameEPNS5_9NameStateE CODE
 0001:0021adc0 00000098H .text$_ZN12_GLOBAL__N_116itanium_demangle22AbstractManglingParserINS0_14ManglingParserINS_16DefaultAllocatorEEES3_E4makeINS0_10LambdaExprEJRPNS0_4NodeEEEES9_DpOT0_ CODE
 0001:0021ae60 000000b2H .text$_ZN12_GLOBAL__N_116itanium_demangle22AbstractManglingParserINS0_14ManglingParserINS_16DefaultAllocatorEEES3_E4makeINS0_11EnumLiteralEJRPNS0_4NodeERNS0_10StringViewEEEES9_DpOT0_ CODE
 0001:0021af20 0000027aH .text$_ZNK12_GLOBAL__N_116itanium_demangle14IntegerLiteral9printLeftERNS0_12OutputBufferE CODE
 0001:0021b1a0 00000005H .text$_ZN12_GLOBAL__N_116itanium_demangle14IntegerLiteralD0Ev CODE
 0001:0021b1b0 00000095H .text$_ZNK12_GLOBAL__N_116itanium_demangle8BoolExpr9printLeftERNS0_12OutputBufferE CODE
 0001:0021b250 00000005H .text$_ZN12_GLOBAL__N_116itanium_demangle8BoolExprD0Ev CODE
 0001:0021b260 000001cfH .text$_ZNK12_GLOBAL__N_116itanium_demangle16FloatLiteralImplIfE9printLeftERNS0_12OutputBufferE CODE
 0001:0021b430 00000005H .text$_ZN12_GLOBAL__N_116itanium_demangle16FloatLiteralImplIfED0Ev CODE
 0001:0021b440 0000029fH .text$_ZNK12_GLOBAL__N_116itanium_demangle16FloatLiteralImplIdE9printLeftERNS0_12OutputBufferE CODE
 0001:0021b6e0 00000005H .text$_ZN12_GLOBAL__N_116itanium_demangle16FloatLiteralImplIdED0Ev CODE
 0001:0021b6f0 00000318H .text$_ZNK12_GLOBAL__N_116itanium_demangle16FloatLiteralImplIeE9printLeftERNS0_12OutputBufferE CODE
 0001:0021ba10 00000005H .text$_ZN12_GLOBAL__N_116itanium_demangle16FloatLiteralImplIeED0Ev CODE
 0001:0021ba20 000000d7H .text$_ZNK12_GLOBAL__N_116itanium_demangle13StringLiteral9printLeftERNS0_12OutputBufferE CODE
 0001:0021bb00 00000005H .text$_ZN12_GLOBAL__N_116itanium_demangle13StringLiteralD0Ev CODE
 0001:0021bb10 000005adH .text$_ZN12_GLOBAL__N_116itanium_demangle22AbstractManglingParserINS0_14ManglingParserINS_16DefaultAllocatorEEES3_E22parseTemplateParamDeclEv CODE
 0001:0021c0c0 00000071H .text$_ZN12_GLOBAL__N_116itanium_demangle22AbstractManglingParserINS0_14ManglingParserINS_16DefaultAllocatorEEES3_E23ScopedTemplateParamListD2Ev CODE
 0001:0021c140 0000011bH .text$_ZNK12_GLOBAL__N_116itanium_demangle15UnnamedTypeName9printLeftERNS0_12OutputBufferE CODE
 0001:0021c260 00000005H .text$_ZN12_GLOBAL__N_116itanium_demangle15UnnamedTypeNameD0Ev CODE
 0001:0021c270 00000172H .text$_ZZN12_GLOBAL__N_116itanium_demangle22AbstractManglingParserINS0_14ManglingParserINS_16DefaultAllocatorEEES3_E22parseTemplateParamDeclEvENKUlNS0_17TemplateParamKindEE_clES6_ CODE
 0001:0021c3f0 000001e8H .text$_ZNK12_GLOBAL__N_116itanium_demangle26SyntheticTemplateParamName9printLeftERNS0_12OutputBufferE CODE
 0001:0021c5e0 00000005H .text$_ZN12_GLOBAL__N_116itanium_demangle26SyntheticTemplateParamNameD0Ev CODE
 0001:0021c5f0 0000006bH .text$_ZNK12_GLOBAL__N_116itanium_demangle21TypeTemplateParamDecl9printLeftERNS0_12OutputBufferE CODE
 0001:0021c660 0000003dH .text$_ZNK12_GLOBAL__N_116itanium_demangle21TypeTemplateParamDecl10printRightERNS0_12OutputBufferE CODE
 0001:0021c6a0 00000005H .text$_ZN12_GLOBAL__N_116itanium_demangle21TypeTemplateParamDeclD0Ev CODE
 0001:0021c6b0 00000088H .text$_ZNK12_GLOBAL__N_116itanium_demangle24NonTypeTemplateParamDecl9printLeftERNS0_12OutputBufferE CODE
 0001:0021c740 00000048H .text$_ZNK12_GLOBAL__N_116itanium_demangle24NonTypeTemplateParamDecl10printRightERNS0_12OutputBufferE CODE
 0001:0021c790 00000005H .text$_ZN12_GLOBAL__N_116itanium_demangle24NonTypeTemplateParamDeclD0Ev CODE
 0001:0021c7a0 000000f7H .text$_ZNK12_GLOBAL__N_116itanium_demangle25TemplateTemplateParamDecl9printLeftERNS0_12OutputBufferE CODE
 0001:0021c8a0 0000003dH .text$_ZNK12_GLOBAL__N_116itanium_demangle25TemplateTemplateParamDecl10printRightERNS0_12OutputBufferE CODE
 0001:0021c8e0 00000005H .text$_ZN12_GLOBAL__N_116itanium_demangle25TemplateTemplateParamDeclD0Ev CODE
 0001:0021c8f0 0000006dH .text$_ZNK12_GLOBAL__N_116itanium_demangle21TemplateParamPackDecl9printLeftERNS0_12OutputBufferE CODE
 0001:0021c960 0000000eH .text$_ZNK12_GLOBAL__N_116itanium_demangle21TemplateParamPackDecl10printRightERNS0_12OutputBufferE CODE
 0001:0021c970 00000005H .text$_ZN12_GLOBAL__N_116itanium_demangle21TemplateParamPackDeclD0Ev CODE
 0001:0021c980 0000012aH .text$_ZNK12_GLOBAL__N_116itanium_demangle15ClosureTypeName9printLeftERNS0_12OutputBufferE CODE
 0001:0021cab0 00000005H .text$_ZN12_GLOBAL__N_116itanium_demangle15ClosureTypeNameD0Ev CODE
 0001:0021cac0 00000196H .text$_ZNK12_GLOBAL__N_116itanium_demangle15ClosureTypeName15printDeclaratorERNS0_12OutputBufferE CODE
 0001:0021cc60 000000d2H .text$_ZNK12_GLOBAL__N_116itanium_demangle10LambdaExpr9printLeftERNS0_12OutputBufferE CODE
 0001:0021cd40 00000005H .text$_ZN12_GLOBAL__N_116itanium_demangle10LambdaExprD0Ev CODE
 0001:0021cd50 000001c2H .text$_ZNK12_GLOBAL__N_116itanium_demangle11EnumLiteral9printLeftERNS0_12OutputBufferE CODE
 0001:0021cf20 00000005H .text$_ZN12_GLOBAL__N_116itanium_demangle11EnumLiteralD0Ev CODE
 0001:0021cf30 000000a2H .text$_ZN12_GLOBAL__N_116itanium_demangle22AbstractManglingParserINS0_14ManglingParserINS_16DefaultAllocatorEEES3_E4makeINS0_13FunctionParamEJRNS0_10StringViewEEEEPNS0_4NodeEDpOT0_ CODE
 0001:0021cfe0 000000c5H .text$_ZNK12_GLOBAL__N_116itanium_demangle13FunctionParam9printLeftERNS0_12OutputBufferE CODE
 0001:0021d0b0 00000001H .text$_ZN12_GLOBAL__N_116itanium_demangle4NodeD2Ev CODE
 0001:0021d0c0 00000005H .text$_ZN12_GLOBAL__N_116itanium_demangle13FunctionParamD0Ev CODE
 0001:0021d0d0 0000039fH .text$_ZNK12_GLOBAL__N_116itanium_demangle8FoldExpr9printLeftERNS0_12OutputBufferE CODE
 0001:0021d470 00000005H .text$_ZN12_GLOBAL__N_116itanium_demangle8FoldExprD0Ev CODE
 0001:0021d480 00000106H .text$_ZZNK12_GLOBAL__N_116itanium_demangle8FoldExpr9printLeftERNS0_12OutputBufferEENKUlvE_clEv CODE
 0001:0021d590 00000182H .text$_ZNK12_GLOBAL__N_116itanium_demangle22ParameterPackExpansion9printLeftERNS0_12OutputBufferE CODE
 0001:0021d720 00000005H .text$_ZN12_GLOBAL__N_116itanium_demangle22ParameterPackExpansionD0Ev CODE
 0001:0021d730 000001e5H .text$_ZNK12_GLOBAL__N_116itanium_demangle10BracedExpr9printLeftERNS0_12OutputBufferE CODE
 0001:0021d920 00000005H .text$_ZN12_GLOBAL__N_116itanium_demangle10BracedExprD0Ev CODE
 0001:0021d930 000001e7H .text$_ZNK12_GLOBAL__N_116itanium_demangle15BracedRangeExpr9printLeftERNS0_12OutputBufferE CODE
 0001:0021db20 00000005H .text$_ZN12_GLOBAL__N_116itanium_demangle15BracedRangeExprD0Ev CODE
 0001:0021db30 000000ebH .text$_ZNK12_GLOBAL__N_116itanium_demangle12InitListExpr9printLeftERNS0_12OutputBufferE CODE
 0001:0021dc20 00000005H .text$_ZN12_GLOBAL__N_116itanium_demangle12InitListExprD0Ev CODE
 0001:0021dc30 000001abH .text$_ZNK12_GLOBAL__N_116itanium_demangle29PointerToMemberConversionExpr9printLeftERNS0_12OutputBufferE CODE
 0001:0021dde0 00000005H .text$_ZN12_GLOBAL__N_116itanium_demangle29PointerToMemberConversionExprD0Ev CODE
 0001:0021ddf0 000000a2H .text$_ZN12_GLOBAL__N_116itanium_demangle22AbstractManglingParserINS0_14ManglingParserINS_16DefaultAllocatorEEES3_E4makeINS0_8NameTypeEJNS0_10StringViewEEEEPNS0_4NodeEDpOT0_ CODE
 0001:0021dea0 0000028dH .text$_ZNK12_GLOBAL__N_116itanium_demangle13SubobjectExpr9printLeftERNS0_12OutputBufferE CODE
 0001:0021e130 00000005H .text$_ZN12_GLOBAL__N_116itanium_demangle13SubobjectExprD0Ev CODE
 0001:0021e140 0000014cH .text$_ZNK12_GLOBAL__N_116itanium_demangle19SizeofParamPackExpr9printLeftERNS0_12OutputBufferE CODE
 0001:0021e290 00000005H .text$_ZN12_GLOBAL__N_116itanium_demangle19SizeofParamPackExprD0Ev CODE
 0001:0021e2a0 00000009H .text$_ZNK12_GLOBAL__N_116itanium_demangle13NodeArrayNode9printLeftERNS0_12OutputBufferE CODE
 0001:0021e2b0 00000005H .text$_ZN12_GLOBAL__N_116itanium_demangle13NodeArrayNodeD0Ev CODE
 0001:0021e2c0 0000009bH .text$_ZNK12_GLOBAL__N_116itanium_demangle9ThrowExpr9printLeftERNS0_12OutputBufferE CODE
 0001:0021e360 00000005H .text$_ZN12_GLOBAL__N_116itanium_demangle9ThrowExprD0Ev CODE
 0001:0021e370 0000017fH .text$_ZN12_GLOBAL__N_116itanium_demangle22AbstractManglingParserINS0_14ManglingParserINS_16DefaultAllocatorEEES3_E19parseUnresolvedTypeEv CODE
 0001:0021e4f0 000000ddH .text$_ZN12_GLOBAL__N_116itanium_demangle22AbstractManglingParserINS0_14ManglingParserINS_16DefaultAllocatorEEES3_E13parseSimpleIdEv CODE
 0001:0021e5d0 00000221H .text$_ZN12_GLOBAL__N_116itanium_demangle22AbstractManglingParserINS0_14ManglingParserINS_16DefaultAllocatorEEES3_E23parseBaseUnresolvedNameEv CODE
 0001:0021e800 000000b9H .text$_ZNK12_GLOBAL__N_116itanium_demangle13QualifiedName9printLeftERNS0_12OutputBufferE CODE
 0001:0021e8c0 0000001bH .text$_ZNK12_GLOBAL__N_116itanium_demangle13QualifiedName11getBaseNameEv CODE
 0001:0021e8e0 00000005H .text$_ZN12_GLOBAL__N_116itanium_demangle13QualifiedNameD0Ev CODE
 0001:0021e8f0 000003eeH .text$_ZN12_GLOBAL__N_116itanium_demangle22AbstractManglingParserINS0_14ManglingParserINS_16DefaultAllocatorEEES3_E17parseOperatorNameEPNS5_9NameStateE CODE
 0001:0021ece0 00000070H .text$_ZNK12_GLOBAL__N_116itanium_demangle8DtorName9printLeftERNS0_12OutputBufferE CODE
 0001:0021ed50 00000005H .text$_ZN12_GLOBAL__N_116itanium_demangle8DtorNameD0Ev CODE
 0001:0021ed60 000000a0H .text$_ZNK12_GLOBAL__N_116itanium_demangle22ConversionOperatorType9printLeftERNS0_12OutputBufferE CODE
 0001:0021ee00 00000005H .text$_ZN12_GLOBAL__N_116itanium_demangle22ConversionOperatorTypeD0Ev CODE
 0001:0021ee10 000000a3H .text$_ZNK12_GLOBAL__N_116itanium_demangle15LiteralOperator9printLeftERNS0_12OutputBufferE CODE
 0001:0021eec0 00000005H .text$_ZN12_GLOBAL__N_116itanium_demangle15LiteralOperatorD0Ev CODE
 0001:0021eed0 00000093H .text$_ZNK12_GLOBAL__N_116itanium_demangle19GlobalQualifiedName9printLeftERNS0_12OutputBufferE CODE
 0001:0021ef70 0000001bH .text$_ZNK12_GLOBAL__N_116itanium_demangle19GlobalQualifiedName11getBaseNameEv CODE
 0001:0021ef90 00000005H .text$_ZN12_GLOBAL__N_116itanium_demangle19GlobalQualifiedNameD0Ev CODE
 0001:0021efa0 00000186H .text$_ZN12_GLOBAL__N_116itanium_demangle22AbstractManglingParserINS0_14ManglingParserINS_16DefaultAllocatorEEES3_E12parseAbiTagsEPNS0_4NodeE CODE
 0001:0021f130 00000208H .text$_ZNK12_GLOBAL__N_116itanium_demangle19SpecialSubstitution9printLeftERNS0_12OutputBufferE CODE
 0001:0021f340 000000fcH .text$_ZNK12_GLOBAL__N_116itanium_demangle19SpecialSubstitution11getBaseNameEv CODE
 0001:0021f440 00000005H .text$_ZN12_GLOBAL__N_116itanium_demangle19SpecialSubstitutionD0Ev CODE
 0001:0021f450 000001ffH .text$_ZNK12_GLOBAL__N_116itanium_demangle27ExpandedSpecialSubstitution9printLeftERNS0_12OutputBufferE CODE
 0001:0021f650 0000002bH .text$_ZNK12_GLOBAL__N_116itanium_demangle27ExpandedSpecialSubstitution11getBaseNameEv CODE
 0001:0021f680 00000005H .text$_ZN12_GLOBAL__N_116itanium_demangle27ExpandedSpecialSubstitutionD0Ev CODE
 0001:0021f690 00000123H .text$_ZNK12_GLOBAL__N_116itanium_demangle10AbiTagAttr9printLeftERNS0_12OutputBufferE CODE
 0001:0021f7c0 00000005H .text$_ZN12_GLOBAL__N_116itanium_demangle10AbiTagAttrD0Ev CODE
 0001:0021f7d0 000000c6H .text$_ZNK12_GLOBAL__N_116itanium_demangle21StructuredBindingName9printLeftERNS0_12OutputBufferE CODE
 0001:0021f8a0 00000005H .text$_ZN12_GLOBAL__N_116itanium_demangle21StructuredBindingNameD0Ev CODE
 0001:0021f8b0 000000b0H .text$_ZN12_GLOBAL__N_116itanium_demangle22AbstractManglingParserINS0_14ManglingParserINS_16DefaultAllocatorEEES3_E4makeINS0_12CtorDtorNameEJRPNS0_4NodeEbRiEEES9_DpOT0_ CODE
 0001:0021f960 000000e0H .text$_ZNK12_GLOBAL__N_116itanium_demangle12CtorDtorName9printLeftERNS0_12OutputBufferE CODE
 0001:0021fa40 00000005H .text$_ZN12_GLOBAL__N_116itanium_demangle12CtorDtorNameD0Ev CODE
 0001:0021fa50 000000baH .text$_ZNK12_GLOBAL__N_116itanium_demangle12ModuleEntity9printLeftERNS0_12OutputBufferE CODE
 0001:0021fb10 0000001bH .text$_ZNK12_GLOBAL__N_116itanium_demangle12ModuleEntity11getBaseNameEv CODE
 0001:0021fb30 00000005H .text$_ZN12_GLOBAL__N_116itanium_demangle12ModuleEntityD0Ev CODE
 0001:0021fb40 000000b9H .text$_ZNK12_GLOBAL__N_116itanium_demangle10NestedName9printLeftERNS0_12OutputBufferE CODE
 0001:0021fc00 0000001bH .text$_ZNK12_GLOBAL__N_116itanium_demangle10NestedName11getBaseNameEv CODE
 0001:0021fc20 00000005H .text$_ZN12_GLOBAL__N_116itanium_demangle10NestedNameD0Ev CODE
 0001:0021fc30 00000092H .text$_ZN12_GLOBAL__N_116itanium_demangle19parse_discriminatorEPKcS2_ CODE
 0001:0021fcd0 000000acH .text$_ZN12_GLOBAL__N_116itanium_demangle22AbstractManglingParserINS0_14ManglingParserINS_16DefaultAllocatorEEES3_E4makeINS0_8NameTypeEJRA15_KcEEEPNS0_4NodeEDpOT0_ CODE
 0001:0021fd80 000000a7H .text$_ZN12_GLOBAL__N_116itanium_demangle22AbstractManglingParserINS0_14ManglingParserINS_16DefaultAllocatorEEES3_E4makeINS0_9LocalNameEJRPNS0_4NodeESA_EEES9_DpOT0_ CODE
 0001:0021fe30 000000b9H .text$_ZNK12_GLOBAL__N_116itanium_demangle9LocalName9printLeftERNS0_12OutputBufferE CODE
 0001:0021fef0 00000005H .text$_ZN12_GLOBAL__N_116itanium_demangle9LocalNameD0Ev CODE
 0001:0021ff00 0000004cH .text$_ZNK12_GLOBAL__N_116itanium_demangle13ParameterPack19hasRHSComponentSlowERNS0_12OutputBufferE CODE
 0001:0021ff50 00000050H .text$_ZNK12_GLOBAL__N_116itanium_demangle13ParameterPack12hasArraySlowERNS0_12OutputBufferE CODE
 0001:0021ffa0 00000050H .text$_ZNK12_GLOBAL__N_116itanium_demangle13ParameterPack15hasFunctionSlowERNS0_12OutputBufferE CODE
 0001:0021fff0 0000003fH .text$_ZNK12_GLOBAL__N_116itanium_demangle13ParameterPack13getSyntaxNodeERNS0_12OutputBufferE CODE
 0001:00220030 0000003cH .text$_ZNK12_GLOBAL__N_116itanium_demangle13ParameterPack9printLeftERNS0_12OutputBufferE CODE
 0001:00220070 0000003cH .text$_ZNK12_GLOBAL__N_116itanium_demangle13ParameterPack10printRightERNS0_12OutputBufferE CODE
 0001:002200b0 00000005H .text$_ZN12_GLOBAL__N_116itanium_demangle13ParameterPackD0Ev CODE
 0001:002200c0 000000d0H .text$_ZNK12_GLOBAL__N_116itanium_demangle12TemplateArgs9printLeftERNS0_12OutputBufferE CODE
 0001:00220190 00000005H .text$_ZN12_GLOBAL__N_116itanium_demangle12TemplateArgsD0Ev CODE
 0001:002201a0 00000069H .text$_ZNK12_GLOBAL__N_116itanium_demangle20NameWithTemplateArgs9printLeftERNS0_12OutputBufferE CODE
 0001:00220210 0000001bH .text$_ZNK12_GLOBAL__N_116itanium_demangle20NameWithTemplateArgs11getBaseNameEv CODE
 0001:00220230 00000005H .text$_ZN12_GLOBAL__N_116itanium_demangle20NameWithTemplateArgsD0Ev CODE
 0001:00220240 00000009H .text$_ZNK12_GLOBAL__N_116itanium_demangle20TemplateArgumentPack9printLeftERNS0_12OutputBufferE CODE
 0001:00220250 00000005H .text$_ZN12_GLOBAL__N_116itanium_demangle20TemplateArgumentPackD0Ev CODE
 0001:00220260 000000d1H .text$_ZNK12_GLOBAL__N_116itanium_demangle12EnableIfAttr9printLeftERNS0_12OutputBufferE CODE
 0001:00220340 00000005H .text$_ZN12_GLOBAL__N_116itanium_demangle12EnableIfAttrD0Ev CODE
 0001:00220350 00000003H .text$_ZNK12_GLOBAL__N_116itanium_demangle16FunctionEncoding19hasRHSComponentSlowERNS0_12OutputBufferE CODE
 0001:00220360 00000003H .text$_ZNK12_GLOBAL__N_116itanium_demangle16FunctionEncoding15hasFunctionSlowERNS0_12OutputBufferE CODE
 0001:00220370 000000c0H .text$_ZNK12_GLOBAL__N_116itanium_demangle16FunctionEncoding9printLeftERNS0_12OutputBufferE CODE
 0001:00220430 000002e9H .text$_ZNK12_GLOBAL__N_116itanium_demangle16FunctionEncoding10printRightERNS0_12OutputBufferE CODE
 0001:00220720 00000005H .text$_ZN12_GLOBAL__N_116itanium_demangle16FunctionEncodingD0Ev CODE
 0001:00220730 00000136H .text$_ZNK12_GLOBAL__N_116itanium_demangle9DotSuffix9printLeftERNS0_12OutputBufferE CODE
 0001:00220870 00000005H .text$_ZN12_GLOBAL__N_116itanium_demangle9DotSuffixD0Ev CODE
 0001:00220880 0000068aH .text$_ZN12_GLOBAL__N_116itanium_demangle22AbstractManglingParserINS0_14ManglingParserINS_16DefaultAllocatorEEES3_E17parseFunctionTypeEv CODE
 0001:00220f10 00000408H .text$_ZN12_GLOBAL__N_116itanium_demangle22AbstractManglingParserINS0_14ManglingParserINS_16DefaultAllocatorEEES3_E18parseQualifiedTypeEv CODE
 0001:00221320 000000acH .text$_ZN12_GLOBAL__N_116itanium_demangle22AbstractManglingParserINS0_14ManglingParserINS_16DefaultAllocatorEEES3_E4makeINS0_8NameTypeEJRA10_KcEEEPNS0_4NodeEDpOT0_ CODE
 0001:002213d0 000000acH .text$_ZN12_GLOBAL__N_116itanium_demangle22AbstractManglingParserINS0_14ManglingParserINS_16DefaultAllocatorEEES3_E4makeINS0_8NameTypeEJRA9_KcEEEPNS0_4NodeEDpOT0_ CODE
 0001:00221480 000000acH .text$_ZN12_GLOBAL__N_116itanium_demangle22AbstractManglingParserINS0_14ManglingParserINS_16DefaultAllocatorEEES3_E4makeINS0_8NameTypeEJRA11_KcEEEPNS0_4NodeEDpOT0_ CODE
 0001:00221530 00000098H .text$_ZN12_GLOBAL__N_116itanium_demangle22AbstractManglingParserINS0_14ManglingParserINS_16DefaultAllocatorEEES3_E4makeINS0_12BinaryFPTypeEJRPNS0_4NodeEEEES9_DpOT0_ CODE
 0001:002215d0 000000a5H .text$_ZN12_GLOBAL__N_116itanium_demangle22AbstractManglingParserINS0_14ManglingParserINS_16DefaultAllocatorEEES3_E4makeINS0_10BitIntTypeEJRPNS0_4NodeERbEEES9_DpOT0_ CODE
 0001:00221680 0000030aH .text$_ZN12_GLOBAL__N_116itanium_demangle22AbstractManglingParserINS0_14ManglingParserINS_16DefaultAllocatorEEES3_E15parseVectorTypeEv CODE
 0001:00221990 00000176H .text$_ZN12_GLOBAL__N_116itanium_demangle22AbstractManglingParserINS0_14ManglingParserINS_16DefaultAllocatorEEES3_E18parseClassEnumTypeEv CODE
 0001:00221b10 000000a4H .text$_ZN12_GLOBAL__N_116itanium_demangle22AbstractManglingParserINS0_14ManglingParserINS_16DefaultAllocatorEEES3_E4makeINS0_11PointerTypeEJRPNS0_4NodeEEEES9_DpOT0_ CODE
 0001:00221bc0 000000b5H .text$_ZN12_GLOBAL__N_116itanium_demangle22AbstractManglingParserINS0_14ManglingParserINS_16DefaultAllocatorEEES3_E4makeINS0_13ReferenceTypeEJRPNS0_4NodeENS0_13ReferenceKindEEEES9_DpOT0_ CODE
 0001:00221c80 000000b0H .text$_ZN12_GLOBAL__N_116itanium_demangle22AbstractManglingParserINS0_14ManglingParserINS_16DefaultAllocatorEEES3_E4makeINS0_20PostfixQualifiedTypeEJRPNS0_4NodeERA9_KcEEES9_DpOT0_ CODE
 0001:00221d30 000000b0H .text$_ZN12_GLOBAL__N_116itanium_demangle22AbstractManglingParserINS0_14ManglingParserINS_16DefaultAllocatorEEES3_E4makeINS0_20PostfixQualifiedTypeEJRPNS0_4NodeERA11_KcEEES9_DpOT0_ CODE
 0001:00221de0 00000128H .text$_ZNK12_GLOBAL__N_116itanium_demangle12NoexceptSpec9printLeftERNS0_12OutputBufferE CODE
 0001:00221f10 00000005H .text$_ZN12_GLOBAL__N_116itanium_demangle12NoexceptSpecD0Ev CODE
 0001:00221f20 0000011cH .text$_ZNK12_GLOBAL__N_116itanium_demangle20DynamicExceptionSpec9printLeftERNS0_12OutputBufferE CODE
 0001:00222040 00000005H .text$_ZN12_GLOBAL__N_116itanium_demangle20DynamicExceptionSpecD0Ev CODE
 0001:00222050 00000003H .text$_ZNK12_GLOBAL__N_116itanium_demangle12FunctionType19hasRHSComponentSlowERNS0_12OutputBufferE CODE
 0001:00222060 00000003H .text$_ZNK12_GLOBAL__N_116itanium_demangle12FunctionType15hasFunctionSlowERNS0_12OutputBufferE CODE
 0001:00222070 00000065H .text$_ZNK12_GLOBAL__N_116itanium_demangle12FunctionType9printLeftERNS0_12OutputBufferE CODE
 0001:002220e0 00000335H .text$_ZNK12_GLOBAL__N_116itanium_demangle12FunctionType10printRightERNS0_12OutputBufferE CODE
 0001:00222420 00000005H .text$_ZN12_GLOBAL__N_116itanium_demangle12FunctionTypeD0Ev CODE
 0001:00222430 00000133H .text$_ZNK12_GLOBAL__N_116itanium_demangle13ObjCProtoName9printLeftERNS0_12OutputBufferE CODE
 0001:00222570 00000005H .text$_ZN12_GLOBAL__N_116itanium_demangle13ObjCProtoNameD0Ev CODE
 0001:00222580 00000125H .text$_ZNK12_GLOBAL__N_116itanium_demangle17VendorExtQualType9printLeftERNS0_12OutputBufferE CODE
 0001:002226b0 00000005H .text$_ZN12_GLOBAL__N_116itanium_demangle17VendorExtQualTypeD0Ev CODE
 0001:002226c0 0000001dH .text$_ZNK12_GLOBAL__N_116itanium_demangle8QualType19hasRHSComponentSlowERNS0_12OutputBufferE CODE
 0001:002226e0 00000021H .text$_ZNK12_GLOBAL__N_116itanium_demangle8QualType12hasArraySlowERNS0_12OutputBufferE CODE
 0001:00222710 00000021H .text$_ZNK12_GLOBAL__N_116itanium_demangle8QualType15hasFunctionSlowERNS0_12OutputBufferE CODE
 0001:00222740 00000140H .text$_ZNK12_GLOBAL__N_116itanium_demangle8QualType9printLeftERNS0_12OutputBufferE CODE
 0001:00222880 0000000eH .text$_ZNK12_GLOBAL__N_116itanium_demangle8QualType10printRightERNS0_12OutputBufferE CODE
 0001:00222890 00000005H .text$_ZN12_GLOBAL__N_116itanium_demangle8QualTypeD0Ev CODE
 0001:002228a0 0000009bH .text$_ZNK12_GLOBAL__N_116itanium_demangle12BinaryFPType9printLeftERNS0_12OutputBufferE CODE
 0001:00222940 00000005H .text$_ZN12_GLOBAL__N_116itanium_demangle12BinaryFPTypeD0Ev CODE
 0001:00222950 000001a2H .text$_ZNK12_GLOBAL__N_116itanium_demangle10BitIntType9printLeftERNS0_12OutputBufferE CODE
 0001:00222b00 00000005H .text$_ZN12_GLOBAL__N_116itanium_demangle10BitIntTypeD0Ev CODE
 0001:00222b10 00000098H .text$_ZN12_GLOBAL__N_116itanium_demangle22AbstractManglingParserINS0_14ManglingParserINS_16DefaultAllocatorEEES3_E4makeINS0_15PixelVectorTypeEJRPNS0_4NodeEEEES9_DpOT0_ CODE
 0001:00222bb0 000000a7H .text$_ZN12_GLOBAL__N_116itanium_demangle22AbstractManglingParserINS0_14ManglingParserINS_16DefaultAllocatorEEES3_E4makeINS0_10VectorTypeEJRPNS0_4NodeESA_EEES9_DpOT0_ CODE
 0001:00222c60 000000ebH .text$_ZNK12_GLOBAL__N_116itanium_demangle15PixelVectorType9printLeftERNS0_12OutputBufferE CODE
 0001:00222d50 00000005H .text$_ZN12_GLOBAL__N_116itanium_demangle15PixelVectorTypeD0Ev CODE
 0001:00222d60 00000106H .text$_ZNK12_GLOBAL__N_116itanium_demangle10VectorType9printLeftERNS0_12OutputBufferE CODE
 0001:00222e70 00000005H .text$_ZN12_GLOBAL__N_116itanium_demangle10VectorTypeD0Ev CODE
 0001:00222e80 000000a7H .text$_ZN12_GLOBAL__N_116itanium_demangle22AbstractManglingParserINS0_14ManglingParserINS_16DefaultAllocatorEEES3_E4makeINS0_9ArrayTypeEJRPNS0_4NodeESA_EEES9_DpOT0_ CODE
 0001:00222f30 00000003H .text$_ZNK12_GLOBAL__N_116itanium_demangle9ArrayType19hasRHSComponentSlowERNS0_12OutputBufferE CODE
 0001:00222f40 00000003H .text$_ZNK12_GLOBAL__N_116itanium_demangle9ArrayType12hasArraySlowERNS0_12OutputBufferE CODE
 0001:00222f50 0000000eH .text$_ZNK12_GLOBAL__N_116itanium_demangle9ArrayType9printLeftERNS0_12OutputBufferE CODE
 0001:00222f60 0000015dH .text$_ZNK12_GLOBAL__N_116itanium_demangle9ArrayType10printRightERNS0_12OutputBufferE CODE
 0001:002230c0 00000005H .text$_ZN12_GLOBAL__N_116itanium_demangle9ArrayTypeD0Ev CODE
 0001:002230d0 000000b0H .text$_ZN12_GLOBAL__N_116itanium_demangle22AbstractManglingParserINS0_14ManglingParserINS_16DefaultAllocatorEEES3_E4makeINS0_19PointerToMemberTypeEJRPNS0_4NodeESA_EEES9_DpOT0_ CODE
 0001:00223180 0000001dH .text$_ZNK12_GLOBAL__N_116itanium_demangle19PointerToMemberType19hasRHSComponentSlowERNS0_12OutputBufferE CODE
 0001:002231a0 00000176H .text$_ZNK12_GLOBAL__N_116itanium_demangle19PointerToMemberType9printLeftERNS0_12OutputBufferE CODE
 0001:00223320 000000b7H .text$_ZNK12_GLOBAL__N_116itanium_demangle19PointerToMemberType10printRightERNS0_12OutputBufferE CODE
 0001:002233e0 00000005H .text$_ZN12_GLOBAL__N_116itanium_demangle19PointerToMemberTypeD0Ev CODE
 0001:002233f0 00000101H .text$_ZNK12_GLOBAL__N_116itanium_demangle22ElaboratedTypeSpefType9printLeftERNS0_12OutputBufferE CODE
 0001:00223500 00000005H .text$_ZN12_GLOBAL__N_116itanium_demangle22ElaboratedTypeSpefTypeD0Ev CODE
 0001:00223510 0000001dH .text$_ZNK12_GLOBAL__N_116itanium_demangle11PointerType19hasRHSComponentSlowERNS0_12OutputBufferE CODE
 0001:00223530 000002b3H .text$_ZNK12_GLOBAL__N_116itanium_demangle11PointerType9printLeftERNS0_12OutputBufferE CODE
 0001:002237f0 00000103H .text$_ZNK12_GLOBAL__N_116itanium_demangle11PointerType10printRightERNS0_12OutputBufferE CODE
 0001:00223900 00000005H .text$_ZN12_GLOBAL__N_116itanium_demangle11PointerTypeD0Ev CODE
 0001:00223910 0000001dH .text$_ZNK12_GLOBAL__N_116itanium_demangle13ReferenceType19hasRHSComponentSlowERNS0_12OutputBufferE CODE
 0001:00223930 000001ddH .text$_ZNK12_GLOBAL__N_116itanium_demangle13ReferenceType9printLeftERNS0_12OutputBufferE CODE
 0001:00223b10 000000f4H .text$_ZNK12_GLOBAL__N_116itanium_demangle13ReferenceType10printRightERNS0_12OutputBufferE CODE
 0001:00223c10 00000005H .text$_ZN12_GLOBAL__N_116itanium_demangle13ReferenceTypeD0Ev CODE
 0001:00223c20 000001b3H .text$_ZNK12_GLOBAL__N_116itanium_demangle13ReferenceType8collapseERNS0_12OutputBufferE CODE
 0001:00223de0 00000082H .text$_ZNK12_GLOBAL__N_116itanium_demangle20PostfixQualifiedType9printLeftERNS0_12OutputBufferE CODE
 0001:00223e70 00000005H .text$_ZN12_GLOBAL__N_116itanium_demangle20PostfixQualifiedTypeD0Ev CODE
 0001:00223e78 00000000H .text                   CODE
 0001:00223e80 00000047H .text$_ZNSt3__16chrono12system_clock3nowEv CODE
 0001:00223ed0 0000001cH .text$_ZNSt3__16chrono12system_clock9to_time_tERKNS0_10time_pointIS1_NS0_8durationIxNS_5ratioILx1ELx1000000EEEEEEE CODE
 0001:00223ef0 00000008H .text$_ZNSt3__16chrono12system_clock11from_time_tEx CODE
 0001:00223f00 000000c2H .text$_ZNSt3__16chrono12steady_clock3nowEv CODE
 0001:00223fd0 00000039H .text$_GLOBAL__I_000100 CODE
 0001:0022400c 00000000H .text                   CODE
 0001:0022400c 000000d7H .text$unlikely$__cxa_guard_acquire CODE
 0001:002240e3 00000087H .text$unlikely$__cxa_guard_release CODE
 0001:0022416a 00000084H .text$unlikely$__cxa_guard_abort CODE
 0001:002241f0 000008acH .text                   CODE
 0002:00000000 00000008H .rdata$.refptr._MINGW_INSTALL_DEBUG_MATHERR DATA
 0002:00000008 00000008H .rdata$.refptr.__dyn_tls_init_callback DATA
 0002:00000010 00000008H .rdata$.refptr.__globallocalestatus DATA
 0002:00000018 00000008H .rdata$.refptr.__image_base__ DATA
 0002:00000020 00000008H .rdata$.refptr.__imp___initenv DATA
 0002:00000028 00000008H .rdata$.refptr.__mingw_app_type DATA
 0002:00000030 00000008H .rdata$.refptr.__mingw_initltsdrot_force DATA
 0002:00000038 00000008H .rdata$.refptr.__mingw_initltsdyn_force DATA
 0002:00000040 00000008H .rdata$.refptr.__mingw_initltssuo_force DATA
 0002:00000048 00000008H .rdata$.refptr.__mingw_oldexcpt_handler DATA
 0002:00000050 00000008H .rdata$.refptr.__native_startup_lock DATA
 0002:00000058 00000008H .rdata$.refptr.__native_startup_state DATA
 0002:00000060 00000008H .rdata$.refptr.__xc_a   DATA
 0002:00000068 00000008H .rdata$.refptr.__xc_z   DATA
 0002:00000070 00000008H .rdata$.refptr.__xi_a   DATA
 0002:00000078 00000008H .rdata$.refptr.__xi_z   DATA
 0002:00000080 00000008H .rdata$.refptr._commode DATA
 0002:00000088 00000008H .rdata$.refptr._dowildcard DATA
 0002:00000090 00000008H .rdata$.refptr._fmode   DATA
 0002:00000098 00000008H .rdata$.refptr._newmode DATA
 0002:000000a0 00012140H .rdata                  DATA
 0002:000121e0 00000011H .rdata$_ZTSSt12length_error DATA
 0002:000121f1 00000010H .rdata$_ZTSSt11logic_error DATA
 0002:00012201 0000000dH .rdata$_ZTSSt9exception DATA
 0002:00012210 00000010H .rdata$_ZTISt9exception DATA
 0002:00012220 00000018H .rdata$_ZTISt11logic_error DATA
 0002:00012238 00000018H .rdata$_ZTISt12length_error DATA
 0002:00012250 00000019H .rdata$_ZTSSt20bad_array_new_length DATA
 0002:00012269 0000000dH .rdata$_ZTSSt9bad_alloc DATA
 0002:00012278 00000018H .rdata$_ZTISt9bad_alloc DATA
 0002:00012290 00000018H .rdata$_ZTISt20bad_array_new_length DATA
 0002:000122a8 00000008H .rdata$.refptr._ZTVSt12length_error DATA
 0002:000122b0 00000012H .rdata                  DATA
 0002:000122c8 00000008H .rdata$.refptr.__imp__tzset DATA
 0002:000122d0 00000008H .rdata$.refptr.__mingw_module_is_dll DATA
 0002:000122d8 00000001H .rdata                  DATA
 0002:000122e0 00000008H .rdata$.refptr.__CTOR_LIST__ DATA
 0002:000122e8 00000030H .rdata                  DATA
 0002:00012318 00000008H .rdata$.refptr._CRT_MT  DATA
 0002:00012320 00000255H .rdata                  DATA
 0002:00012578 00000008H .rdata$.refptr.__RUNTIME_PSEUDO_RELOC_LIST_END__ DATA
 0002:00012580 00000008H .rdata$.refptr.__RUNTIME_PSEUDO_RELOC_LIST__ DATA
 0002:00012588 000000a8H .rdata                  DATA
 0002:00012630 00000008H .rdata$.refptr.__cxa_new_handler DATA
 0002:00012638 00000008H .rdata$.refptr.__cxa_terminate_handler DATA
 0002:00012640 00000008H .rdata$.refptr.__cxa_unexpected_handler DATA
 0002:00012648 00000022H .rdata                  DATA
 0002:00012670 00000028H .rdata$_ZTVSt9bad_alloc DATA
 0002:00012698 0000000fH .rdata                  DATA
 0002:000126a8 00000028H .rdata$_ZTVSt20bad_array_new_length DATA
 0002:000126d0 00000015H .rdata                  DATA
 0002:000126e8 00000028H .rdata$_ZTVSt9exception DATA
 0002:00012710 00000028H .rdata$_ZTVSt13bad_exception DATA
 0002:00012738 00000012H .rdata$_ZTSSt13bad_exception DATA
 0002:00012750 00000018H .rdata$_ZTISt13bad_exception DATA
 0002:00012768 00000028H .rdata$_ZTVSt11logic_error DATA
 0002:00012790 00000028H .rdata$_ZTVSt13runtime_error DATA
 0002:000127b8 00000028H .rdata$_ZTVSt12domain_error DATA
 0002:000127e0 00000011H .rdata$_ZTSSt12domain_error DATA
 0002:000127f8 00000018H .rdata$_ZTISt12domain_error DATA
 0002:00012810 00000028H .rdata$_ZTVSt16invalid_argument DATA
 0002:00012838 00000015H .rdata$_ZTSSt16invalid_argument DATA
 0002:00012850 00000018H .rdata$_ZTISt16invalid_argument DATA
 0002:00012868 00000028H .rdata$_ZTVSt12length_error DATA
 0002:00012890 00000028H .rdata$_ZTVSt12out_of_range DATA
 0002:000128b8 00000011H .rdata$_ZTSSt12out_of_range DATA
 0002:000128d0 00000018H .rdata$_ZTISt12out_of_range DATA
 0002:000128e8 00000028H .rdata$_ZTVSt11range_error DATA
 0002:00012910 00000010H .rdata$_ZTSSt11range_error DATA
 0002:00012920 00000012H .rdata$_ZTSSt13runtime_error DATA
 0002:00012938 00000018H .rdata$_ZTISt13runtime_error DATA
 0002:00012950 00000018H .rdata$_ZTISt11range_error DATA
 0002:00012968 00000028H .rdata$_ZTVSt14overflow_error DATA
 0002:00012990 00000013H .rdata$_ZTSSt14overflow_error DATA
 0002:000129a8 00000018H .rdata$_ZTISt14overflow_error DATA
 0002:000129c0 00000028H .rdata$_ZTVSt15underflow_error DATA
 0002:000129e8 00000014H .rdata$_ZTSSt15underflow_error DATA
 0002:00012a00 00000018H .rdata$_ZTISt15underflow_error DATA
 0002:00012a18 00000021H .rdata$_ZTSN10__cxxabiv116__shim_type_infoE DATA
 0002:00012a39 0000000dH .rdata$_ZTSSt9type_info DATA
 0002:00012a48 00000010H .rdata$_ZTISt9type_info DATA
 0002:00012a58 00000018H .rdata$_ZTIN10__cxxabiv116__shim_type_infoE DATA
 0002:00012a70 00000022H .rdata$_ZTSN10__cxxabiv117__class_type_infoE DATA
 0002:00012a98 00000018H .rdata$_ZTIN10__cxxabiv117__class_type_infoE DATA
 0002:00012ab0 00000022H .rdata$_ZTSN10__cxxabiv117__pbase_type_infoE DATA
 0002:00012ad8 00000018H .rdata$_ZTIN10__cxxabiv117__pbase_type_infoE DATA
 0002:00012af0 00000024H .rdata$_ZTSN10__cxxabiv119__pointer_type_infoE DATA
 0002:00012b18 00000018H .rdata$_ZTIN10__cxxabiv119__pointer_type_infoE DATA
 0002:00012b30 00000025H .rdata$_ZTSN10__cxxabiv120__function_type_infoE DATA
 0002:00012b58 00000018H .rdata$_ZTIN10__cxxabiv120__function_type_infoE DATA
 0002:00012b70 0000002eH .rdata$_ZTSN10__cxxabiv129__pointer_to_member_type_infoE DATA
 0002:00012ba0 00000018H .rdata$_ZTIN10__cxxabiv129__pointer_to_member_type_infoE DATA
 0002:00012bb8 00000010H .rdata$_ZZNK10__cxxabiv129__pointer_to_member_type_info9can_catchEPKNS_16__shim_type_infoERPvE12null_ptr_rep DATA
 0002:00012bc8 00000008H .rdata$_ZZNK10__cxxabiv129__pointer_to_member_type_info9can_catchEPKNS_16__shim_type_infoERPvE12null_ptr_rep_0 DATA
 0002:00012bd0 00000038H .rdata$_ZTVN10__cxxabiv116__shim_type_infoE DATA
 0002:00012c08 00000038H .rdata$_ZTVN10__cxxabiv123__fundamental_type_infoE DATA
 0002:00012c40 00000028H .rdata$_ZTSN10__cxxabiv123__fundamental_type_infoE DATA
 0002:00012c68 00000018H .rdata$_ZTIN10__cxxabiv123__fundamental_type_infoE DATA
 0002:00012c80 00000002H .rdata$_ZTSv            DATA
 0002:00012c88 00000010H .rdata$_ZTIv            DATA
 0002:00012c98 00000003H .rdata$_ZTSPv           DATA
 0002:00012ca0 00000020H .rdata$_ZTIPv           DATA
 0002:00012cc0 00000004H .rdata$_ZTSPKv          DATA
 0002:00012cc8 00000020H .rdata$_ZTIPKv          DATA
 0002:00012ce8 00000003H .rdata$_ZTSDn           DATA
 0002:00012cf0 00000010H .rdata$_ZTIDn           DATA
 0002:00012d00 00000004H .rdata$_ZTSPDn          DATA
 0002:00012d08 00000020H .rdata$_ZTIPDn          DATA
 0002:00012d28 00000005H .rdata$_ZTSPKDn         DATA
 0002:00012d30 00000020H .rdata$_ZTIPKDn         DATA
 0002:00012d50 00000002H .rdata$_ZTSb            DATA
 0002:00012d58 00000010H .rdata$_ZTIb            DATA
 0002:00012d68 00000003H .rdata$_ZTSPb           DATA
 0002:00012d70 00000020H .rdata$_ZTIPb           DATA
 0002:00012d90 00000004H .rdata$_ZTSPKb          DATA
 0002:00012d98 00000020H .rdata$_ZTIPKb          DATA
 0002:00012db8 00000002H .rdata$_ZTSw            DATA
 0002:00012dc0 00000010H .rdata$_ZTIw            DATA
 0002:00012dd0 00000003H .rdata$_ZTSPw           DATA
 0002:00012dd8 00000020H .rdata$_ZTIPw           DATA
 0002:00012df8 00000004H .rdata$_ZTSPKw          DATA
 0002:00012e00 00000020H .rdata$_ZTIPKw          DATA
 0002:00012e20 00000002H .rdata$_ZTSc            DATA
 0002:00012e28 00000010H .rdata$_ZTIc            DATA
 0002:00012e38 00000003H .rdata$_ZTSPc           DATA
 0002:00012e40 00000020H .rdata$_ZTIPc           DATA
 0002:00012e60 00000004H .rdata$_ZTSPKc          DATA
 0002:00012e68 00000020H .rdata$_ZTIPKc          DATA
 0002:00012e88 00000002H .rdata$_ZTSh            DATA
 0002:00012e90 00000010H .rdata$_ZTIh            DATA
 0002:00012ea0 00000003H .rdata$_ZTSPh           DATA
 0002:00012ea8 00000020H .rdata$_ZTIPh           DATA
 0002:00012ec8 00000004H .rdata$_ZTSPKh          DATA
 0002:00012ed0 00000020H .rdata$_ZTIPKh          DATA
 0002:00012ef0 00000002H .rdata$_ZTSa            DATA
 0002:00012ef8 00000010H .rdata$_ZTIa            DATA
 0002:00012f08 00000003H .rdata$_ZTSPa           DATA
 0002:00012f10 00000020H .rdata$_ZTIPa           DATA
 0002:00012f30 00000004H .rdata$_ZTSPKa          DATA
 0002:00012f38 00000020H .rdata$_ZTIPKa          DATA
 0002:00012f58 00000002H .rdata$_ZTSs            DATA
 0002:00012f60 00000010H .rdata$_ZTIs            DATA
 0002:00012f70 00000003H .rdata$_ZTSPs           DATA
 0002:00012f78 00000020H .rdata$_ZTIPs           DATA
 0002:00012f98 00000004H .rdata$_ZTSPKs          DATA
 0002:00012fa0 00000020H .rdata$_ZTIPKs          DATA
 0002:00012fc0 00000002H .rdata$_ZTSt            DATA
 0002:00012fc8 00000010H .rdata$_ZTIt            DATA
 0002:00012fd8 00000003H .rdata$_ZTSPt           DATA
 0002:00012fe0 00000020H .rdata$_ZTIPt           DATA
 0002:00013000 00000004H .rdata$_ZTSPKt          DATA
 0002:00013008 00000020H .rdata$_ZTIPKt          DATA
 0002:00013028 00000002H .rdata$_ZTSi            DATA
 0002:00013030 00000010H .rdata$_ZTIi            DATA
 0002:00013040 00000003H .rdata$_ZTSPi           DATA
 0002:00013048 00000020H .rdata$_ZTIPi           DATA
 0002:00013068 00000004H .rdata$_ZTSPKi          DATA
 0002:00013070 00000020H .rdata$_ZTIPKi          DATA
 0002:00013090 00000002H .rdata$_ZTSj            DATA
 0002:00013098 00000010H .rdata$_ZTIj            DATA
 0002:000130a8 00000003H .rdata$_ZTSPj           DATA
 0002:000130b0 00000020H .rdata$_ZTIPj           DATA
 0002:000130d0 00000004H .rdata$_ZTSPKj          DATA
 0002:000130d8 00000020H .rdata$_ZTIPKj          DATA
 0002:000130f8 00000002H .rdata$_ZTSl            DATA
 0002:00013100 00000010H .rdata$_ZTIl            DATA
 0002:00013110 00000003H .rdata$_ZTSPl           DATA
 0002:00013118 00000020H .rdata$_ZTIPl           DATA
 0002:00013138 00000004H .rdata$_ZTSPKl          DATA
 0002:00013140 00000020H .rdata$_ZTIPKl          DATA
 0002:00013160 00000002H .rdata$_ZTSm            DATA
 0002:00013168 00000010H .rdata$_ZTIm            DATA
 0002:00013178 00000003H .rdata$_ZTSPm           DATA
 0002:00013180 00000020H .rdata$_ZTIPm           DATA
 0002:000131a0 00000004H .rdata$_ZTSPKm          DATA
 0002:000131a8 00000020H .rdata$_ZTIPKm          DATA
 0002:000131c8 00000002H .rdata$_ZTSx            DATA
 0002:000131d0 00000010H .rdata$_ZTIx            DATA
 0002:000131e0 00000003H .rdata$_ZTSPx           DATA
 0002:000131e8 00000020H .rdata$_ZTIPx           DATA
 0002:00013208 00000004H .rdata$_ZTSPKx          DATA
 0002:00013210 00000020H .rdata$_ZTIPKx          DATA
 0002:00013230 00000002H .rdata$_ZTSy            DATA
 0002:00013238 00000010H .rdata$_ZTIy            DATA
 0002:00013248 00000003H .rdata$_ZTSPy           DATA
 0002:00013250 00000020H .rdata$_ZTIPy           DATA
 0002:00013270 00000004H .rdata$_ZTSPKy          DATA
 0002:00013278 00000020H .rdata$_ZTIPKy          DATA
 0002:00013298 00000002H .rdata$_ZTSn            DATA
 0002:000132a0 00000010H .rdata$_ZTIn            DATA
 0002:000132b0 00000003H .rdata$_ZTSPn           DATA
 0002:000132b8 00000020H .rdata$_ZTIPn           DATA
 0002:000132d8 00000004H .rdata$_ZTSPKn          DATA
 0002:000132e0 00000020H .rdata$_ZTIPKn          DATA
 0002:00013300 00000002H .rdata$_ZTSo            DATA
 0002:00013308 00000010H .rdata$_ZTIo            DATA
 0002:00013318 00000003H .rdata$_ZTSPo           DATA
 0002:00013320 00000020H .rdata$_ZTIPo           DATA
 0002:00013340 00000004H .rdata$_ZTSPKo          DATA
 0002:00013348 00000020H .rdata$_ZTIPKo          DATA
 0002:00013368 00000003H .rdata$_ZTSDh           DATA
 0002:00013370 00000010H .rdata$_ZTIDh           DATA
 0002:00013380 00000004H .rdata$_ZTSPDh          DATA
 0002:00013388 00000020H .rdata$_ZTIPDh          DATA
 0002:000133a8 00000005H .rdata$_ZTSPKDh         DATA
 0002:000133b0 00000020H .rdata$_ZTIPKDh         DATA
 0002:000133d0 00000002H .rdata$_ZTSf            DATA
 0002:000133d8 00000010H .rdata$_ZTIf            DATA
 0002:000133e8 00000003H .rdata$_ZTSPf           DATA
 0002:000133f0 00000020H .rdata$_ZTIPf           DATA
 0002:00013410 00000004H .rdata$_ZTSPKf          DATA
 0002:00013418 00000020H .rdata$_ZTIPKf          DATA
 0002:00013438 00000002H .rdata$_ZTSd            DATA
 0002:00013440 00000010H .rdata$_ZTId            DATA
 0002:00013450 00000003H .rdata$_ZTSPd           DATA
 0002:00013458 00000020H .rdata$_ZTIPd           DATA
 0002:00013478 00000004H .rdata$_ZTSPKd          DATA
 0002:00013480 00000020H .rdata$_ZTIPKd          DATA
 0002:000134a0 00000002H .rdata$_ZTSe            DATA
 0002:000134a8 00000010H .rdata$_ZTIe            DATA
 0002:000134b8 00000003H .rdata$_ZTSPe           DATA
 0002:000134c0 00000020H .rdata$_ZTIPe           DATA
 0002:000134e0 00000004H .rdata$_ZTSPKe          DATA
 0002:000134e8 00000020H .rdata$_ZTIPKe          DATA
 0002:00013508 00000002H .rdata$_ZTSg            DATA
 0002:00013510 00000010H .rdata$_ZTIg            DATA
 0002:00013520 00000003H .rdata$_ZTSPg           DATA
 0002:00013528 00000020H .rdata$_ZTIPg           DATA
 0002:00013548 00000004H .rdata$_ZTSPKg          DATA
 0002:00013550 00000020H .rdata$_ZTIPKg          DATA
 0002:00013570 00000003H .rdata$_ZTSDu           DATA
 0002:00013578 00000010H .rdata$_ZTIDu           DATA
 0002:00013588 00000004H .rdata$_ZTSPDu          DATA
 0002:00013590 00000020H .rdata$_ZTIPDu          DATA
 0002:000135b0 00000005H .rdata$_ZTSPKDu         DATA
 0002:000135b8 00000020H .rdata$_ZTIPKDu         DATA
 0002:000135d8 00000003H .rdata$_ZTSDs           DATA
 0002:000135e0 00000010H .rdata$_ZTIDs           DATA
 0002:000135f0 00000004H .rdata$_ZTSPDs          DATA
 0002:000135f8 00000020H .rdata$_ZTIPDs          DATA
 0002:00013618 00000005H .rdata$_ZTSPKDs         DATA
 0002:00013620 00000020H .rdata$_ZTIPKDs         DATA
 0002:00013640 00000003H .rdata$_ZTSDi           DATA
 0002:00013648 00000010H .rdata$_ZTIDi           DATA
 0002:00013658 00000004H .rdata$_ZTSPDi          DATA
 0002:00013660 00000020H .rdata$_ZTIPDi          DATA
 0002:00013680 00000005H .rdata$_ZTSPKDi         DATA
 0002:00013688 00000020H .rdata$_ZTIPKDi         DATA
 0002:000136a8 00000038H .rdata$_ZTVN10__cxxabiv117__array_type_infoE DATA
 0002:000136e0 00000022H .rdata$_ZTSN10__cxxabiv117__array_type_infoE DATA
 0002:00013708 00000018H .rdata$_ZTIN10__cxxabiv117__array_type_infoE DATA
 0002:00013720 00000038H .rdata$_ZTVN10__cxxabiv120__function_type_infoE DATA
 0002:00013758 00000038H .rdata$_ZTVN10__cxxabiv116__enum_type_infoE DATA
 0002:00013790 00000021H .rdata$_ZTSN10__cxxabiv116__enum_type_infoE DATA
 0002:000137b8 00000018H .rdata$_ZTIN10__cxxabiv116__enum_type_infoE DATA
 0002:000137d0 00000050H .rdata$_ZTVN10__cxxabiv117__class_type_infoE DATA
 0002:00013820 00000050H .rdata$_ZTVN10__cxxabiv120__si_class_type_infoE DATA
 0002:00013870 00000025H .rdata$_ZTSN10__cxxabiv120__si_class_type_infoE DATA
 0002:00013898 00000018H .rdata$_ZTIN10__cxxabiv120__si_class_type_infoE DATA
 0002:000138b0 00000050H .rdata$_ZTVN10__cxxabiv121__vmi_class_type_infoE DATA
 0002:00013900 00000026H .rdata$_ZTSN10__cxxabiv121__vmi_class_type_infoE DATA
 0002:00013928 00000018H .rdata$_ZTIN10__cxxabiv121__vmi_class_type_infoE DATA
 0002:00013940 00000038H .rdata$_ZTVN10__cxxabiv117__pbase_type_infoE DATA
 0002:00013978 00000038H .rdata$_ZTVN10__cxxabiv119__pointer_type_infoE DATA
 0002:000139b0 00000038H .rdata$_ZTVN10__cxxabiv129__pointer_to_member_type_infoE DATA
 0002:000139e8 00000008H .rdata$.refptr.pop_frame_proc DATA
 0002:000139f0 00000008H .rdata$.refptr.push_frame_proc DATA
 0002:000139f8 000001d0H .rdata                  DATA
 0002:00013bc8 00000008H .rdata$.refptr._ZTVSt13bad_exception DATA
 0002:00013bd0 00000008H .rdata$.refptr.get_except_obj_proc DATA
 0002:00013bd8 00000008H .rdata$.refptr._ZTVSt11logic_error DATA
 0002:00013be0 00000008H .rdata$.refptr._ZTVSt13runtime_error DATA
 0002:00013be8 0000068eH .rdata                  DATA
 0002:00014278 00000088H .rdata$_ZTVN9libunwind12UnwindCursorINS_17LocalAddressSpaceENS_16Registers_x86_64EEE DATA
 0002:00014300 000001b8H .rdata                  DATA
 0002:000144b8 00000008H .rdata$.refptr._ZN9libunwind17LocalAddressSpace17sThisAddressSpaceE DATA
 0002:000144c0 0000e49bH .rdata                  DATA
 0002:00022960 00000008H .rdata$.refptr._ZTVN10__cxxabiv117__class_type_infoE DATA
 0002:00022968 00000028H .rdata$_ZTVSt8bad_cast  DATA
 0002:00022990 0000000eH .rdata                  DATA
 0002:000229a0 00000028H .rdata$_ZTVSt10bad_typeid DATA
 0002:000229c8 00000010H .rdata                  DATA
 0002:000229d8 00000020H .rdata$_ZTVSt9type_info DATA
 0002:000229f8 0000000cH .rdata$_ZTSSt8bad_cast  DATA
 0002:00022a08 00000018H .rdata$_ZTISt8bad_cast  DATA
 0002:00022a20 0000000fH .rdata$_ZTSSt10bad_typeid DATA
 0002:00022a30 00000018H .rdata$_ZTISt10bad_typeid DATA
 0002:00022a48 000005c8H .rdata                  DATA
 0002:00023010 00000008H .rdata$.refptr.__pfnDliFailureHook2 DATA
 0002:00023018 00000008H .rdata$.refptr.__pfnDliNotifyHook2 DATA
 0002:00023020 00000bd6H .rdata                  DATA
 0002:00023bf8 00000058H .rdata$_ZTVN12_GLOBAL__N_116itanium_demangle11SpecialNameE DATA
 0002:00023c50 00000030H .rdata$_ZTSN12_GLOBAL__N_116itanium_demangle11SpecialNameE DATA
 0002:00023c80 00000028H .rdata$_ZTSN12_GLOBAL__N_116itanium_demangle4NodeE DATA
 0002:00023ca8 00000010H .rdata$_ZTIN12_GLOBAL__N_116itanium_demangle4NodeE DATA
 0002:00023cb8 00000018H .rdata$_ZTIN12_GLOBAL__N_116itanium_demangle11SpecialNameE DATA
 0002:00023cd0 00000058H .rdata$_ZTVN12_GLOBAL__N_116itanium_demangle21CtorVtableSpecialNameE DATA
 0002:00023d28 0000003aH .rdata$_ZTSN12_GLOBAL__N_116itanium_demangle21CtorVtableSpecialNameE DATA
 0002:00023d68 00000018H .rdata$_ZTIN12_GLOBAL__N_116itanium_demangle21CtorVtableSpecialNameE DATA
 0002:00023d80 0000003aH .rdata                  DATA
 0002:00023dc0 00000058H .rdata$_ZTVN12_GLOBAL__N_116itanium_demangle8NameTypeE DATA
 0002:00023e18 0000002cH .rdata$_ZTSN12_GLOBAL__N_116itanium_demangle8NameTypeE DATA
 0002:00023e48 00000018H .rdata$_ZTIN12_GLOBAL__N_116itanium_demangle8NameTypeE DATA
 0002:00023e60 00000058H .rdata$_ZTVN12_GLOBAL__N_116itanium_demangle10ModuleNameE DATA
 0002:00023eb8 0000002fH .rdata$_ZTSN12_GLOBAL__N_116itanium_demangle10ModuleNameE DATA
 0002:00023ee8 00000018H .rdata$_ZTIN12_GLOBAL__N_116itanium_demangle10ModuleNameE DATA
 0002:00023f00 00000009H .rdata                  DATA
 0002:00023f10 00000058H .rdata$_ZTVN12_GLOBAL__N_116itanium_demangle24ForwardTemplateReferenceE DATA
 0002:00023f68 0000003dH .rdata$_ZTSN12_GLOBAL__N_116itanium_demangle24ForwardTemplateReferenceE DATA
 0002:00023fa8 00000018H .rdata$_ZTIN12_GLOBAL__N_116itanium_demangle24ForwardTemplateReferenceE DATA
 0002:00023fc0 000002deH .rdata                  DATA
 0002:000242a0 000003e0H .rdata$_ZN12_GLOBAL__N_116itanium_demangle22AbstractManglingParserINS0_14ManglingParserINS_16DefaultAllocatorEEES3_E3OpsE DATA
 0002:00024680 0000004dH .rdata                  DATA
 0002:000246d0 00000058H .rdata$_ZTVN12_GLOBAL__N_116itanium_demangle10BinaryExprE DATA
 0002:00024728 0000002fH .rdata$_ZTSN12_GLOBAL__N_116itanium_demangle10BinaryExprE DATA
 0002:00024758 00000018H .rdata$_ZTIN12_GLOBAL__N_116itanium_demangle10BinaryExprE DATA
 0002:00024770 00000003H .rdata                  DATA
 0002:00024778 00000058H .rdata$_ZTVN12_GLOBAL__N_116itanium_demangle10PrefixExprE DATA
 0002:000247d0 0000002fH .rdata$_ZTSN12_GLOBAL__N_116itanium_demangle10PrefixExprE DATA
 0002:00024800 00000018H .rdata$_ZTIN12_GLOBAL__N_116itanium_demangle10PrefixExprE DATA
 0002:00024818 00000058H .rdata$_ZTVN12_GLOBAL__N_116itanium_demangle11PostfixExprE DATA
 0002:00024870 00000030H .rdata$_ZTSN12_GLOBAL__N_116itanium_demangle11PostfixExprE DATA
 0002:000248a0 00000018H .rdata$_ZTIN12_GLOBAL__N_116itanium_demangle11PostfixExprE DATA
 0002:000248b8 00000058H .rdata$_ZTVN12_GLOBAL__N_116itanium_demangle18ArraySubscriptExprE DATA
 0002:00024910 00000037H .rdata$_ZTSN12_GLOBAL__N_116itanium_demangle18ArraySubscriptExprE DATA
 0002:00024948 00000018H .rdata$_ZTIN12_GLOBAL__N_116itanium_demangle18ArraySubscriptExprE DATA
 0002:00024960 00000058H .rdata$_ZTVN12_GLOBAL__N_116itanium_demangle10MemberExprE DATA
 0002:000249b8 0000002fH .rdata$_ZTSN12_GLOBAL__N_116itanium_demangle10MemberExprE DATA
 0002:000249e8 00000018H .rdata$_ZTIN12_GLOBAL__N_116itanium_demangle10MemberExprE DATA
 0002:00024a00 00000058H .rdata$_ZTVN12_GLOBAL__N_116itanium_demangle7NewExprE DATA
 0002:00024a58 0000002bH .rdata$_ZTSN12_GLOBAL__N_116itanium_demangle7NewExprE DATA
 0002:00024a88 00000018H .rdata$_ZTIN12_GLOBAL__N_116itanium_demangle7NewExprE DATA
 0002:00024aa0 00000004H .rdata                  DATA
 0002:00024aa8 00000058H .rdata$_ZTVN12_GLOBAL__N_116itanium_demangle10DeleteExprE DATA
 0002:00024b00 0000002fH .rdata$_ZTSN12_GLOBAL__N_116itanium_demangle10DeleteExprE DATA
 0002:00024b30 00000018H .rdata$_ZTIN12_GLOBAL__N_116itanium_demangle10DeleteExprE DATA
 0002:00024b48 00000007H .rdata                  DATA
 0002:00024b50 00000058H .rdata$_ZTVN12_GLOBAL__N_116itanium_demangle8CallExprE DATA
 0002:00024ba8 0000002cH .rdata$_ZTSN12_GLOBAL__N_116itanium_demangle8CallExprE DATA
 0002:00024bd8 00000018H .rdata$_ZTIN12_GLOBAL__N_116itanium_demangle8CallExprE DATA
 0002:00024bf0 00000058H .rdata$_ZTVN12_GLOBAL__N_116itanium_demangle14ConversionExprE DATA
 0002:00024c48 00000033H .rdata$_ZTSN12_GLOBAL__N_116itanium_demangle14ConversionExprE DATA
 0002:00024c80 00000018H .rdata$_ZTIN12_GLOBAL__N_116itanium_demangle14ConversionExprE DATA
 0002:00024c98 00000058H .rdata$_ZTVN12_GLOBAL__N_116itanium_demangle15ConditionalExprE DATA
 0002:00024cf0 00000034H .rdata$_ZTSN12_GLOBAL__N_116itanium_demangle15ConditionalExprE DATA
 0002:00024d28 00000018H .rdata$_ZTIN12_GLOBAL__N_116itanium_demangle15ConditionalExprE DATA
 0002:00024d40 00000008H .rdata                  DATA
 0002:00024d48 00000058H .rdata$_ZTVN12_GLOBAL__N_116itanium_demangle8CastExprE DATA
 0002:00024da0 0000002cH .rdata$_ZTSN12_GLOBAL__N_116itanium_demangle8CastExprE DATA
 0002:00024dd0 00000018H .rdata$_ZTIN12_GLOBAL__N_116itanium_demangle8CastExprE DATA
 0002:00024de8 00000058H .rdata$_ZTVN12_GLOBAL__N_116itanium_demangle13EnclosingExprE DATA
 0002:00024e40 00000032H .rdata$_ZTSN12_GLOBAL__N_116itanium_demangle13EnclosingExprE DATA
 0002:00024e78 00000018H .rdata$_ZTIN12_GLOBAL__N_116itanium_demangle13EnclosingExprE DATA
 0002:00024e90 00000079H .rdata                  DATA
 0002:00024f10 00000058H .rdata$_ZTVN12_GLOBAL__N_116itanium_demangle14IntegerLiteralE DATA
 0002:00024f68 00000033H .rdata$_ZTSN12_GLOBAL__N_116itanium_demangle14IntegerLiteralE DATA
 0002:00024fa0 00000018H .rdata$_ZTIN12_GLOBAL__N_116itanium_demangle14IntegerLiteralE DATA
 0002:00024fb8 00000058H .rdata$_ZTVN12_GLOBAL__N_116itanium_demangle8BoolExprE DATA
 0002:00025010 0000002cH .rdata$_ZTSN12_GLOBAL__N_116itanium_demangle8BoolExprE DATA
 0002:00025040 00000018H .rdata$_ZTIN12_GLOBAL__N_116itanium_demangle8BoolExprE DATA
 0002:00025058 00000058H .rdata$_ZTVN12_GLOBAL__N_116itanium_demangle16FloatLiteralImplIfEE DATA
 0002:000250b0 00000038H .rdata$_ZTSN12_GLOBAL__N_116itanium_demangle16FloatLiteralImplIfEE DATA
 0002:000250e8 00000018H .rdata$_ZTIN12_GLOBAL__N_116itanium_demangle16FloatLiteralImplIfEE DATA
 0002:00025100 00000058H .rdata$_ZTVN12_GLOBAL__N_116itanium_demangle16FloatLiteralImplIdEE DATA
 0002:00025158 00000038H .rdata$_ZTSN12_GLOBAL__N_116itanium_demangle16FloatLiteralImplIdEE DATA
 0002:00025190 00000018H .rdata$_ZTIN12_GLOBAL__N_116itanium_demangle16FloatLiteralImplIdEE DATA
 0002:000251a8 00000058H .rdata$_ZTVN12_GLOBAL__N_116itanium_demangle16FloatLiteralImplIeEE DATA
 0002:00025200 00000038H .rdata$_ZTSN12_GLOBAL__N_116itanium_demangle16FloatLiteralImplIeEE DATA
 0002:00025238 00000018H .rdata$_ZTIN12_GLOBAL__N_116itanium_demangle16FloatLiteralImplIeEE DATA
 0002:00025250 00000058H .rdata$_ZTVN12_GLOBAL__N_116itanium_demangle13StringLiteralE DATA
 0002:000252a8 00000032H .rdata$_ZTSN12_GLOBAL__N_116itanium_demangle13StringLiteralE DATA
 0002:000252e0 00000018H .rdata$_ZTIN12_GLOBAL__N_116itanium_demangle13StringLiteralE DATA
 0002:000252f8 00000021H .rdata                  DATA
 0002:00025320 00000058H .rdata$_ZTVN12_GLOBAL__N_116itanium_demangle15UnnamedTypeNameE DATA
 0002:00025378 00000034H .rdata$_ZTSN12_GLOBAL__N_116itanium_demangle15UnnamedTypeNameE DATA
 0002:000253b0 00000018H .rdata$_ZTIN12_GLOBAL__N_116itanium_demangle15UnnamedTypeNameE DATA
 0002:000253c8 0000000cH .rdata                  DATA
 0002:000253d8 00000058H .rdata$_ZTVN12_GLOBAL__N_116itanium_demangle26SyntheticTemplateParamNameE DATA
 0002:00025430 0000003fH .rdata$_ZTSN12_GLOBAL__N_116itanium_demangle26SyntheticTemplateParamNameE DATA
 0002:00025470 00000018H .rdata$_ZTIN12_GLOBAL__N_116itanium_demangle26SyntheticTemplateParamNameE DATA
 0002:00025488 00000037H .rdata                  DATA
 0002:000254c0 00000058H .rdata$_ZTVN12_GLOBAL__N_116itanium_demangle21TypeTemplateParamDeclE DATA
 0002:00025518 0000003aH .rdata$_ZTSN12_GLOBAL__N_116itanium_demangle21TypeTemplateParamDeclE DATA
 0002:00025558 00000018H .rdata$_ZTIN12_GLOBAL__N_116itanium_demangle21TypeTemplateParamDeclE DATA
 0002:00025570 0000000aH .rdata                  DATA
 0002:00025580 00000058H .rdata$_ZTVN12_GLOBAL__N_116itanium_demangle24NonTypeTemplateParamDeclE DATA
 0002:000255d8 0000003dH .rdata$_ZTSN12_GLOBAL__N_116itanium_demangle24NonTypeTemplateParamDeclE DATA
 0002:00025618 00000018H .rdata$_ZTIN12_GLOBAL__N_116itanium_demangle24NonTypeTemplateParamDeclE DATA
 0002:00025630 00000058H .rdata$_ZTVN12_GLOBAL__N_116itanium_demangle25TemplateTemplateParamDeclE DATA
 0002:00025688 0000003eH .rdata$_ZTSN12_GLOBAL__N_116itanium_demangle25TemplateTemplateParamDeclE DATA
 0002:000256c8 00000018H .rdata$_ZTIN12_GLOBAL__N_116itanium_demangle25TemplateTemplateParamDeclE DATA
 0002:000256e0 00000016H .rdata                  DATA
 0002:000256f8 00000058H .rdata$_ZTVN12_GLOBAL__N_116itanium_demangle21TemplateParamPackDeclE DATA
 0002:00025750 0000003aH .rdata$_ZTSN12_GLOBAL__N_116itanium_demangle21TemplateParamPackDeclE DATA
 0002:00025790 00000018H .rdata$_ZTIN12_GLOBAL__N_116itanium_demangle21TemplateParamPackDeclE DATA
 0002:000257a8 0000002dH .rdata                  DATA
 0002:000257d8 00000058H .rdata$_ZTVN12_GLOBAL__N_116itanium_demangle15ClosureTypeNameE DATA
 0002:00025830 00000034H .rdata$_ZTSN12_GLOBAL__N_116itanium_demangle15ClosureTypeNameE DATA
 0002:00025868 00000018H .rdata$_ZTIN12_GLOBAL__N_116itanium_demangle15ClosureTypeNameE DATA
 0002:00025880 00000070H .rdata                  DATA
 0002:000258f0 00000058H .rdata$_ZTVN12_GLOBAL__N_116itanium_demangle10LambdaExprE DATA
 0002:00025948 0000002fH .rdata$_ZTSN12_GLOBAL__N_116itanium_demangle10LambdaExprE DATA
 0002:00025978 00000018H .rdata$_ZTIN12_GLOBAL__N_116itanium_demangle10LambdaExprE DATA
 0002:00025990 00000006H .rdata                  DATA
 0002:00025998 00000058H .rdata$_ZTVN12_GLOBAL__N_116itanium_demangle11EnumLiteralE DATA
 0002:000259f0 00000030H .rdata$_ZTSN12_GLOBAL__N_116itanium_demangle11EnumLiteralE DATA
 0002:00025a20 00000018H .rdata$_ZTIN12_GLOBAL__N_116itanium_demangle11EnumLiteralE DATA
 0002:00025a38 0000000fH .rdata                  DATA
 0002:00025a48 00000058H .rdata$_ZTVN12_GLOBAL__N_116itanium_demangle13FunctionParamE DATA
 0002:00025aa0 00000032H .rdata$_ZTSN12_GLOBAL__N_116itanium_demangle13FunctionParamE DATA
 0002:00025ad8 00000018H .rdata$_ZTIN12_GLOBAL__N_116itanium_demangle13FunctionParamE DATA
 0002:00025af0 0000005eH .rdata                  DATA
 0002:00025b50 00000058H .rdata$_ZTVN12_GLOBAL__N_116itanium_demangle8FoldExprE DATA
 0002:00025ba8 0000002cH .rdata$_ZTSN12_GLOBAL__N_116itanium_demangle8FoldExprE DATA
 0002:00025bd8 00000018H .rdata$_ZTIN12_GLOBAL__N_116itanium_demangle8FoldExprE DATA
 0002:00025bf0 00000058H .rdata$_ZTVN12_GLOBAL__N_116itanium_demangle22ParameterPackExpansionE DATA
 0002:00025c48 0000003bH .rdata$_ZTSN12_GLOBAL__N_116itanium_demangle22ParameterPackExpansionE DATA
 0002:00025c88 00000018H .rdata$_ZTIN12_GLOBAL__N_116itanium_demangle22ParameterPackExpansionE DATA
 0002:00025ca0 00000058H .rdata$_ZTVN12_GLOBAL__N_116itanium_demangle10BracedExprE DATA
 0002:00025cf8 0000002fH .rdata$_ZTSN12_GLOBAL__N_116itanium_demangle10BracedExprE DATA
 0002:00025d28 00000018H .rdata$_ZTIN12_GLOBAL__N_116itanium_demangle10BracedExprE DATA
 0002:00025d40 00000004H .rdata                  DATA
 0002:00025d48 00000058H .rdata$_ZTVN12_GLOBAL__N_116itanium_demangle15BracedRangeExprE DATA
 0002:00025da0 00000034H .rdata$_ZTSN12_GLOBAL__N_116itanium_demangle15BracedRangeExprE DATA
 0002:00025dd8 00000018H .rdata$_ZTIN12_GLOBAL__N_116itanium_demangle15BracedRangeExprE DATA
 0002:00025df0 00000006H .rdata                  DATA
 0002:00025df8 00000058H .rdata$_ZTVN12_GLOBAL__N_116itanium_demangle12InitListExprE DATA
 0002:00025e50 00000031H .rdata$_ZTSN12_GLOBAL__N_116itanium_demangle12InitListExprE DATA
 0002:00025e88 00000018H .rdata$_ZTIN12_GLOBAL__N_116itanium_demangle12InitListExprE DATA
 0002:00025ea0 00000058H .rdata$_ZTVN12_GLOBAL__N_116itanium_demangle29PointerToMemberConversionExprE DATA
 0002:00025ef8 00000042H .rdata$_ZTSN12_GLOBAL__N_116itanium_demangle29PointerToMemberConversionExprE DATA
 0002:00025f40 00000018H .rdata$_ZTIN12_GLOBAL__N_116itanium_demangle29PointerToMemberConversionExprE DATA
 0002:00025f58 00000058H .rdata$_ZTVN12_GLOBAL__N_116itanium_demangle13SubobjectExprE DATA
 0002:00025fb0 00000032H .rdata$_ZTSN12_GLOBAL__N_116itanium_demangle13SubobjectExprE DATA
 0002:00025fe8 00000018H .rdata$_ZTIN12_GLOBAL__N_116itanium_demangle13SubobjectExprE DATA
 0002:00026000 0000000cH .rdata                  DATA
 0002:00026010 00000058H .rdata$_ZTVN12_GLOBAL__N_116itanium_demangle19SizeofParamPackExprE DATA
 0002:00026068 00000038H .rdata$_ZTSN12_GLOBAL__N_116itanium_demangle19SizeofParamPackExprE DATA
 0002:000260a0 00000018H .rdata$_ZTIN12_GLOBAL__N_116itanium_demangle19SizeofParamPackExprE DATA
 0002:000260b8 0000000aH .rdata                  DATA
 0002:000260c8 00000058H .rdata$_ZTVN12_GLOBAL__N_116itanium_demangle13NodeArrayNodeE DATA
 0002:00026120 00000032H .rdata$_ZTSN12_GLOBAL__N_116itanium_demangle13NodeArrayNodeE DATA
 0002:00026158 00000018H .rdata$_ZTIN12_GLOBAL__N_116itanium_demangle13NodeArrayNodeE DATA
 0002:00026170 00000058H .rdata$_ZTVN12_GLOBAL__N_116itanium_demangle9ThrowExprE DATA
 0002:000261c8 0000002dH .rdata$_ZTSN12_GLOBAL__N_116itanium_demangle9ThrowExprE DATA
 0002:000261f8 00000018H .rdata$_ZTIN12_GLOBAL__N_116itanium_demangle9ThrowExprE DATA
 0002:00026210 0000000eH .rdata                  DATA
 0002:00026220 00000058H .rdata$_ZTVN12_GLOBAL__N_116itanium_demangle13QualifiedNameE DATA
 0002:00026278 00000032H .rdata$_ZTSN12_GLOBAL__N_116itanium_demangle13QualifiedNameE DATA
 0002:000262b0 00000018H .rdata$_ZTIN12_GLOBAL__N_116itanium_demangle13QualifiedNameE DATA
 0002:000262c8 00000006H .rdata                  DATA
 0002:000262d0 00000058H .rdata$_ZTVN12_GLOBAL__N_116itanium_demangle8DtorNameE DATA
 0002:00026328 0000002cH .rdata$_ZTSN12_GLOBAL__N_116itanium_demangle8DtorNameE DATA
 0002:00026358 00000018H .rdata$_ZTIN12_GLOBAL__N_116itanium_demangle8DtorNameE DATA
 0002:00026370 00000003H .rdata                  DATA
 0002:00026378 00000058H .rdata$_ZTVN12_GLOBAL__N_116itanium_demangle22ConversionOperatorTypeE DATA
 0002:000263d0 0000003bH .rdata$_ZTSN12_GLOBAL__N_116itanium_demangle22ConversionOperatorTypeE DATA
 0002:00026410 00000018H .rdata$_ZTIN12_GLOBAL__N_116itanium_demangle22ConversionOperatorTypeE DATA
 0002:00026428 0000000aH .rdata                  DATA
 0002:00026438 00000058H .rdata$_ZTVN12_GLOBAL__N_116itanium_demangle15LiteralOperatorE DATA
 0002:00026490 00000034H .rdata$_ZTSN12_GLOBAL__N_116itanium_demangle15LiteralOperatorE DATA
 0002:000264c8 00000018H .rdata$_ZTIN12_GLOBAL__N_116itanium_demangle15LiteralOperatorE DATA
 0002:000264e0 0000000cH .rdata                  DATA
 0002:000264f0 00000058H .rdata$_ZTVN12_GLOBAL__N_116itanium_demangle19GlobalQualifiedNameE DATA
 0002:00026548 00000038H .rdata$_ZTSN12_GLOBAL__N_116itanium_demangle19GlobalQualifiedNameE DATA
 0002:00026580 00000018H .rdata$_ZTIN12_GLOBAL__N_116itanium_demangle19GlobalQualifiedNameE DATA
 0002:00026598 00000058H .rdata$_ZTVN12_GLOBAL__N_116itanium_demangle19SpecialSubstitutionE DATA
 0002:000265f0 00000038H .rdata$_ZTSN12_GLOBAL__N_116itanium_demangle19SpecialSubstitutionE DATA
 0002:00026628 00000040H .rdata$_ZTSN12_GLOBAL__N_116itanium_demangle27ExpandedSpecialSubstitutionE DATA
 0002:00026668 00000018H .rdata$_ZTIN12_GLOBAL__N_116itanium_demangle27ExpandedSpecialSubstitutionE DATA
 0002:00026680 00000018H .rdata$_ZTIN12_GLOBAL__N_116itanium_demangle19SpecialSubstitutionE DATA
 0002:00026698 00000058H .rdata$_ZTVN12_GLOBAL__N_116itanium_demangle27ExpandedSpecialSubstitutionE DATA
 0002:000266f0 0000009cH .rdata                  DATA
 0002:00026790 00000058H .rdata$_ZTVN12_GLOBAL__N_116itanium_demangle10AbiTagAttrE DATA
 0002:000267e8 0000002fH .rdata$_ZTSN12_GLOBAL__N_116itanium_demangle10AbiTagAttrE DATA
 0002:00026818 00000018H .rdata$_ZTIN12_GLOBAL__N_116itanium_demangle10AbiTagAttrE DATA
 0002:00026830 00000009H .rdata                  DATA
 0002:00026840 00000058H .rdata$_ZTVN12_GLOBAL__N_116itanium_demangle21StructuredBindingNameE DATA
 0002:00026898 0000003aH .rdata$_ZTSN12_GLOBAL__N_116itanium_demangle21StructuredBindingNameE DATA
 0002:000268d8 00000018H .rdata$_ZTIN12_GLOBAL__N_116itanium_demangle21StructuredBindingNameE DATA
 0002:000268f0 00000058H .rdata$_ZTVN12_GLOBAL__N_116itanium_demangle12CtorDtorNameE DATA
 0002:00026948 00000031H .rdata$_ZTSN12_GLOBAL__N_116itanium_demangle12CtorDtorNameE DATA
 0002:00026980 00000018H .rdata$_ZTIN12_GLOBAL__N_116itanium_demangle12CtorDtorNameE DATA
 0002:00026998 00000058H .rdata$_ZTVN12_GLOBAL__N_116itanium_demangle12ModuleEntityE DATA
 0002:000269f0 00000031H .rdata$_ZTSN12_GLOBAL__N_116itanium_demangle12ModuleEntityE DATA
 0002:00026a28 00000018H .rdata$_ZTIN12_GLOBAL__N_116itanium_demangle12ModuleEntityE DATA
 0002:00026a40 00000058H .rdata$_ZTVN12_GLOBAL__N_116itanium_demangle10NestedNameE DATA
 0002:00026a98 0000002fH .rdata$_ZTSN12_GLOBAL__N_116itanium_demangle10NestedNameE DATA
 0002:00026ac8 00000018H .rdata$_ZTIN12_GLOBAL__N_116itanium_demangle10NestedNameE DATA
 0002:00026ae0 0000000fH .rdata                  DATA
 0002:00026af0 00000058H .rdata$_ZTVN12_GLOBAL__N_116itanium_demangle9LocalNameE DATA
 0002:00026b48 0000002dH .rdata$_ZTSN12_GLOBAL__N_116itanium_demangle9LocalNameE DATA
 0002:00026b78 00000018H .rdata$_ZTIN12_GLOBAL__N_116itanium_demangle9LocalNameE DATA
 0002:00026b90 00000003H .rdata                  DATA
 0002:00026b98 00000058H .rdata$_ZTVN12_GLOBAL__N_116itanium_demangle13ParameterPackE DATA
 0002:00026bf0 00000032H .rdata$_ZTSN12_GLOBAL__N_116itanium_demangle13ParameterPackE DATA
 0002:00026c28 00000018H .rdata$_ZTIN12_GLOBAL__N_116itanium_demangle13ParameterPackE DATA
 0002:00026c40 00000058H .rdata$_ZTVN12_GLOBAL__N_116itanium_demangle12TemplateArgsE DATA
 0002:00026c98 00000031H .rdata$_ZTSN12_GLOBAL__N_116itanium_demangle12TemplateArgsE DATA
 0002:00026cd0 00000018H .rdata$_ZTIN12_GLOBAL__N_116itanium_demangle12TemplateArgsE DATA
 0002:00026ce8 00000058H .rdata$_ZTVN12_GLOBAL__N_116itanium_demangle20NameWithTemplateArgsE DATA
 0002:00026d40 00000039H .rdata$_ZTSN12_GLOBAL__N_116itanium_demangle20NameWithTemplateArgsE DATA
 0002:00026d80 00000018H .rdata$_ZTIN12_GLOBAL__N_116itanium_demangle20NameWithTemplateArgsE DATA
 0002:00026d98 00000058H .rdata$_ZTVN12_GLOBAL__N_116itanium_demangle20TemplateArgumentPackE DATA
 0002:00026df0 00000039H .rdata$_ZTSN12_GLOBAL__N_116itanium_demangle20TemplateArgumentPackE DATA
 0002:00026e30 00000018H .rdata$_ZTIN12_GLOBAL__N_116itanium_demangle20TemplateArgumentPackE DATA
 0002:00026e48 00000058H .rdata$_ZTVN12_GLOBAL__N_116itanium_demangle12EnableIfAttrE DATA
 0002:00026ea0 00000031H .rdata$_ZTSN12_GLOBAL__N_116itanium_demangle12EnableIfAttrE DATA
 0002:00026ed8 00000018H .rdata$_ZTIN12_GLOBAL__N_116itanium_demangle12EnableIfAttrE DATA
 0002:00026ef0 0000002aH .rdata                  DATA
 0002:00026f20 00000058H .rdata$_ZTVN12_GLOBAL__N_116itanium_demangle16FunctionEncodingE DATA
 0002:00026f78 00000035H .rdata$_ZTSN12_GLOBAL__N_116itanium_demangle16FunctionEncodingE DATA
 0002:00026fb0 00000018H .rdata$_ZTIN12_GLOBAL__N_116itanium_demangle16FunctionEncodingE DATA
 0002:00026fc8 0000001fH .rdata                  DATA
 0002:00026fe8 00000058H .rdata$_ZTVN12_GLOBAL__N_116itanium_demangle9DotSuffixE DATA
 0002:00027040 0000002dH .rdata$_ZTSN12_GLOBAL__N_116itanium_demangle9DotSuffixE DATA
 0002:00027070 00000018H .rdata$_ZTIN12_GLOBAL__N_116itanium_demangle9DotSuffixE DATA
 0002:00027088 000000faH .rdata                  DATA
 0002:00027188 00000058H .rdata$_ZTVN12_GLOBAL__N_116itanium_demangle12NoexceptSpecE DATA
 0002:000271e0 00000031H .rdata$_ZTSN12_GLOBAL__N_116itanium_demangle12NoexceptSpecE DATA
 0002:00027218 00000018H .rdata$_ZTIN12_GLOBAL__N_116itanium_demangle12NoexceptSpecE DATA
 0002:00027230 00000058H .rdata$_ZTVN12_GLOBAL__N_116itanium_demangle20DynamicExceptionSpecE DATA
 0002:00027288 00000039H .rdata$_ZTSN12_GLOBAL__N_116itanium_demangle20DynamicExceptionSpecE DATA
 0002:000272c8 00000018H .rdata$_ZTIN12_GLOBAL__N_116itanium_demangle20DynamicExceptionSpecE DATA
 0002:000272e0 00000058H .rdata$_ZTVN12_GLOBAL__N_116itanium_demangle12FunctionTypeE DATA
 0002:00027338 00000031H .rdata$_ZTSN12_GLOBAL__N_116itanium_demangle12FunctionTypeE DATA
 0002:00027370 00000018H .rdata$_ZTIN12_GLOBAL__N_116itanium_demangle12FunctionTypeE DATA
 0002:00027388 0000000aH .rdata                  DATA
 0002:00027398 00000058H .rdata$_ZTVN12_GLOBAL__N_116itanium_demangle13ObjCProtoNameE DATA
 0002:000273f0 00000032H .rdata$_ZTSN12_GLOBAL__N_116itanium_demangle13ObjCProtoNameE DATA
 0002:00027428 00000018H .rdata$_ZTIN12_GLOBAL__N_116itanium_demangle13ObjCProtoNameE DATA
 0002:00027440 00000058H .rdata$_ZTVN12_GLOBAL__N_116itanium_demangle17VendorExtQualTypeE DATA
 0002:00027498 00000036H .rdata$_ZTSN12_GLOBAL__N_116itanium_demangle17VendorExtQualTypeE DATA
 0002:000274d0 00000018H .rdata$_ZTIN12_GLOBAL__N_116itanium_demangle17VendorExtQualTypeE DATA
 0002:000274e8 00000058H .rdata$_ZTVN12_GLOBAL__N_116itanium_demangle8QualTypeE DATA
 0002:00027540 0000002cH .rdata$_ZTSN12_GLOBAL__N_116itanium_demangle8QualTypeE DATA
 0002:00027570 00000018H .rdata$_ZTIN12_GLOBAL__N_116itanium_demangle8QualTypeE DATA
 0002:00027588 00000058H .rdata$_ZTVN12_GLOBAL__N_116itanium_demangle12BinaryFPTypeE DATA
 0002:000275e0 00000031H .rdata$_ZTSN12_GLOBAL__N_116itanium_demangle12BinaryFPTypeE DATA
 0002:00027618 00000018H .rdata$_ZTIN12_GLOBAL__N_116itanium_demangle12BinaryFPTypeE DATA
 0002:00027630 00000007H .rdata                  DATA
 0002:00027638 00000058H .rdata$_ZTVN12_GLOBAL__N_116itanium_demangle10BitIntTypeE DATA
 0002:00027690 0000002fH .rdata$_ZTSN12_GLOBAL__N_116itanium_demangle10BitIntTypeE DATA
 0002:000276c0 00000018H .rdata$_ZTIN12_GLOBAL__N_116itanium_demangle10BitIntTypeE DATA
 0002:000276d8 00000015H .rdata                  DATA
 0002:000276f0 00000058H .rdata$_ZTVN12_GLOBAL__N_116itanium_demangle15PixelVectorTypeE DATA
 0002:00027748 00000034H .rdata$_ZTSN12_GLOBAL__N_116itanium_demangle15PixelVectorTypeE DATA
 0002:00027780 00000018H .rdata$_ZTIN12_GLOBAL__N_116itanium_demangle15PixelVectorTypeE DATA
 0002:00027798 0000000eH .rdata                  DATA
 0002:000277a8 00000058H .rdata$_ZTVN12_GLOBAL__N_116itanium_demangle10VectorTypeE DATA
 0002:00027800 0000002fH .rdata$_ZTSN12_GLOBAL__N_116itanium_demangle10VectorTypeE DATA
 0002:00027830 00000018H .rdata$_ZTIN12_GLOBAL__N_116itanium_demangle10VectorTypeE DATA
 0002:00027848 00000058H .rdata$_ZTVN12_GLOBAL__N_116itanium_demangle9ArrayTypeE DATA
 0002:000278a0 0000002dH .rdata$_ZTSN12_GLOBAL__N_116itanium_demangle9ArrayTypeE DATA
 0002:000278d0 00000018H .rdata$_ZTIN12_GLOBAL__N_116itanium_demangle9ArrayTypeE DATA
 0002:000278e8 00000062H .rdata                  DATA
 0002:00027950 00000058H .rdata$_ZTVN12_GLOBAL__N_116itanium_demangle19PointerToMemberTypeE DATA
 0002:000279a8 00000038H .rdata$_ZTSN12_GLOBAL__N_116itanium_demangle19PointerToMemberTypeE DATA
 0002:000279e0 00000018H .rdata$_ZTIN12_GLOBAL__N_116itanium_demangle19PointerToMemberTypeE DATA
 0002:000279f8 0000001fH .rdata                  DATA
 0002:00027a18 00000058H .rdata$_ZTVN12_GLOBAL__N_116itanium_demangle22ElaboratedTypeSpefTypeE DATA
 0002:00027a70 0000003bH .rdata$_ZTSN12_GLOBAL__N_116itanium_demangle22ElaboratedTypeSpefTypeE DATA
 0002:00027ab0 00000018H .rdata$_ZTIN12_GLOBAL__N_116itanium_demangle22ElaboratedTypeSpefTypeE DATA
 0002:00027ac8 00000058H .rdata$_ZTVN12_GLOBAL__N_116itanium_demangle11PointerTypeE DATA
 0002:00027b20 00000030H .rdata$_ZTSN12_GLOBAL__N_116itanium_demangle11PointerTypeE DATA
 0002:00027b50 00000018H .rdata$_ZTIN12_GLOBAL__N_116itanium_demangle11PointerTypeE DATA
 0002:00027b68 00000010H .rdata                  DATA
 0002:00027b78 00000058H .rdata$_ZTVN12_GLOBAL__N_116itanium_demangle13ReferenceTypeE DATA
 0002:00027bd0 00000032H .rdata$_ZTSN12_GLOBAL__N_116itanium_demangle13ReferenceTypeE DATA
 0002:00027c08 00000018H .rdata$_ZTIN12_GLOBAL__N_116itanium_demangle13ReferenceTypeE DATA
 0002:00027c20 00000005H .rdata                  DATA
 0002:00027c28 00000058H .rdata$_ZTVN12_GLOBAL__N_116itanium_demangle20PostfixQualifiedTypeE DATA
 0002:00027c80 00000039H .rdata$_ZTSN12_GLOBAL__N_116itanium_demangle20PostfixQualifiedTypeE DATA
 0002:00027cc0 00000018H .rdata$_ZTIN12_GLOBAL__N_116itanium_demangle20PostfixQualifiedTypeE DATA
 0002:00027cd8 00000030H .rdata                  DATA
 0002:00027d08 00000001H .rdata$_ZNSt3__16chrono12system_clock9is_steadyE DATA
 0002:00027d09 00000001H .rdata$_ZNSt3__16chrono12steady_clock9is_steadyE DATA
 0002:00027d0a 000000c0H .rdata                  DATA
 0002:00027dd0 00000008H .rdata$.refptr._ZN6System12MainInstanceE DATA
 0002:00027dd8 00000008H .rdata$.refptr._ZN6System13IsMultiThreadE DATA
 0002:00027de0 00000008H .rdata$.refptr.__isDLL  DATA
 0002:00027de8 00000008H .rdata$.refptr.__isGUI  DATA
 0002:00027df0 00000008H .rdata$.refptr.__isVCLPackage DATA
 0002:00027df8 00000008H .rdata$.refptr._embtinit_end DATA
 0002:00027e00 00000008H .rdata$.refptr._embtinit_start DATA
 0002:00027e08 00000374H .rdata                  DATA
 0002:00028180 00000008H .rdata$.refptr._ZN6System13ExceptObjProcE DATA
 0002:00028188 00000008H .CRT$XCA                DATA
 0002:00028190 00000008H .CRT$XCAA               DATA
 0002:00028198 00000008H .CRT$XCZ                DATA
 0002:000281a0 00000008H .CRT$XDA                DATA
 0002:000281a8 00000008H .CRT$XDZ                DATA
 0002:000281b0 00000008H .CRT$XIA                DATA
 0002:000281b8 00000008H .CRT$XIAA               DATA
 0002:000281c0 00000008H .CRT$XIZ                DATA
 0002:000281c8 00000008H .CRT$XLA                DATA
 0002:000281d0 00000008H .CRT$XLC                DATA
 0002:000281d8 00000008H .CRT$XLD                DATA
 0002:000281e0 00000008H .CRT$XLZ                DATA
 0002:000281f0 00000010H .ctors                  DATA
 0002:00028200 00000010H .ctors.65435            DATA
 0002:00028210 00000010H .ctors.65534            DATA
 0002:0002aad0 00001bccH .xdata                  DATA
 0002:0002c69c 00000020H .xdata$_ZNSt3__16vectorIN5Eigen7TripletIdiEENS_9allocatorIS3_EEE22__construct_one_at_endB6v15007IJRlS8_RdEEEvDpOT_ DATA
 0002:0002c6bc 00000020H .xdata$_ZNSt3__16vectorIN5Eigen7TripletIdiEENS_9allocatorIS3_EEE24__emplace_back_slow_pathIJRlS8_RdEEEvDpOT_ DATA
 0002:0002c6dc 00000020H .xdata$_ZNKSt3__16vectorIN5Eigen7TripletIdiEENS_9allocatorIS3_EEE8max_sizeEv DATA
 0002:0002c6fc 0000001cH .xdata$_ZNSt3__120__throw_length_errorB6v15007EPKc DATA
 0002:0002c718 00000020H .xdata$_ZNSt3__113__rewrap_iterB6v15007INS_16reverse_iteratorIPN5Eigen7TripletIdiEEEES6_NS_18__unwrap_iter_implIS6_Lb0EEEEET_S9_T0_ DATA
 0002:0002c738 00000020H .xdata$_ZNSt3__113__rewrap_iterB6v15007IPN5Eigen7TripletIdiEES4_NS_18__unwrap_iter_implIS4_Lb1EEEEET_S7_T0_ DATA
 0002:0002c758 00000020H .xdata$_ZNSt3__114__split_bufferIN5Eigen7TripletIdiEERNS_9allocatorIS3_EEED2Ev DATA
 0002:0002c778 00000020H .xdata$_ZNSt3__114__split_bufferIN5Eigen7TripletIdiEERNS_9allocatorIS3_EEE17__destruct_at_endB6v15007EPS3_NS_17integral_constantIbLb0EEE DATA
 0002:0002c798 00000020H .xdata$_ZNSt3__19allocatorIN5Eigen7TripletIdiEEE10deallocateB6v15007EPS3_y DATA
 0002:0002c7b8 00000020H .xdata$_ZNSt3__16vectorIN5Eigen7TripletIdiEENS_9allocatorIS3_EEE22__construct_one_at_endB6v15007IJRlS8_dEEEvDpOT_ DATA
 0002:0002c7d8 00000020H .xdata$_ZNSt3__16vectorIN5Eigen7TripletIdiEENS_9allocatorIS3_EEE24__emplace_back_slow_pathIJRlS8_dEEEvDpOT_ DATA
 0002:0002c7f8 00000020H .xdata$_ZNSt3__16vectorIN5Eigen7TripletIdiEENS_9allocatorIS3_EEEC2B6v15007Ev DATA
 0002:0002c818 0000001cH .xdata$_ZN5Eigen12SparseMatrixIdLi1EiEC2Exx DATA
 0002:0002c834 00000028H .xdata$_ZN5Eigen19IterativeSolverBaseINS_8BiCGSTABINS_12SparseMatrixIdLi0EiEENS_13IncompleteLUTIdiEEEEEC2Ev DATA
 0002:0002c85c 0000001cH .xdata$_ZN5Eigen8internal22generic_matrix_wrapperINS_12SparseMatrixIdLi0EiEELb0EEC2Ev DATA
 0002:0002c878 0000001cH .xdata$_ZN5Eigen12SparseMatrixIdLi0EiEC2Exx DATA
 0002:0002c894 0000001cH .xdata$_ZN5Eigen3RefIKNS_12SparseMatrixIdLi0EiEELi0ENS_11OuterStrideILin1EEEEC2IS2_EERKNS_16SparseMatrixBaseIT_EE DATA
 0002:0002c8b0 00000020H .xdata$_ZNK5Eigen9DenseBaseINS_3MapIKNS_6MatrixIiLin1ELi1ELi0ELin1ELi1EEELi0ENS_6StrideILi0ELi0EEEEEE5reduxINS_8internal13scalar_sum_opIiiEEEEiRKT_ DATA
 0002:0002c8d0 00000020H .xdata$_ZNK5Eigen9EigenBaseINS_3MapIKNS_6MatrixIiLin1ELi1ELi0ELin1ELi1EEELi0ENS_6StrideILi0ELi0EEEEEE4rowsEv DATA
 0002:0002c8f0 00000020H .xdata$_ZNK5Eigen9EigenBaseINS_3MapIKNS_6MatrixIiLin1ELi1ELi0ELin1ELi1EEELi0ENS_6StrideILi0ELi0EEEEEE4colsEv DATA
 0002:0002c910 00000020H .xdata$_ZNK5Eigen7MapBaseINS_3MapIKNS_6MatrixIiLin1ELi1ELi0ELin1ELi1EEELi0ENS_6StrideILi0ELi0EEEEELi0EE4rowsEv DATA
 0002:0002c930 00000020H .xdata$_ZNK5Eigen7MapBaseINS_3MapIKNS_6MatrixIiLin1ELi1ELi0ELin1ELi1EEELi0ENS_6StrideILi0ELi0EEEEELi0EE4colsEv DATA
 0002:0002c950 0000001cH .xdata$_ZN5Eigen8internal17mapbase_evaluatorINS_3MapIKNS_6MatrixIiLin1ELi1ELi0ELin1ELi1EEELi0ENS_6StrideILi0ELi0EEEEES5_EC2ERKS8_ DATA
 0002:0002c96c 00000020H .xdata$_ZN5Eigen12SparseMatrixIdLi0EiED2Ev DATA
 0002:0002c98c 00000028H .xdata$_ZN5Eigen13IncompleteLUTIdiEC2Ev DATA
 0002:0002c9b4 0000001cH .xdata$_ZN5Eigen12SparseMatrixIdLi1EiEC2Ev DATA
 0002:0002c9d0 00000020H .xdata$_ZN5Eigen12DenseStorageIiLin1ELin1ELi1ELi0EED2Ev DATA
 0002:0002c9f0 00000024H .xdata$_ZN5Eigen8internal17CompressedStorageIdiE10reallocateEx DATA
 0002:0002ca14 00000018H .xdata$_ZN5Eigen8internal12scoped_arrayIdEC2Ex DATA
 0002:0002ca2c 00000018H .xdata$_ZN5Eigen8internal12scoped_arrayIiEC2Ex DATA
 0002:0002ca44 00000030H .xdata$_ZN5Eigen8internal17set_from_tripletsINSt3__111__wrap_iterIPNS_7TripletIdiEEEENS_12SparseMatrixIdLi1EiEENS0_13scalar_sum_opIddEEEEvRKT_SE_RT0_T1_ DATA
 0002:0002ca74 00000024H .xdata$_ZN5Eigen12SparseMatrixIdLi0EiE18collapseDuplicatesINS_8internal13scalar_sum_opIddEEEEvT_ DATA
 0002:0002ca98 0000002cH .xdata$_ZN5Eigen12SparseMatrixIdLi1EiEaSINS0_IdLi0EiEEEERS1_RKNS_16SparseMatrixBaseIT_EE DATA
 0002:0002cac4 0000001cH .xdata$_ZN5Eigen6MatrixIiLin1ELi1ELi0ELin1ELi1EEC2IxEERKT_ DATA
 0002:0002cae0 00000020H .xdata$_ZNK5Eigen9EigenBaseINS_6MatrixIiLin1ELi1ELi0ELin1ELi1EEEE4rowsEv DATA
 0002:0002cb00 00000020H .xdata$_ZNK5Eigen15PlainObjectBaseINS_6MatrixIiLin1ELi1ELi0ELin1ELi1EEEE4colsEv DATA
 0002:0002cb20 0000001cH .xdata$_ZN5Eigen15DenseCoeffsBaseINS_6MatrixIiLin1ELi1ELi0ELin1ELi1EEELi1EE8coeffRefEx DATA
 0002:0002cb3c 00000018H .xdata$_ZN5Eigen8internal9evaluatorINS_15PlainObjectBaseINS_6MatrixIiLin1ELi1ELi0ELin1ELi1EEEEEEC2ERKS5_ DATA
 0002:0002cb54 0000001cH .xdata$_ZNK5Eigen15DenseCoeffsBaseINS_6MatrixIiLin1ELi1ELi0ELin1ELi1EEELi0EE5coeffEx DATA
 0002:0002cb70 00000020H .xdata$_ZNK5Eigen9EigenBaseINS_3MapINS_6MatrixIiLin1ELi1ELi0ELin1ELi1EEELi0ENS_6StrideILi0ELi0EEEEEE4rowsEv DATA
 0002:0002cb90 00000024H .xdata$_ZN5Eigen8internal26call_dense_assignment_loopINS_3MapINS_6MatrixIiLin1ELi1ELi0ELin1ELi1EEELi0ENS_6StrideILi0ELi0EEEEENS_14CwiseNullaryOpINS0_18scalar_constant_opIiEES4_EENS0_9assign_opIiiEEEEvRT_RKT0_RKT1_ DATA
 0002:0002cbb4 00000018H .xdata$_ZN5Eigen8internal9evaluatorINS_14CwiseNullaryOpINS0_18scalar_constant_opIiEENS_6MatrixIiLin1ELi1ELi0ELin1ELi1EEEEEEC2ERKS7_ DATA
 0002:0002cbcc 0000001cH .xdata$_ZN5Eigen8internal17mapbase_evaluatorINS_3MapINS_6MatrixIiLin1ELi1ELi0ELin1ELi1EEELi0ENS_6StrideILi0ELi0EEEEES4_EC2ERKS7_ DATA
 0002:0002cbe8 0000001cH .xdata$_ZN5Eigen3RefIKNS_12SparseMatrixIdLi0EiEELi0ENS_11OuterStrideILin1EEEEC2INS1_IdLi1EiEEEERKNS_16SparseMatrixBaseIT_EE DATA
 0002:0002cc04 0000001cH .xdata$_ZN5Eigen12SparseMatrixIdLi0EiEC2INS0_IdLi1EiEEEERKNS_16SparseMatrixBaseIT_EE DATA
 0002:0002cc20 0000002cH .xdata$_ZN5Eigen12SparseMatrixIdLi0EiEaSINS0_IdLi1EiEEEERS1_RKNS_16SparseMatrixBaseIT_EE DATA
 0002:0002cc4c 0000002cH .xdata$_ZN5Eigen13IncompleteLUTIdiE14analyzePatternINS_3RefIKNS_12SparseMatrixIdLi0EiEELi0ENS_11OuterStrideILin1EEEEEEEvRKT_ DATA
 0002:0002cc78 00000034H .xdata$_ZN5Eigen13IncompleteLUTIdiE9factorizeINS_3RefIKNS_12SparseMatrixIdLi0EiEELi0ENS_11OuterStrideILin1EEEEEEEvRKT_ DATA
 0002:0002ccac 0000001cH .xdata$_ZN5Eigen11AMDOrderingIiEclINS_12SparseMatrixIdLi0EiEEEEvRKT_RNS_17PermutationMatrixILin1ELin1EiEE DATA
 0002:0002ccc8 00000020H .xdata$_ZN5Eigen12SparseMatrixIdLi0EiEC2INS_3RefIKS1_Li0ENS_11OuterStrideILin1EEEEEEERKNS_16SparseMatrixBaseIT_EE DATA
 0002:0002cce8 00000028H .xdata$_ZN5Eigen8internal23assign_sparse_to_sparseINS_12SparseMatrixIdLi0EiEENS_3RefIKS3_Li0ENS_11OuterStrideILin1EEEEEEEvRT_RKT0_ DATA
 0002:0002cd10 00000028H .xdata$_ZN5Eigen8internal23assign_sparse_to_sparseINS_12SparseMatrixIdLi0EiEES3_EEvRT_RKT0_ DATA
 0002:0002cd38 00000020H .xdata$_ZN5Eigen12SparseMatrixIdLi0EiEC2INS_9TransposeIKNS_3RefIKS1_Li0ENS_11OuterStrideILin1EEEEEEEEERKNS_16SparseMatrixBaseIT_EE DATA
 0002:0002cd58 00000030H .xdata$_ZN5Eigen12SparseMatrixIdLi0EiEaSINS_9TransposeIKNS_3RefIKS1_Li0ENS_11OuterStrideILin1EEEEEEEEERS1_RKNS_16SparseMatrixBaseIT_EE DATA
 0002:0002cd88 00000018H .xdata$_ZN5Eigen8internal15unary_evaluatorINS_9TransposeIKNS_3RefIKNS_12SparseMatrixIdLi0EiEELi0ENS_11OuterStrideILin1EEEEEEENS0_13IteratorBasedEdEC2ERKSB_ DATA
 0002:0002cda0 00000020H .xdata$_ZN5Eigen12SparseMatrixIdLi0EiEC2INS_13CwiseBinaryOpINS_8internal13scalar_sum_opIddEEKS1_S7_EEEERKNS_16SparseMatrixBaseIT_EE DATA
 0002:0002cdc0 00000028H .xdata$_ZN5Eigen8internal23assign_sparse_to_sparseINS_12SparseMatrixIdLi0EiEENS_13CwiseBinaryOpINS0_13scalar_sum_opIddEEKS3_S7_EEEEvRT_RKT0_ DATA
 0002:0002cde8 00000020H .xdata$_ZN5Eigen8internal16binary_evaluatorINS_13CwiseBinaryOpINS0_13scalar_sum_opIddEEKNS_12SparseMatrixIdLi0EiEES7_EENS0_13IteratorBasedES9_ddEC2ERKS8_ DATA
 0002:0002ce08 00000020H .xdata$_ZN5Eigen8internal25ordering_helper_at_plus_aINS_12SparseMatrixIdLi0EiEEEEvRKT_RS4_ DATA
 0002:0002ce28 00000028H .xdata$_ZN5Eigen8internal23minimum_degree_orderingIdiEEvRNS_12SparseMatrixIT_Li0ET0_EERNS_17PermutationMatrixILin1ELin1ES4_EE DATA
 0002:0002ce50 0000001cH .xdata$_ZN5Eigen12SparseMatrixIdLi0EiEC2Ev DATA
 0002:0002ce6c 00000030H .xdata$_ZN5Eigen12SparseMatrixIdLi0EiEaSINS_9TransposeIKS1_EEEERS1_RKNS_16SparseMatrixBaseIT_EE DATA
 0002:0002ce9c 00000018H .xdata$_ZN5Eigen8internal15unary_evaluatorINS_9TransposeIKNS_12SparseMatrixIdLi0EiEEEENS0_13IteratorBasedEdEC2ERKS6_ DATA
 0002:0002ceb4 00000020H .xdata$_ZN5Eigen8internal28aligned_stack_memory_handlerIiED2Ev DATA
 0002:0002ced4 00000020H .xdata$_ZN5Eigen17PermutationMatrixILin1ELin1EiEC2IS1_EERKNS_11InverseImplIT_NS_18PermutationStorageEEE DATA
 0002:0002cef4 00000020H .xdata$_ZN5Eigen12DenseStorageIiLin1ELin1ELi1ELi0EEaSEOS1_ DATA
 0002:0002cf14 0000001cH .xdata$_ZN5Eigen6MatrixIdLin1ELi1ELi0ELin1ELi1EEC2IxEERKT_ DATA
 0002:0002cf30 00000020H .xdata$_ZN5Eigen12DenseStorageIdLin1ELin1ELi1ELi0EED2Ev DATA
 0002:0002cf50 00000020H .xdata$_ZN5Eigen8internal10AssignmentINS_12SparseMatrixIdLi1EiEENS_33SparseSymmetricPermutationProductINS_3RefIKNS2_IdLi0EiEELi0ENS_11OuterStrideILin1EEEEELi3EEENS0_9assign_opIddEENS0_13Sparse2SparseEvE3runILi1EEEvRNS2_IdXT_EiEERKSB_RKSD_ DATA
 0002:0002cf70 00000028H .xdata$_ZN5Eigen8internal24permute_symm_to_fullsymmILi3ENS_3RefIKNS_12SparseMatrixIdLi0EiEELi0ENS_11OuterStrideILin1EEEEELi0EEEvRKT0_RNS3_INS9_6ScalarEXT1_ENS9_12StorageIndexEEEPKSD_ DATA
 0002:0002cf98 00000020H .xdata$_ZNK5Eigen9DenseBaseINS_6MatrixIiLin1ELi1ELi0ELin1ELi1EEEE5reduxINS_8internal13scalar_sum_opIiiEEEEiRKT_ DATA
 0002:0002cfb8 00000020H .xdata$_ZNK5Eigen9EigenBaseINS_6MatrixIdLin1ELi1ELi0ELin1ELi1EEEE4rowsEv DATA
 0002:0002cfd8 00000020H .xdata$_ZNK5Eigen15PlainObjectBaseINS_6MatrixIdLin1ELi1ELi0ELin1ELi1EEEE4colsEv DATA
 0002:0002cff8 0000001cH .xdata$_ZNK5Eigen15DenseCoeffsBaseINS_5ArrayIiLi2ELi1ELi0ELi2ELi1EEELi0EE5coeffEx DATA
 0002:0002d014 00000020H .xdata$_ZNK5Eigen9EigenBaseINS_5ArrayIiLi2ELi1ELi0ELi2ELi1EEEE4rowsEv DATA
 0002:0002d034 00000018H .xdata$_ZN5Eigen8internal9evaluatorINS_15PlainObjectBaseINS_5ArrayIiLi2ELi1ELi0ELi2ELi1EEEEEEC2ERKS5_ DATA
 0002:0002d04c 00000020H .xdata$_ZNK5Eigen6MatrixIiLin1ELi1ELi0ELin1ELi1EE11outerStrideEv DATA
 0002:0002d06c 00000020H .xdata$_ZNK5Eigen9EigenBaseINS_5BlockINS_6MatrixIiLin1ELi1ELi0ELin1ELi1EEELin1ELi1ELb0EEEE4rowsEv DATA
 0002:0002d08c 0000001cH .xdata$_ZNK5Eigen9DenseBaseINS_5BlockINS_6MatrixIiLin1ELi1ELi0ELin1ELi1EEELin1ELi1ELb0EEEE5visitINS_8internal17min_coeff_visitorIS4_Li0EEEEEvRT_ DATA
 0002:0002d0a8 0000001cH .xdata$_ZN5Eigen8internal15block_evaluatorINS_6MatrixIiLin1ELi1ELi0ELin1ELi1EEELin1ELi1ELb0ELb1EEC2ERKNS_5BlockIS3_Lin1ELi1ELb0EEE DATA
 0002:0002d0c4 0000001cH .xdata$_ZN5Eigen8internal17mapbase_evaluatorINS_5BlockINS_6MatrixIiLin1ELi1ELi0ELin1ELi1EEELin1ELi1ELb0EEES4_EC2ERKS5_ DATA
 0002:0002d0e0 00000020H .xdata$_ZNK5Eigen6MatrixIdLin1ELi1ELi0ELin1ELi1EE11outerStrideEv DATA
 0002:0002d100 00000020H .xdata$_ZNK5Eigen9EigenBaseINS_5BlockINS_6MatrixIdLin1ELi1ELi0ELin1ELi1EEELin1ELi1ELb0EEEE4rowsEv DATA
 0002:0002d120 0000001cH .xdata$_ZN5Eigen15DenseCoeffsBaseINS_5BlockINS_6MatrixIdLin1ELi1ELi0ELin1ELi1EEELin1ELi1ELb0EEELi1EE8coeffRefEx DATA
 0002:0002d13c 0000001cH .xdata$_ZN5Eigen8internal15block_evaluatorINS_6MatrixIdLin1ELi1ELi0ELin1ELi1EEELin1ELi1ELb0ELb1EEC2ERKNS_5BlockIS3_Lin1ELi1ELb0EEE DATA
 0002:0002d158 0000001cH .xdata$_ZN5Eigen8internal17mapbase_evaluatorINS_5BlockINS_6MatrixIdLin1ELi1ELi0ELin1ELi1EEELin1ELi1ELb0EEES4_EC2ERKS5_ DATA
 0002:0002d174 0000001cH .xdata$_ZN5Eigen15DenseCoeffsBaseINS_5BlockINS_6MatrixIiLin1ELi1ELi0ELin1ELi1EEELin1ELi1ELb0EEELi1EE8coeffRefEx DATA
 0002:0002d190 0000001cH .xdata$_ZN5Eigen15PlainObjectBaseINS_6MatrixIdLin1ELi1ELi0ELin1ELi1EEEEC2INS_14CwiseNullaryOpINS_8internal18scalar_constant_opIdEES2_EEEERKNS_9DenseBaseIT_EE DATA
 0002:0002d1ac 0000001cH .xdata$_ZN5Eigen15DenseCoeffsBaseINS_6MatrixIdLin1ELi1ELi0ELin1ELi1EEELi1EE8coeffRefEx DATA
 0002:0002d1c8 00000018H .xdata$_ZN5Eigen8internal9evaluatorINS_15PlainObjectBaseINS_6MatrixIdLin1ELi1ELi0ELin1ELi1EEEEEEC2ERKS5_ DATA
 0002:0002d1e0 00000020H .xdata$_ZNK5Eigen19IterativeSolverBaseINS_8BiCGSTABINS_12SparseMatrixIdLi0EiEENS_13IncompleteLUTIdiEEEEE4rowsEv DATA
 0002:0002d200 0000001cH .xdata$_ZN5Eigen15PlainObjectBaseINS_6MatrixIdLin1ELi1ELi0ELin1ELi1EEEEC2INS_5SolveINS_8BiCGSTABINS_12SparseMatrixIdLi0EiEENS_13IncompleteLUTIdiEEEES2_EEEERKNS_9DenseBaseIT_EE DATA
 0002:0002d21c 00000020H .xdata$_ZNK5Eigen19IterativeSolverBaseINS_8BiCGSTABINS_12SparseMatrixIdLi0EiEENS_13IncompleteLUTIdiEEEEE4colsEv DATA
 0002:0002d23c 0000005cH .xdata$_ZN5Eigen8internal8bicgstabINS_3RefIKNS_12SparseMatrixIdLi0EiEELi0ENS_11OuterStrideILin1EEEEENS_6MatrixIdLin1ELi1ELi0ELin1ELi1EEESA_NS_13IncompleteLUTIdiEEEEbRKT_RKT0_RT1_RKT2_RxRNSJ_10RealScalarE DATA
 0002:0002d298 0000001cH .xdata$_ZN5Eigen15PlainObjectBaseINS_6MatrixIdLin1ELi1ELi0ELin1ELi1EEEEC2INS_13CwiseBinaryOpINS_8internal20scalar_difference_opIddEEKS2_KNS_7ProductINS_3RefIKNS_12SparseMatrixIdLi0EiEELi0ENS_11OuterStrideILin1EEEEES2_Li0EEEEEEERKNS_9DenseBaseIT_EE DATA
 0002:0002d2b4 00000024H .xdata$_ZN5Eigen8internal26call_dense_assignment_loopINS_6MatrixIdLin1ELi1ELi0ELin1ELi1EEES3_NS0_9assign_opIddEEEEvRT_RKT0_RKT1_ DATA
 0002:0002d2d8 00000024H .xdata$_ZN5Eigen8internal30sparse_time_dense_product_implINS_3RefIKNS_12SparseMatrixIdLi0EiEELi0ENS_11OuterStrideILin1EEEEENS_6MatrixIdLin1ELi1ELi0ELin1ELi1EEESA_dLi0ELb1EE3runERKS8_RKSA_RSA_RKd DATA
 0002:0002d2fc 00000020H .xdata$_ZNK5Eigen9DenseBaseINS_12CwiseUnaryOpINS_8internal14scalar_abs2_opIdEEKNS_6MatrixIdLin1ELi1ELi0ELin1ELi1EEEEEE5reduxINS2_13scalar_sum_opIddEEEEdRKT_ DATA
 0002:0002d31c 00000020H .xdata$_ZNK5Eigen9EigenBaseINS_12CwiseUnaryOpINS_8internal14scalar_abs2_opIdEEKNS_6MatrixIdLin1ELi1ELi0ELin1ELi1EEEEEE4rowsEv DATA
 0002:0002d33c 00000020H .xdata$_ZNK5Eigen9EigenBaseINS_12CwiseUnaryOpINS_8internal14scalar_abs2_opIdEEKNS_6MatrixIdLin1ELi1ELi0ELin1ELi1EEEEEE4colsEv DATA
 0002:0002d35c 00000018H .xdata$_ZN5Eigen8internal15unary_evaluatorINS_12CwiseUnaryOpINS0_14scalar_abs2_opIdEEKNS_6MatrixIdLin1ELi1ELi0ELin1ELi1EEEEENS0_10IndexBasedEdEC2ERKS8_ DATA
 0002:0002d374 00000020H .xdata$_ZNK5Eigen9DenseBaseINS_13CwiseBinaryOpINS_8internal22scalar_conj_product_opIddEEKNS_6MatrixIdLin1ELi1ELi0ELin1ELi1EEES7_EEE5reduxINS2_13scalar_sum_opIddEEEEdRKT_ DATA
 0002:0002d394 00000020H .xdata$_ZNK5Eigen9EigenBaseINS_13CwiseBinaryOpINS_8internal22scalar_conj_product_opIddEEKNS_6MatrixIdLin1ELi1ELi0ELin1ELi1EEES7_EEE4rowsEv DATA
 0002:0002d3b4 00000020H .xdata$_ZNK5Eigen9EigenBaseINS_13CwiseBinaryOpINS_8internal22scalar_conj_product_opIddEEKNS_6MatrixIdLin1ELi1ELi0ELin1ELi1EEES7_EEE4colsEv DATA
 0002:0002d3d4 00000018H .xdata$_ZN5Eigen8internal16binary_evaluatorINS_13CwiseBinaryOpINS0_22scalar_conj_product_opIddEEKNS_6MatrixIdLin1ELi1ELi0ELin1ELi1EEES7_EENS0_10IndexBasedES9_ddEC2ERKS8_ DATA
 0002:0002d3ec 00000020H .xdata$_ZN5Eigen8internal16binary_evaluatorINS_13CwiseBinaryOpINS0_22scalar_conj_product_opIddEEKNS_6MatrixIdLin1ELi1ELi0ELin1ELi1EEES7_EENS0_10IndexBasedES9_ddE4DataC2ERKS8_ DATA
 0002:0002d40c 0000001cH .xdata$_ZN5Eigen8internal15call_assignmentINS_6MatrixIdLin1ELi1ELi0ELin1ELi1EEENS_13CwiseBinaryOpINS0_20scalar_difference_opIddEEKS3_KNS_7ProductINS_3RefIKNS_12SparseMatrixIdLi0EiEELi0ENS_11OuterStrideILin1EEEEES3_Li0EEEEENS0_9assign_opIddEEEEvRT_RKT0_RKT1_NS0_9enable_ifIXsr25evaluator_assume_aliasingISN_EE5valueEPvE4typeE DATA
 0002:0002d428 0000001cH .xdata$_ZN5Eigen6MatrixIdLin1ELi1ELi0ELin1ELi1EEC2INS_13CwiseBinaryOpINS_8internal20scalar_difference_opIddEEKS1_KNS_7ProductINS_3RefIKNS_12SparseMatrixIdLi0EiEELi0ENS_11OuterStrideILin1EEEEES1_Li0EEEEEEERKT_ DATA
 0002:0002d444 00000020H .xdata$_ZNK5Eigen13CwiseBinaryOpINS_8internal17scalar_product_opIddEEKNS_14CwiseNullaryOpINS1_18scalar_constant_opIdEEKNS_6MatrixIdLin1ELi1ELi0ELin1ELi1EEEEEKNS0_INS1_20scalar_difference_opIddEES9_KNS0_IS3_SB_S9_EEEEE4colsEv DATA
 0002:0002d464 00000024H .xdata$_ZN5Eigen8internal26call_dense_assignment_loopINS_6MatrixIdLin1ELi1ELi0ELin1ELi1EEENS_13CwiseBinaryOpINS0_13scalar_sum_opIddEEKS3_KNS4_INS0_17scalar_product_opIddEEKNS_14CwiseNullaryOpINS0_18scalar_constant_opIdEES7_EEKNS4_INS0_20scalar_difference_opIddEES7_KNS4_IS9_SE_S7_EEEEEEEENS0_9assign_opIddEEEEvRT_RKT0_RKT1_ DATA
 0002:0002d488 00000018H .xdata$_ZN5Eigen8internal16binary_evaluatorINS_13CwiseBinaryOpINS0_13scalar_sum_opIddEEKNS_6MatrixIdLin1ELi1ELi0ELin1ELi1EEEKNS2_INS0_17scalar_product_opIddEEKNS_14CwiseNullaryOpINS0_18scalar_constant_opIdEES7_EEKNS2_INS0_20scalar_difference_opIddEES7_KNS2_IS9_SE_S7_EEEEEEEENS0_10IndexBasedESO_ddEC2ERKSN_ DATA
 0002:0002d4a0 00000020H .xdata$_ZN5Eigen8internal16binary_evaluatorINS_13CwiseBinaryOpINS0_13scalar_sum_opIddEEKNS_6MatrixIdLin1ELi1ELi0ELin1ELi1EEEKNS2_INS0_17scalar_product_opIddEEKNS_14CwiseNullaryOpINS0_18scalar_constant_opIdEES7_EEKNS2_INS0_20scalar_difference_opIddEES7_KNS2_IS9_SE_S7_EEEEEEEENS0_10IndexBasedESO_ddE4DataC2ERKSN_ DATA
 0002:0002d4c0 00000018H .xdata$_ZN5Eigen8internal16binary_evaluatorINS_13CwiseBinaryOpINS0_17scalar_product_opIddEEKNS_14CwiseNullaryOpINS0_18scalar_constant_opIdEEKNS_6MatrixIdLin1ELi1ELi0ELin1ELi1EEEEEKNS2_INS0_20scalar_difference_opIddEESA_KNS2_IS4_SC_SA_EEEEEENS0_10IndexBasedESK_ddEC2ERKSJ_ DATA
 0002:0002d4d8 00000020H .xdata$_ZN5Eigen8internal16binary_evaluatorINS_13CwiseBinaryOpINS0_17scalar_product_opIddEEKNS_14CwiseNullaryOpINS0_18scalar_constant_opIdEEKNS_6MatrixIdLin1ELi1ELi0ELin1ELi1EEEEEKNS2_INS0_20scalar_difference_opIddEESA_KNS2_IS4_SC_SA_EEEEEENS0_10IndexBasedESK_ddE4DataC2ERKSJ_ DATA
 0002:0002d4f8 00000018H .xdata$_ZN5Eigen8internal9evaluatorINS_14CwiseNullaryOpINS0_18scalar_constant_opIdEEKNS_6MatrixIdLin1ELi1ELi0ELin1ELi1EEEEEEC2ERKS8_ DATA
 0002:0002d510 00000018H .xdata$_ZN5Eigen8internal16binary_evaluatorINS_13CwiseBinaryOpINS0_20scalar_difference_opIddEEKNS_6MatrixIdLin1ELi1ELi0ELin1ELi1EEEKNS2_INS0_17scalar_product_opIddEEKNS_14CwiseNullaryOpINS0_18scalar_constant_opIdEES7_EES7_EEEENS0_10IndexBasedESI_ddEC2ERKSH_ DATA
 0002:0002d528 00000020H .xdata$_ZN5Eigen8internal16binary_evaluatorINS_13CwiseBinaryOpINS0_20scalar_difference_opIddEEKNS_6MatrixIdLin1ELi1ELi0ELin1ELi1EEEKNS2_INS0_17scalar_product_opIddEEKNS_14CwiseNullaryOpINS0_18scalar_constant_opIdEES7_EES7_EEEENS0_10IndexBasedESI_ddE4DataC2ERKSH_ DATA
 0002:0002d548 00000018H .xdata$_ZN5Eigen8internal16binary_evaluatorINS_13CwiseBinaryOpINS0_17scalar_product_opIddEEKNS_14CwiseNullaryOpINS0_18scalar_constant_opIdEEKNS_6MatrixIdLin1ELi1ELi0ELin1ELi1EEEEESA_EENS0_10IndexBasedESE_ddEC2ERKSD_ DATA
 0002:0002d560 00000020H .xdata$_ZN5Eigen8internal16binary_evaluatorINS_13CwiseBinaryOpINS0_17scalar_product_opIddEEKNS_14CwiseNullaryOpINS0_18scalar_constant_opIdEEKNS_6MatrixIdLin1ELi1ELi0ELin1ELi1EEEEESA_EENS0_10IndexBasedESE_ddE4DataC2ERKSD_ DATA
 0002:0002d580 00000020H .xdata$_ZNK5Eigen7ProductINS_17PermutationMatrixILin1ELin1EiEENS_6MatrixIdLin1ELi1ELi0ELin1ELi1EEELi2EE4rowsEv DATA
 0002:0002d5a0 00000024H .xdata$_ZN5Eigen8internal26permutation_matrix_productINS_6MatrixIdLin1ELi1ELi0ELin1ELi1EEELi1ELb0ENS_10DenseShapeEE3runIS3_NS_17PermutationMatrixILin1ELin1EiEEEEvRT_RKT0_RKS3_ DATA
 0002:0002d5c4 0000001cH .xdata$_ZN5Eigen6MatrixIbLin1ELi1ELi0ELin1ELi1EEC2IxEERKT_ DATA
 0002:0002d5e0 00000020H .xdata$_ZN5Eigen12DenseStorageIbLin1ELin1ELi1ELi0EED2Ev DATA
 0002:0002d600 00000020H .xdata$_ZNK5Eigen9EigenBaseINS_6MatrixIbLin1ELi1ELi0ELin1ELi1EEEE4rowsEv DATA
 0002:0002d620 00000020H .xdata$_ZNK5Eigen15PlainObjectBaseINS_6MatrixIbLin1ELi1ELi0ELin1ELi1EEEE4colsEv DATA
 0002:0002d640 0000001cH .xdata$_ZN5Eigen15DenseCoeffsBaseINS_6MatrixIbLin1ELi1ELi0ELin1ELi1EEELi1EE8coeffRefEx DATA
 0002:0002d65c 00000018H .xdata$_ZN5Eigen8internal9evaluatorINS_15PlainObjectBaseINS_6MatrixIbLin1ELi1ELi0ELin1ELi1EEEEEEC2ERKS5_ DATA
 0002:0002d674 00000020H .xdata$_ZNK5Eigen9EigenBaseINS_5BlockINS_6MatrixIdLin1ELi1ELi0ELin1ELi1EEELi1ELi1ELb0EEEE4rowsEv DATA
 0002:0002d694 00000024H .xdata$_ZN5Eigen8internal26call_dense_assignment_loopINS_5BlockINS_6MatrixIdLin1ELi1ELi0ELin1ELi1EEELi1ELi1ELb0EEES5_NS0_14swap_assign_opIdEEEEvRT_RKT0_RKT1_ DATA
 0002:0002d6b8 0000001cH .xdata$_ZN5Eigen8internal15block_evaluatorINS_6MatrixIdLin1ELi1ELi0ELin1ELi1EEELi1ELi1ELb0ELb1EEC2ERKNS_5BlockIS3_Li1ELi1ELb0EEE DATA
 0002:0002d6d4 0000001cH .xdata$_ZN5Eigen8internal17mapbase_evaluatorINS_5BlockINS_6MatrixIdLin1ELi1ELi0ELin1ELi1EEELi1ELi1ELb0EEENS3_IdLi1ELi1ELi0ELi1ELi1EEEEC2ERKS5_ DATA
 0002:0002d6f0 00000024H .xdata$_ZN5Eigen8internal26call_dense_assignment_loopINS_5BlockINS_6MatrixIdLin1ELi1ELi0ELin1ELi1EEELi1ELi1ELb0EEENS2_IKS4_Li1ELi1ELb0EEENS0_9assign_opIddEEEEvRT_RKT0_RKT1_ DATA
 0002:0002d714 0000001cH .xdata$_ZN5Eigen8internal15block_evaluatorIKNS_6MatrixIdLin1ELi1ELi0ELin1ELi1EEELi1ELi1ELb0ELb1EEC2ERKNS_5BlockIS4_Li1ELi1ELb0EEE DATA
 0002:0002d730 0000001cH .xdata$_ZN5Eigen8internal17mapbase_evaluatorINS_5BlockIKNS_6MatrixIdLin1ELi1ELi0ELin1ELi1EEELi1ELi1ELb0EEENS3_IdLi1ELi1ELi0ELi1ELi1EEEEC2ERKS6_ DATA
 0002:0002d74c 00000024H .xdata$_ZN5Eigen8internal32sparse_solve_triangular_selectorIKNS_12SparseMatrixIdLi1EiEENS_6MatrixIdLin1ELi1ELi0ELin1ELi1EEELi5ELi1ELi1EE3runERS4_RS6_ DATA
 0002:0002d770 00000024H .xdata$_ZN5Eigen8internal32sparse_solve_triangular_selectorIKNS_12SparseMatrixIdLi1EiEENS_6MatrixIdLin1ELi1ELi0ELin1ELi1EEELi2ELi2ELi1EE3runERS4_RS6_ DATA
 0002:0002d794 00000024H .xdata$_ZN5Eigen8internal26call_dense_assignment_loopINS_6MatrixIdLin1ELi1ELi0ELin1ELi1EEENS_13CwiseBinaryOpINS0_20scalar_difference_opIddEEKS3_KNS4_INS0_17scalar_product_opIddEEKNS_14CwiseNullaryOpINS0_18scalar_constant_opIdEES7_EES7_EEEENS0_9assign_opIddEEEEvRT_RKT0_RKT1_ DATA
 0002:0002d7b8 00000024H .xdata$_ZN5Eigen8internal26call_dense_assignment_loopINS_6MatrixIdLin1ELi1ELi0ELin1ELi1EEENS_13CwiseBinaryOpINS0_13scalar_sum_opIddEEKNS4_INS0_17scalar_product_opIddEEKNS_14CwiseNullaryOpINS0_18scalar_constant_opIdEEKS3_EESC_EESG_EENS0_13add_assign_opIddEEEEvRT_RKT0_RKT1_ DATA
 0002:0002d7dc 00000018H .xdata$_ZN5Eigen8internal16binary_evaluatorINS_13CwiseBinaryOpINS0_13scalar_sum_opIddEEKNS2_INS0_17scalar_product_opIddEEKNS_14CwiseNullaryOpINS0_18scalar_constant_opIdEEKNS_6MatrixIdLin1ELi1ELi0ELin1ELi1EEEEESC_EESG_EENS0_10IndexBasedESI_ddEC2ERKSH_ DATA
 0002:0002d7f4 00000020H .xdata$_ZN5Eigen8internal16binary_evaluatorINS_13CwiseBinaryOpINS0_13scalar_sum_opIddEEKNS2_INS0_17scalar_product_opIddEEKNS_14CwiseNullaryOpINS0_18scalar_constant_opIdEEKNS_6MatrixIdLin1ELi1ELi0ELin1ELi1EEEEESC_EESG_EENS0_10IndexBasedESI_ddE4DataC2ERKSH_ DATA
 0002:0002d814 00000020H .xdata$_ZN5Eigen12SparseMatrixIdLi1EiED2Ev DATA
 0002:0002d834 00000020H .xdata$_ZNSt3__16vectorIN5Eigen7TripletIdiEENS_9allocatorIS3_EEED2B6v15007Ev DATA
 0002:0002d854 00000020H .xdata$_ZNSt3__16vectorIN5Eigen7TripletIdiEENS_9allocatorIS3_EEE22__base_destruct_at_endB6v15007EPS3_ DATA
 0002:0002d874 00000024H .xdata$_ZN5Eigen19IterativeSolverBaseINS_8BiCGSTABINS_12SparseMatrixIdLi0EiEENS_22DiagonalPreconditionerIdEEEEEC2Ev DATA
 0002:0002d898 0000001cH .xdata$_ZN5Eigen15PlainObjectBaseINS_6MatrixIdLin1ELi1ELi0ELin1ELi1EEEEC2INS_5SolveINS_8BiCGSTABINS_12SparseMatrixIdLi0EiEENS_22DiagonalPreconditionerIdEEEES2_EEEERKNS_9DenseBaseIT_EE DATA
 0002:0002d8b4 0000005cH .xdata$_ZN5Eigen8internal8bicgstabINS_3RefIKNS_12SparseMatrixIdLi0EiEELi0ENS_11OuterStrideILin1EEEEENS_6MatrixIdLin1ELi1ELi0ELin1ELi1EEESA_NS_22DiagonalPreconditionerIdEEEEbRKT_RKT0_RT1_RKT2_RxRNSJ_10RealScalarE DATA
 0002:0002d910 00000024H .xdata$_ZN5Eigen8internal26call_dense_assignment_loopINS_6MatrixIdLin1ELi1ELi0ELin1ELi1EEENS_13CwiseBinaryOpINS0_17scalar_product_opIddEEKNS_12ArrayWrapperIKS3_EESA_EENS0_9assign_opIddEEEEvRT_RKT0_RKT1_ DATA
 0002:0002d934 00000018H .xdata$_ZN5Eigen8internal16binary_evaluatorINS_13CwiseBinaryOpINS0_17scalar_product_opIddEEKNS_12ArrayWrapperIKNS_6MatrixIdLin1ELi1ELi0ELin1ELi1EEEEESA_EENS0_10IndexBasedESC_ddEC2ERKSB_ DATA
 0002:0002d94c 00000020H .xdata$_ZN5Eigen8internal16binary_evaluatorINS_13CwiseBinaryOpINS0_17scalar_product_opIddEEKNS_12ArrayWrapperIKNS_6MatrixIdLin1ELi1ELi0ELin1ELi1EEEEESA_EENS0_10IndexBasedESC_ddE4DataC2ERKSB_ DATA
 0002:0002d96c 00000018H .xdata$_ZN5Eigen8internal22evaluator_wrapper_baseINS_12ArrayWrapperIKNS_6MatrixIdLin1ELi1ELi0ELin1ELi1EEEEEEC2ERS5_ DATA
 0002:0002d984 00000038H .xdata$_ZN5Eigen22SimplicialCholeskyBaseINS_14SimplicialLDLTINS_12SparseMatrixIdLi0EiEELi1ENS_11AMDOrderingIiEEEEEC2Ev DATA
 0002:0002d9bc 00000030H .xdata$_ZN5Eigen8internal17set_from_tripletsINSt3__111__wrap_iterIPNS_7TripletIdiEEEENS_12SparseMatrixIdLi0EiEENS0_13scalar_sum_opIddEEEEvRKT_SE_RT0_T1_ DATA
 0002:0002d9ec 00000024H .xdata$_ZN5Eigen12SparseMatrixIdLi1EiE18collapseDuplicatesINS_8internal13scalar_sum_opIddEEEEvT_ DATA
 0002:0002da10 00000008H .xdata$_Z3powB6v15007IdiENSt3__19enable_ifIXaasr3std13is_arithmeticIT_EE5valuesr3std13is_arithmeticIT0_EE5valueENS0_9__promoteIS2_S3_vEEE4type4typeES2_S3_ DATA
 0002:0002da18 00000008H .xdata$_Z3absB6v15007d  DATA
 0002:0002da20 00000008H .xdata$_ZN5Eigen8symbolic10SymbolExprINS_8internal17symbolic_last_tagEEC1Ev DATA
 0002:0002da28 00000008H .xdata$_ZN5Eigen8symbolic10SymbolExprINS_8internal17symbolic_last_tagEEC2Ev DATA
 0002:0002da30 00000008H .xdata$_ZNK5Eigen8symbolic8BaseExprINS0_10SymbolExprINS_8internal17symbolic_last_tagEEEEplILi1EEENS0_7AddExprIS5_NS0_9ValueExprINS3_8FixedIntIXT_EEEEEEESB_ DATA
 0002:0002da38 00000008H .xdata$_ZNK5Eigen8internal8FixedIntILi1EEclEv DATA
 0002:0002da40 00000008H .xdata$_ZNK5Eigen8symbolic8BaseExprINS0_10SymbolExprINS_8internal17symbolic_last_tagEEEE7derivedEv DATA
 0002:0002da48 00000008H .xdata$_ZN5Eigen8symbolic9ValueExprINS_8internal8FixedIntILi1EEEEC1Ev DATA
 0002:0002da50 00000008H .xdata$_ZN5Eigen8symbolic7AddExprINS0_10SymbolExprINS_8internal17symbolic_last_tagEEENS0_9ValueExprINS3_8FixedIntILi1EEEEEEC1ERKS5_RKS9_ DATA
 0002:0002da58 00000008H .xdata$_ZN5Eigen8symbolic9ValueExprINS_8internal8FixedIntILi1EEEEC2Ev DATA
 0002:0002da60 00000008H .xdata$_ZN5Eigen8symbolic7AddExprINS0_10SymbolExprINS_8internal17symbolic_last_tagEEENS0_9ValueExprINS3_8FixedIntILi1EEEEEEC2ERKS5_RKS9_ DATA
 0002:0002da68 00000008H .xdata$_ZN5Eigen8internal5all_tC1Ev DATA
 0002:0002da70 00000008H .xdata$_ZN5Eigen8internal5all_tC2Ev DATA
 0002:0002da78 00000008H .xdata$_ZNSt3__16vectorIN5Eigen7TripletIdiEENS_9allocatorIS3_EEE12emplace_backIJRlS8_RdEEERS3_DpOT_ DATA
 0002:0002da80 00000008H .xdata$_ZNSt3__16vectorIN5Eigen7TripletIdiEENS_9allocatorIS3_EEE9__end_capB6v15007Ev DATA
 0002:0002da88 00000020H .xdata$_ZNSt3__16vectorIN5Eigen7TripletIdiEENS_9allocatorIS3_EEE22__construct_one_at_endB6v15007IJRlS8_RdEEEvDpOT_ DATA
 0002:0002daa8 00000020H .xdata$_ZNSt3__16vectorIN5Eigen7TripletIdiEENS_9allocatorIS3_EEE24__emplace_back_slow_pathIJRlS8_RdEEEvDpOT_ DATA
 0002:0002dac8 00000008H .xdata$_ZNSt3__16vectorIN5Eigen7TripletIdiEENS_9allocatorIS3_EEE4backB6v15007Ev DATA
 0002:0002dad0 00000008H .xdata$_ZNSt3__117__compressed_pairIPN5Eigen7TripletIdiEENS_9allocatorIS3_EEE5firstB6v15007Ev DATA
 0002:0002dad8 00000008H .xdata$_ZNSt3__122__compressed_pair_elemIPN5Eigen7TripletIdiEELi0ELb0EE5__getB6v15007Ev DATA
 0002:0002dae0 00000008H .xdata$_ZNSt3__16vectorIN5Eigen7TripletIdiEENS_9allocatorIS3_EEE21_ConstructTransactionC1ERS6_y DATA
 0002:0002dae8 00000008H .xdata$_ZNSt3__116allocator_traitsINS_9allocatorIN5Eigen7TripletIdiEEEEE9constructB6v15007IS4_JRlS8_RdEvEEvRS5_PT_DpOT0_ DATA
 0002:0002daf0 00000008H .xdata$_ZNSt3__16vectorIN5Eigen7TripletIdiEENS_9allocatorIS3_EEE7__allocB6v15007Ev DATA
 0002:0002daf8 00000008H .xdata$_ZNSt3__112__to_addressB6v15007IN5Eigen7TripletIdiEEEEPT_S5_ DATA
 0002:0002db00 00000008H .xdata$_ZNSt3__16vectorIN5Eigen7TripletIdiEENS_9allocatorIS3_EEE21_ConstructTransactionD1Ev DATA
 0002:0002db08 00000008H .xdata$_ZNSt3__16vectorIN5Eigen7TripletIdiEENS_9allocatorIS3_EEE21_ConstructTransactionC2ERS6_y DATA
 0002:0002db10 00000008H .xdata$_ZNSt3__19allocatorIN5Eigen7TripletIdiEEE9constructB6v15007IS3_JRlS6_RdEEEvPT_DpOT0_ DATA
 0002:0002db18 00000008H .xdata$_ZN5Eigen7TripletIdiEC1ERKiS3_RKd DATA
 0002:0002db20 00000008H .xdata$_ZN5Eigen7TripletIdiEC2ERKiS3_RKd DATA
 0002:0002db28 00000008H .xdata$_ZNSt3__117__compressed_pairIPN5Eigen7TripletIdiEENS_9allocatorIS3_EEE6secondB6v15007Ev DATA
 0002:0002db30 00000008H .xdata$_ZNSt3__122__compressed_pair_elemINS_9allocatorIN5Eigen7TripletIdiEEEELi1ELb1EE5__getB6v15007Ev DATA
 0002:0002db38 00000008H .xdata$_ZNSt3__16vectorIN5Eigen7TripletIdiEENS_9allocatorIS3_EEE21_ConstructTransactionD2Ev DATA
 0002:0002db40 00000008H .xdata$_ZNKSt3__16vectorIN5Eigen7TripletIdiEENS_9allocatorIS3_EEE11__recommendB6v15007Ey DATA
 0002:0002db48 00000008H .xdata$_ZNKSt3__16vectorIN5Eigen7TripletIdiEENS_9allocatorIS3_EEE4sizeB6v15007Ev DATA
 0002:0002db50 00000008H .xdata$_ZNSt3__114__split_bufferIN5Eigen7TripletIdiEERNS_9allocatorIS3_EEEC1EyyS6_ DATA
 0002:0002db58 00000008H .xdata$_ZNSt3__16vectorIN5Eigen7TripletIdiEENS_9allocatorIS3_EEE26__swap_out_circular_bufferERNS_14__split_bufferIS3_RS5_EE DATA
 0002:0002db60 00000008H .xdata$_ZNSt3__114__split_bufferIN5Eigen7TripletIdiEERNS_9allocatorIS3_EEED1Ev DATA
 0002:0002db68 00000020H .xdata$_ZNKSt3__16vectorIN5Eigen7TripletIdiEENS_9allocatorIS3_EEE8max_sizeEv DATA
 0002:0002db88 00000008H .xdata$_ZNKSt3__16vectorIN5Eigen7TripletIdiEENS_9allocatorIS3_EEE20__throw_length_errorB6v15007Ev DATA
 0002:0002db90 00000008H .xdata$_ZNKSt3__16vectorIN5Eigen7TripletIdiEENS_9allocatorIS3_EEE8capacityB6v15007Ev DATA
 0002:0002db98 00000008H .xdata$_ZNSt3__13maxB6v15007IyEERKT_S3_S3_ DATA
 0002:0002dba0 00000008H .xdata$_ZNSt3__13minB6v15007IyEERKT_S3_S3_ DATA
 0002:0002dba8 00000008H .xdata$_ZNSt3__116allocator_traitsINS_9allocatorIN5Eigen7TripletIdiEEEEE8max_sizeB6v15007IS5_vEEyRKS5_ DATA
 0002:0002dbb0 00000008H .xdata$_ZNKSt3__16vectorIN5Eigen7TripletIdiEENS_9allocatorIS3_EEE7__allocB6v15007Ev DATA
 0002:0002dbb8 00000008H .xdata$_ZNSt3__114numeric_limitsIxE3maxB6v15007Ev DATA
 0002:0002dbc0 00000008H .xdata$_ZNSt3__13minB6v15007IyNS_6__lessIyyEEEERKT_S5_S5_T0_ DATA
 0002:0002dbc8 00000008H .xdata$_ZNKSt3__16__lessIyyEclB6v15007ERKyS3_ DATA
 0002:0002dbd0 00000008H .xdata$_ZNKSt3__19allocatorIN5Eigen7TripletIdiEEE8max_sizeB6v15007Ev DATA
 0002:0002dbd8 00000008H .xdata$_ZNKSt3__117__compressed_pairIPN5Eigen7TripletIdiEENS_9allocatorIS3_EEE6secondB6v15007Ev DATA
 0002:0002dbe0 00000008H .xdata$_ZNKSt3__122__compressed_pair_elemINS_9allocatorIN5Eigen7TripletIdiEEEELi1ELb1EE5__getB6v15007Ev DATA
 0002:0002dbe8 0000001cH .xdata$_ZNSt3__120__throw_length_errorB6v15007EPKc DATA
 0002:0002dc04 00000008H .xdata$_ZNSt12length_errorC1B6v15007EPKc DATA
 0002:0002dc0c 00000008H .xdata$_ZNSt12length_errorC2B6v15007EPKc DATA
 0002:0002dc14 00000008H .xdata$_ZNKSt3__16vectorIN5Eigen7TripletIdiEENS_9allocatorIS3_EEE9__end_capB6v15007Ev DATA
 0002:0002dc1c 00000008H .xdata$_ZNKSt3__117__compressed_pairIPN5Eigen7TripletIdiEENS_9allocatorIS3_EEE5firstB6v15007Ev DATA
 0002:0002dc24 00000008H .xdata$_ZNKSt3__122__compressed_pair_elemIPN5Eigen7TripletIdiEELi0ELb0EE5__getB6v15007Ev DATA
 0002:0002dc2c 00000008H .xdata$_ZNSt3__13maxB6v15007IyNS_6__lessIyyEEEERKT_S5_S5_T0_ DATA
 0002:0002dc34 00000008H .xdata$_ZNSt3__114__split_bufferIN5Eigen7TripletIdiEERNS_9allocatorIS3_EEEC2EyyS6_ DATA
 0002:0002dc3c 00000008H .xdata$_ZNSt3__117__compressed_pairIPN5Eigen7TripletIdiEERNS_9allocatorIS3_EEEC1B6v15007IDnS7_EEOT_OT0_ DATA
 0002:0002dc44 00000008H .xdata$_ZNSt3__119__allocate_at_leastB6v15007INS_9allocatorIN5Eigen7TripletIdiEEEEEENS_19__allocation_resultINS_16allocator_traitsIT_E7pointerEEERS8_y DATA
 0002:0002dc4c 00000008H .xdata$_ZNSt3__114__split_bufferIN5Eigen7TripletIdiEERNS_9allocatorIS3_EEE7__allocB6v15007Ev DATA
 0002:0002dc54 00000008H .xdata$_ZNSt3__114__split_bufferIN5Eigen7TripletIdiEERNS_9allocatorIS3_EEE9__end_capB6v15007Ev DATA
 0002:0002dc5c 00000008H .xdata$_ZNSt3__117__compressed_pairIPN5Eigen7TripletIdiEERNS_9allocatorIS3_EEEC2B6v15007IDnS7_EEOT_OT0_ DATA
 0002:0002dc64 00000008H .xdata$_ZNSt3__122__compressed_pair_elemIPN5Eigen7TripletIdiEELi0ELb0EEC2B6v15007IDnvEEOT_ DATA
 0002:0002dc6c 00000008H .xdata$_ZNSt3__122__compressed_pair_elemIRNS_9allocatorIN5Eigen7TripletIdiEEEELi1ELb0EEC2B6v15007IS6_vEEOT_ DATA
 0002:0002dc74 00000008H .xdata$_ZNSt3__19allocatorIN5Eigen7TripletIdiEEE8allocateB6v15007Ey DATA
 0002:0002dc7c 00000008H .xdata$_ZSt28__throw_bad_array_new_lengthB6v15007v DATA
 0002:0002dc84 00000008H .xdata$_ZNSt3__117__libcpp_allocateB6v15007Eyy DATA
 0002:0002dc8c 00000008H .xdata$_ZNSt3__124__is_overaligned_for_newB6v15007Ey DATA
 0002:0002dc94 00000008H .xdata$_ZNSt3__121__libcpp_operator_newB6v15007IJySt11align_val_tEEEPvDpT_ DATA
 0002:0002dc9c 00000008H .xdata$_ZNSt3__121__libcpp_operator_newB6v15007IJyEEEPvDpT_ DATA
 0002:0002dca4 00000008H .xdata$_ZNSt3__117__compressed_pairIPN5Eigen7TripletIdiEERNS_9allocatorIS3_EEE6secondB6v15007Ev DATA
 0002:0002dcac 00000008H .xdata$_ZNSt3__122__compressed_pair_elemIRNS_9allocatorIN5Eigen7TripletIdiEEEELi1ELb0EE5__getB6v15007Ev DATA
 0002:0002dcb4 00000008H .xdata$_ZNSt3__117__compressed_pairIPN5Eigen7TripletIdiEERNS_9allocatorIS3_EEE5firstB6v15007Ev DATA
 0002:0002dcbc 00000008H .xdata$_ZNKSt3__16vectorIN5Eigen7TripletIdiEENS_9allocatorIS3_EEE17__annotate_deleteB6v15007Ev DATA
 0002:0002dcc4 00000008H .xdata$_ZNSt3__142__uninitialized_allocator_move_if_noexceptB6v15007INS_9allocatorIN5Eigen7TripletIdiEEEENS_16reverse_iteratorIPS4_EES8_S4_vEET1_RT_T0_SC_S9_ DATA
 0002:0002dccc 00000008H .xdata$_ZNSt3__116reverse_iteratorIPN5Eigen7TripletIdiEEEC1B6v15007ES4_ DATA
 0002:0002dcd4 00000008H .xdata$_ZNKSt3__116reverse_iteratorIPN5Eigen7TripletIdiEEE4baseB6v15007Ev DATA
 0002:0002dcdc 00000008H .xdata$_ZNSt3__14swapB6v15007IPN5Eigen7TripletIdiEEEENS_9enable_ifIXaasr21is_move_constructibleIT_EE5valuesr18is_move_assignableIS6_EE5valueEvE4typeERS6_S9_ DATA
 0002:0002dce4 00000008H .xdata$_ZNKSt3__16vectorIN5Eigen7TripletIdiEENS_9allocatorIS3_EEE14__annotate_newB6v15007Ey DATA
 0002:0002dcec 00000008H .xdata$_ZNSt3__125__debug_db_invalidate_allB6v15007INS_6vectorIN5Eigen7TripletIdiEENS_9allocatorIS4_EEEEEEvPT_ DATA
 0002:0002dcf4 00000008H .xdata$_ZNKSt3__16vectorIN5Eigen7TripletIdiEENS_9allocatorIS3_EEE31__annotate_contiguous_containerB6v15007EPKvS8_S8_S8_ DATA
 0002:0002dcfc 00000008H .xdata$_ZNKSt3__16vectorIN5Eigen7TripletIdiEENS_9allocatorIS3_EEE4dataB6v15007Ev DATA
 0002:0002dd04 00000008H .xdata$_ZNSt3__14moveB6v15007INS_16reverse_iteratorIPN5Eigen7TripletIdiEEEES6_EET0_T_S8_S7_ DATA
 0002:0002dd0c 00000008H .xdata$_ZNSt3__16__moveB6v15007INS_17_ClassicAlgPolicyENS_16reverse_iteratorIPN5Eigen7TripletIdiEEEES7_S7_EENS_9enable_ifIXaaaasr21is_copy_constructibleIT0_EE5valuesr21is_copy_constructibleIT1_EE5valuesr21is_copy_constructibleIT2_EE5valueENS_4pairIS9_SB_EEE4typeES9_SA_SB_ DATA
 0002:0002dd14 00000008H .xdata$_ZNSt3__111__move_implB6v15007INS_17_ClassicAlgPolicyEPN5Eigen7TripletIdiEES5_Li0EEENS_4pairINS_16reverse_iteratorIT0_EENS7_IT1_EEEES9_S9_SB_ DATA
 0002:0002dd1c 00000008H .xdata$_ZNSt3__113__unwrap_iterB6v15007INS_16reverse_iteratorIPN5Eigen7TripletIdiEEEENS_18__unwrap_iter_implIS6_Lb0EEELi0EEEDTclsrT0_8__unwrapclsr3stdE7declvalIT_EEEESA_ DATA
 0002:0002dd24 00000008H .xdata$_ZNSt3__19make_pairB6v15007INS_16reverse_iteratorIPN5Eigen7TripletIdiEEEES6_EENS_4pairINS_18__unwrap_ref_decayIT_E4typeENS8_IT0_E4typeEEEOS9_OSC_ DATA
 0002:0002dd2c 00000020H .xdata$_ZNSt3__113__rewrap_iterB6v15007INS_16reverse_iteratorIPN5Eigen7TripletIdiEEEES6_NS_18__unwrap_iter_implIS6_Lb0EEEEET_S9_T0_ DATA
 0002:0002dd4c 00000008H .xdata$_ZNSt3__113__unwrap_iterB6v15007IPN5Eigen7TripletIdiEENS_18__unwrap_iter_implIS4_Lb1EEELi0EEEDTclsrT0_8__unwrapclsr3stdE7declvalIT_EEEES8_ DATA
 0002:0002dd54 00000008H .xdata$_ZNSt3__111__move_implB6v15007INS_17_ClassicAlgPolicyEN5Eigen7TripletIdiEES4_vEENS_4pairIPT0_PT1_EES7_S7_S9_ DATA
 0002:0002dd5c 00000008H .xdata$_ZNSt3__19make_pairB6v15007IRNS_16reverse_iteratorIPN5Eigen7TripletIdiEEEES6_EENS_4pairINS_18__unwrap_ref_decayIT_E4typeENS9_IT0_E4typeEEEOSA_OSD_ DATA
 0002:0002dd64 00000020H .xdata$_ZNSt3__113__rewrap_iterB6v15007IPN5Eigen7TripletIdiEES4_NS_18__unwrap_iter_implIS4_Lb1EEEEET_S7_T0_ DATA
 0002:0002dd84 00000008H .xdata$_ZNSt3__118__unwrap_iter_implIPN5Eigen7TripletIdiEELb1EE8__unwrapB6v15007ES4_ DATA
 0002:0002dd8c 00000008H .xdata$_ZNSt3__19make_pairB6v15007IPN5Eigen7TripletIdiEES4_EENS_4pairINS_18__unwrap_ref_decayIT_E4typeENS6_IT0_E4typeEEEOS7_OSA_ DATA
 0002:0002dd94 00000008H .xdata$_ZNSt3__14pairIPN5Eigen7TripletIdiEES4_EC1B6v15007IS4_S4_LPv0EEEOT_OT0_ DATA
 0002:0002dd9c 00000008H .xdata$_ZNSt3__14pairIPN5Eigen7TripletIdiEES4_EC2B6v15007IS4_S4_LPv0EEEOT_OT0_ DATA
 0002:0002dda4 00000008H .xdata$_ZNSt3__14pairINS_16reverse_iteratorIPN5Eigen7TripletIdiEEEES6_EC1B6v15007IRS6_S6_LPv0EEEOT_OT0_ DATA
 0002:0002ddac 00000008H .xdata$_ZNSt3__14pairINS_16reverse_iteratorIPN5Eigen7TripletIdiEEEES6_EC2B6v15007IRS6_S6_LPv0EEEOT_OT0_ DATA
 0002:0002ddb4 00000008H .xdata$_ZNSt3__118__unwrap_iter_implIPN5Eigen7TripletIdiEELb1EE8__rewrapB6v15007ES4_S4_ DATA
 0002:0002ddbc 00000008H .xdata$_ZNSt3__118__unwrap_iter_implINS_16reverse_iteratorIPN5Eigen7TripletIdiEEEELb0EE8__unwrapB6v15007ES6_ DATA
 0002:0002ddc4 00000008H .xdata$_ZNSt3__14pairINS_16reverse_iteratorIPN5Eigen7TripletIdiEEEES6_EC1B6v15007IS6_S6_LPv0EEEOT_OT0_ DATA
 0002:0002ddcc 00000008H .xdata$_ZNSt3__14pairINS_16reverse_iteratorIPN5Eigen7TripletIdiEEEES6_EC2B6v15007IS6_S6_LPv0EEEOT_OT0_ DATA
 0002:0002ddd4 00000008H .xdata$_ZNSt3__118__unwrap_iter_implINS_16reverse_iteratorIPN5Eigen7TripletIdiEEEELb0EE8__rewrapB6v15007ES6_S6_ DATA
 0002:0002dddc 00000008H .xdata$_ZNSt3__116reverse_iteratorIPN5Eigen7TripletIdiEEEC2B6v15007ES4_ DATA
 0002:0002dde4 00000020H .xdata$_ZNSt3__114__split_bufferIN5Eigen7TripletIdiEERNS_9allocatorIS3_EEED2Ev DATA
 0002:0002de04 00000008H .xdata$_ZNSt3__114__split_bufferIN5Eigen7TripletIdiEERNS_9allocatorIS3_EEE5clearB6v15007Ev DATA
 0002:0002de0c 00000008H .xdata$_ZNSt3__116allocator_traitsINS_9allocatorIN5Eigen7TripletIdiEEEEE10deallocateB6v15007ERS5_PS4_y DATA
 0002:0002de14 00000008H .xdata$_ZNKSt3__114__split_bufferIN5Eigen7TripletIdiEERNS_9allocatorIS3_EEE8capacityB6v15007Ev DATA
 0002:0002de1c 00000008H .xdata$_ZNSt3__114__split_bufferIN5Eigen7TripletIdiEERNS_9allocatorIS3_EEE17__destruct_at_endB6v15007EPS3_ DATA
 0002:0002de24 00000020H .xdata$_ZNSt3__114__split_bufferIN5Eigen7TripletIdiEERNS_9allocatorIS3_EEE17__destruct_at_endB6v15007EPS3_NS_17integral_constantIbLb0EEE DATA
 0002:0002de44 00000008H .xdata$_ZNSt3__116allocator_traitsINS_9allocatorIN5Eigen7TripletIdiEEEEE7destroyB6v15007IS4_vEEvRS5_PT_ DATA
 0002:0002de4c 00000008H .xdata$_ZNSt3__19allocatorIN5Eigen7TripletIdiEEE7destroyB6v15007EPS3_ DATA
 0002:0002de54 00000020H .xdata$_ZNSt3__19allocatorIN5Eigen7TripletIdiEEE10deallocateB6v15007EPS3_y DATA
 0002:0002de74 00000008H .xdata$_ZNSt3__119__libcpp_deallocateB6v15007EPvyy DATA
 0002:0002de7c 00000008H .xdata$_ZNSt3__127__do_deallocate_handle_sizeB6v15007IJSt11align_val_tEEEvPvyDpT_ DATA
 0002:0002de84 00000008H .xdata$_ZNSt3__127__do_deallocate_handle_sizeB6v15007IJEEEvPvyDpT_ DATA
 0002:0002de8c 00000008H .xdata$_ZNSt3__124__libcpp_operator_deleteB6v15007IJPvSt11align_val_tEEEvDpT_ DATA
 0002:0002de94 00000008H .xdata$_ZNSt3__124__libcpp_operator_deleteB6v15007IJPvEEEvDpT_ DATA
 0002:0002de9c 00000008H .xdata$_ZNKSt3__114__split_bufferIN5Eigen7TripletIdiEERNS_9allocatorIS3_EEE9__end_capB6v15007Ev DATA
 0002:0002dea4 00000008H .xdata$_ZNKSt3__117__compressed_pairIPN5Eigen7TripletIdiEERNS_9allocatorIS3_EEE5firstB6v15007Ev DATA
 0002:0002deac 00000008H .xdata$_ZNSt3__16vectorIN5Eigen7TripletIdiEENS_9allocatorIS3_EEE12emplace_backIJRlS8_dEEERS3_DpOT_ DATA
 0002:0002deb4 00000020H .xdata$_ZNSt3__16vectorIN5Eigen7TripletIdiEENS_9allocatorIS3_EEE22__construct_one_at_endB6v15007IJRlS8_dEEEvDpOT_ DATA
 0002:0002ded4 00000020H .xdata$_ZNSt3__16vectorIN5Eigen7TripletIdiEENS_9allocatorIS3_EEE24__emplace_back_slow_pathIJRlS8_dEEEvDpOT_ DATA
 0002:0002def4 00000008H .xdata$_ZNSt3__116allocator_traitsINS_9allocatorIN5Eigen7TripletIdiEEEEE9constructB6v15007IS4_JRlS8_dEvEEvRS5_PT_DpOT0_ DATA
 0002:0002defc 00000008H .xdata$_ZNSt3__19allocatorIN5Eigen7TripletIdiEEE9constructB6v15007IS3_JRlS6_dEEEvPT_DpOT0_ DATA
 0002:0002df04 00000008H .xdata$_Z6strstrB6v15007Ua9enable_ifILb1EEPcPKc DATA
 0002:0002df0c 00000008H .xdata$_Z15__libcpp_strstrB6v15007PKcS0_ DATA
 0002:0002df14 00000008H .xdata$_Z7strrchrB6v15007Ua9enable_ifILb1EEPci DATA
 0002:0002df1c 00000008H .xdata$_ZN5Eigen12setNbThreadsEi DATA
 0002:0002df24 00000008H .xdata$_ZNSt3__16vectorIN5Eigen7TripletIdiEENS_9allocatorIS3_EEEC1B6v15007Ev DATA
 0002:0002df2c 00000008H .xdata$_ZN5Eigen12SparseMatrixIdLi1EiEC1Exx DATA
 0002:0002df34 00000008H .xdata$_ZN5Eigen8BiCGSTABINS_12SparseMatrixIdLi0EiEENS_13IncompleteLUTIdiEEEC1Ev DATA
 0002:0002df3c 00000008H .xdata$_ZN5Eigen19IterativeSolverBaseINS_8BiCGSTABINS_12SparseMatrixIdLi0EiEENS_13IncompleteLUTIdiEEEEE12setToleranceERKd DATA
 0002:0002df44 00000008H .xdata$_ZN5Eigen19IterativeSolverBaseINS_8BiCGSTABINS_12SparseMatrixIdLi0EiEENS_13IncompleteLUTIdiEEEEE16setMaxIterationsEx DATA
 0002:0002df4c 00000008H .xdata$_ZN5Eigen12SparseMatrixIdLi1EiE7reserveEx DATA
 0002:0002df54 00000008H .xdata$_ZN5Eigen12SparseMatrixIdLi1EiE15setFromTripletsINSt3__111__wrap_iterIPNS_7TripletIdiEEEEEEvRKT_SB_ DATA
 0002:0002df5c 00000008H .xdata$_ZNSt3__16vectorIN5Eigen7TripletIdiEENS_9allocatorIS3_EEE5beginB6v15007Ev DATA
 0002:0002df64 00000008H .xdata$_ZNSt3__16vectorIN5Eigen7TripletIdiEENS_9allocatorIS3_EEE3endB6v15007Ev DATA
 0002:0002df6c 00000008H .xdata$_ZN5Eigen19IterativeSolverBaseINS_8BiCGSTABINS_12SparseMatrixIdLi0EiEENS_13IncompleteLUTIdiEEEEE7computeINS2_IdLi1EiEEEERS6_RKNS_9EigenBaseIT_EE DATA
 0002:0002df74 00000008H .xdata$_ZNK5Eigen19IterativeSolverBaseINS_8BiCGSTABINS_12SparseMatrixIdLi0EiEENS_13IncompleteLUTIdiEEEEE4infoEv DATA
 0002:0002df7c 00000008H .xdata$_ZN5Eigen9DenseBaseINS_6MatrixIdLin1ELi1ELi0ELin1ELi1EEEE4ZeroEx DATA
 0002:0002df84 00000008H .xdata$_ZN5Eigen6MatrixIdLin1ELi1ELi0ELin1ELi1EEC1INS_14CwiseNullaryOpINS_8internal18scalar_constant_opIdEES1_EEEERKNS_9EigenBaseIT_EE DATA
 0002:0002df8c 00000008H .xdata$_ZN5Eigen15DenseCoeffsBaseINS_6MatrixIdLin1ELi1ELi0ELin1ELi1EEELi1EEclEx DATA
 0002:0002df94 00000008H .xdata$_ZNK5Eigen16SparseSolverBaseINS_8BiCGSTABINS_12SparseMatrixIdLi0EiEENS_13IncompleteLUTIdiEEEEE5solveINS_6MatrixIdLin1ELi1ELi0ELin1ELi1EEEEEKNS_5SolveIS6_T_EERKNS_10MatrixBaseISC_EE DATA
 0002:0002df9c 00000008H .xdata$_ZN5Eigen6MatrixIdLin1ELi1ELi0ELin1ELi1EEC1INS_5SolveINS_8BiCGSTABINS_12SparseMatrixIdLi0EiEENS_13IncompleteLUTIdiEEEES1_EEEERKNS_9EigenBaseIT_EE DATA
 0002:0002dfa4 00000008H .xdata$_ZN5Eigen6MatrixIdLin1ELi1ELi0ELin1ELi1EED1Ev DATA
 0002:0002dfac 00000008H .xdata$_Z8isfiniteB6v15007IdENSt3__19enable_ifIXaasr3std13is_arithmeticIT_EE5valuesr3std14numeric_limitsIS2_EE12has_infinityEbE4typeES2_ DATA
 0002:0002dfb4 00000008H .xdata$_ZN5Eigen8BiCGSTABINS_12SparseMatrixIdLi0EiEENS_13IncompleteLUTIdiEEED1Ev DATA
 0002:0002dfbc 00000008H .xdata$_ZN5Eigen12SparseMatrixIdLi1EiED1Ev DATA
 0002:0002dfc4 00000008H .xdata$_ZNSt3__16vectorIN5Eigen7TripletIdiEENS_9allocatorIS3_EEED1B6v15007Ev DATA
 0002:0002dfcc 00000008H .xdata$_Z16__libcpp_strrchrB6v15007PKci DATA
 0002:0002dfd4 00000008H .xdata$_ZN5Eigen8internal22manage_multi_threadingENS_6ActionEPi DATA
 0002:0002dfdc 00000008H .xdata$_ZN5Eigen8internal22ignore_unused_variableIiEEvRKT_ DATA
 0002:0002dfe4 00000020H .xdata$_ZNSt3__16vectorIN5Eigen7TripletIdiEENS_9allocatorIS3_EEEC2B6v15007Ev DATA
 0002:0002e004 00000008H .xdata$_ZNSt3__117__compressed_pairIPN5Eigen7TripletIdiEENS_9allocatorIS3_EEEC1B6v15007IDnNS_18__default_init_tagEEEOT_OT0_ DATA
 0002:0002e00c 00000008H .xdata$_ZNSt3__119__debug_db_insert_cB6v15007INS_6vectorIN5Eigen7TripletIdiEENS_9allocatorIS4_EEEEEEvPT_ DATA
 0002:0002e014 00000008H .xdata$_ZNSt3__117__compressed_pairIPN5Eigen7TripletIdiEENS_9allocatorIS3_EEEC2B6v15007IDnNS_18__default_init_tagEEEOT_OT0_ DATA
 0002:0002e01c 00000008H .xdata$_ZNSt3__122__compressed_pair_elemINS_9allocatorIN5Eigen7TripletIdiEEEELi1ELb1EEC2B6v15007ENS_18__default_init_tagE DATA
 0002:0002e024 00000008H .xdata$_ZNSt3__19allocatorIN5Eigen7TripletIdiEEEC2B6v15007Ev DATA
 0002:0002e02c 00000008H .xdata$_ZNSt3__116__non_trivial_ifILb1ENS_9allocatorIN5Eigen7TripletIdiEEEEEC2B6v15007Ev DATA
 0002:0002e034 0000001cH .xdata$_ZN5Eigen12SparseMatrixIdLi1EiEC2Exx DATA
 0002:0002e050 00000008H .xdata$_ZN5Eigen20SparseCompressedBaseINS_12SparseMatrixIdLi1EiEEEC2Ev DATA
 0002:0002e058 00000008H .xdata$_ZN5Eigen8internal17CompressedStorageIdiEC1Ev DATA
 0002:0002e060 00000008H .xdata$_ZN5Eigen12SparseMatrixIdLi1EiE6resizeExx DATA
 0002:0002e068 00000008H .xdata$_ZN5Eigen8internal17CompressedStorageIdiED1Ev DATA
 0002:0002e070 00000008H .xdata$_ZN5Eigen16SparseMatrixBaseINS_12SparseMatrixIdLi1EiEEEC2Ev DATA
 0002:0002e078 00000008H .xdata$_ZN5Eigen8internal17CompressedStorageIdiEC2Ev DATA
 0002:0002e080 00000008H .xdata$_ZN5Eigen8internal17CompressedStorageIdiE5clearEv DATA
 0002:0002e088 00000008H .xdata$_ZN5Eigen8internal19throw_std_bad_allocEv DATA
 0002:0002e090 00000008H .xdata$_ZN5Eigen8internal17CompressedStorageIdiED2Ev DATA
 0002:0002e098 00000008H .xdata$_ZN5Eigen8BiCGSTABINS_12SparseMatrixIdLi0EiEENS_13IncompleteLUTIdiEEEC2Ev DATA
 0002:0002e0a0 00000028H .xdata$_ZN5Eigen19IterativeSolverBaseINS_8BiCGSTABINS_12SparseMatrixIdLi0EiEENS_13IncompleteLUTIdiEEEEEC2Ev DATA
 0002:0002e0c8 00000008H .xdata$_ZN5Eigen16SparseSolverBaseINS_8BiCGSTABINS_12SparseMatrixIdLi0EiEENS_13IncompleteLUTIdiEEEEEC2Ev DATA
 0002:0002e0d0 00000008H .xdata$_ZN5Eigen8internal22generic_matrix_wrapperINS_12SparseMatrixIdLi0EiEELb0EEC1Ev DATA
 0002:0002e0d8 00000008H .xdata$_ZN5Eigen13IncompleteLUTIdiEC1Ev DATA
 0002:0002e0e0 00000008H .xdata$_ZN5Eigen19IterativeSolverBaseINS_8BiCGSTABINS_12SparseMatrixIdLi0EiEENS_13IncompleteLUTIdiEEEEE4initEv DATA
 0002:0002e0e8 00000008H .xdata$_ZN5Eigen13IncompleteLUTIdiED1Ev DATA
 0002:0002e0f0 00000008H .xdata$_ZN5Eigen8internal22generic_matrix_wrapperINS_12SparseMatrixIdLi0EiEELb0EED1Ev DATA
 0002:0002e0f8 00000008H .xdata$_ZN5Eigen16SparseSolverBaseINS_8BiCGSTABINS_12SparseMatrixIdLi0EiEENS_13IncompleteLUTIdiEEEEED2Ev DATA
 0002:0002e100 00000008H .xdata$_ZN5Eigen8internal11noncopyableC2Ev DATA
 0002:0002e108 0000001cH .xdata$_ZN5Eigen8internal22generic_matrix_wrapperINS_12SparseMatrixIdLi0EiEELb0EEC2Ev DATA
 0002:0002e124 00000008H .xdata$_ZN5Eigen12SparseMatrixIdLi0EiEC1Exx DATA
 0002:0002e12c 00000008H .xdata$_ZN5Eigen3RefIKNS_12SparseMatrixIdLi0EiEELi0ENS_11OuterStrideILin1EEEEC1IS2_EERKNS_16SparseMatrixBaseIT_EE DATA
 0002:0002e134 00000008H .xdata$_ZN5Eigen12SparseMatrixIdLi0EiED1Ev DATA
 0002:0002e13c 0000001cH .xdata$_ZN5Eigen12SparseMatrixIdLi0EiEC2Exx DATA
 0002:0002e158 00000008H .xdata$_ZN5Eigen20SparseCompressedBaseINS_12SparseMatrixIdLi0EiEEEC2Ev DATA
 0002:0002e160 00000008H .xdata$_ZN5Eigen12SparseMatrixIdLi0EiE6resizeExx DATA
 0002:0002e168 00000008H .xdata$_ZN5Eigen16SparseMatrixBaseINS_12SparseMatrixIdLi0EiEEEC2Ev DATA
 0002:0002e170 0000001cH .xdata$_ZN5Eigen3RefIKNS_12SparseMatrixIdLi0EiEELi0ENS_11OuterStrideILin1EEEEC2IS2_EERKNS_16SparseMatrixBaseIT_EE DATA
 0002:0002e18c 00000008H .xdata$_ZN5Eigen8internal13SparseRefBaseINS_3RefIKNS_12SparseMatrixIdLi0EiEELi0ENS_11OuterStrideILin1EEEEEEC2Ev DATA
 0002:0002e194 00000008H .xdata$_ZN5Eigen3RefIKNS_12SparseMatrixIdLi0EiEELi0ENS_11OuterStrideILin1EEEE9constructIS2_EEvRKT_NS_8internal9true_typeE DATA
 0002:0002e19c 00000008H .xdata$_ZNK5Eigen16SparseMatrixBaseINS_12SparseMatrixIdLi0EiEEE7derivedEv DATA
 0002:0002e1a4 00000008H .xdata$_ZN5Eigen8internal13SparseRefBaseINS_3RefIKNS_12SparseMatrixIdLi0EiEELi0ENS_11OuterStrideILin1EEEEEED2Ev DATA
 0002:0002e1ac 00000008H .xdata$_ZN5Eigen13SparseMapBaseINS_3RefIKNS_12SparseMatrixIdLi0EiEELi0ENS_11OuterStrideILin1EEEEELi0EEC2ExxxPKiSA_PKdSA_ DATA
 0002:0002e1b4 00000008H .xdata$_ZN5Eigen20SparseCompressedBaseINS_3RefIKNS_12SparseMatrixIdLi0EiEELi0ENS_11OuterStrideILin1EEEEEEC2Ev DATA
 0002:0002e1bc 00000008H .xdata$_ZN5Eigen8internal13convert_indexIixEET_RKT0_ DATA
 0002:0002e1c4 00000008H .xdata$_ZN5Eigen5ArrayIiLi2ELi1ELi0ELi2ELi1EEC1IiiEERKT_RKT0_ DATA
 0002:0002e1cc 00000008H .xdata$_ZN5Eigen16SparseMatrixBaseINS_3RefIKNS_12SparseMatrixIdLi0EiEELi0ENS_11OuterStrideILin1EEEEEEC2Ev DATA
 0002:0002e1d4 00000008H .xdata$_ZN5Eigen5ArrayIiLi2ELi1ELi0ELi2ELi1EEC2IiiEERKT_RKT0_ DATA
 0002:0002e1dc 00000008H .xdata$_ZN5Eigen15PlainObjectBaseINS_5ArrayIiLi2ELi1ELi0ELi2ELi1EEEEC2Ev DATA
 0002:0002e1e4 00000008H .xdata$_ZN5Eigen15PlainObjectBaseINS_5ArrayIiLi2ELi1ELi0ELi2ELi1EEEE6_init2IiiEEvRKT_RKT0_PNS_8internal9enable_ifILb1ES5_E4typeE DATA
 0002:0002e1ec 00000008H .xdata$_ZN5Eigen9ArrayBaseINS_5ArrayIiLi2ELi1ELi0ELi2ELi1EEEEC2Ev DATA
 0002:0002e1f4 00000008H .xdata$_ZN5Eigen12DenseStorageIiLi2ELi2ELi1ELi0EEC1Ev DATA
 0002:0002e1fc 00000008H .xdata$_ZN5Eigen9DenseBaseINS_5ArrayIiLi2ELi1ELi0ELi2ELi1EEEEC2Ev DATA
 0002:0002e204 00000008H .xdata$_ZN5Eigen12DenseStorageIiLi2ELi2ELi1ELi0EEC2Ev DATA
 0002:0002e20c 00000008H .xdata$_ZN5Eigen8internal11plain_arrayIiLi2ELi0ELi0EEC1Ev DATA
 0002:0002e214 00000008H .xdata$_ZN5Eigen8internal11plain_arrayIiLi2ELi0ELi0EEC2Ev DATA
 0002:0002e21c 00000008H .xdata$_ZN5Eigen12DenseStorageIiLi2ELi2ELi1ELi0EE4dataEv DATA
 0002:0002e224 0000000cH .xdata$_ZN5Eigen8internal13SparseRefBaseINS_3RefIKNS_12SparseMatrixIdLi0EiEELi0ENS_11OuterStrideILin1EEEEEE9constructIS5_EEvRT_ DATA
 0002:0002e230 00000008H .xdata$_ZNK5Eigen12SparseMatrixIdLi0EiE13outerIndexPtrEv DATA
 0002:0002e238 00000008H .xdata$_ZNK5Eigen16SparseMatrixBaseINS_12SparseMatrixIdLi0EiEEE4sizeEv DATA
 0002:0002e240 00000008H .xdata$_ZNK5Eigen20SparseCompressedBaseINS_12SparseMatrixIdLi0EiEEE8nonZerosEv DATA
 0002:0002e248 00000008H .xdata$_ZNK5Eigen12SparseMatrixIdLi0EiE13innerIndexPtrEv DATA
 0002:0002e250 00000008H .xdata$_ZNK5Eigen12SparseMatrixIdLi0EiE8valuePtrEv DATA
 0002:0002e258 00000008H .xdata$_ZN5Eigen13SparseMapBaseINS_3RefIKNS_12SparseMatrixIdLi0EiEELi0ENS_11OuterStrideILin1EEEEELi0EEC1ExxPKiPKd DATA
 0002:0002e260 00000008H .xdata$_ZNK5Eigen12SparseMatrixIdLi0EiE4rowsEv DATA
 0002:0002e268 00000008H .xdata$_ZNK5Eigen12SparseMatrixIdLi0EiE4colsEv DATA
 0002:0002e270 00000008H .xdata$_ZNK5Eigen12SparseMatrixIdLi0EiE15innerNonZeroPtrEv DATA
 0002:0002e278 00000008H .xdata$_ZN5Eigen13SparseMapBaseINS_3RefIKNS_12SparseMatrixIdLi0EiEELi0ENS_11OuterStrideILin1EEEEELi0EEC1ExxxPKiSA_PKdSA_ DATA
 0002:0002e280 00000008H .xdata$_ZNK5Eigen16SparseMatrixBaseINS_12SparseMatrixIdLi0EiEEE4rowsEv DATA
 0002:0002e288 00000008H .xdata$_ZNK5Eigen16SparseMatrixBaseINS_12SparseMatrixIdLi0EiEEE4colsEv DATA
 0002:0002e290 00000008H .xdata$_ZNK5Eigen20SparseCompressedBaseINS_12SparseMatrixIdLi0EiEEE12isCompressedEv DATA
 0002:0002e298 00000008H .xdata$_ZNK5Eigen20SparseCompressedBaseINS_12SparseMatrixIdLi0EiEEE13outerIndexPtrEv DATA
 0002:0002e2a0 00000008H .xdata$_ZNK5Eigen12SparseMatrixIdLi0EiE9outerSizeEv DATA
 0002:0002e2a8 00000008H .xdata$_ZNK5Eigen20SparseCompressedBaseINS_12SparseMatrixIdLi0EiEEE13innerNonZerosEv DATA
 0002:0002e2b0 00000008H .xdata$_ZNK5Eigen9DenseBaseINS_3MapIKNS_6MatrixIiLin1ELi1ELi0ELin1ELi1EEELi0ENS_6StrideILi0ELi0EEEEEE3sumEv DATA
 0002:0002e2b8 00000008H .xdata$_ZNK5Eigen20SparseCompressedBaseINS_12SparseMatrixIdLi0EiEEE15innerNonZeroPtrEv DATA
 0002:0002e2c0 00000008H .xdata$_ZN5Eigen6StrideILi0ELi0EEC1Ev DATA
 0002:0002e2c8 00000008H .xdata$_ZN5Eigen3MapIKNS_6MatrixIiLin1ELi1ELi0ELin1ELi1EEELi0ENS_6StrideILi0ELi0EEEEC1EPKixRKS5_ DATA
 0002:0002e2d0 00000008H .xdata$_ZN5Eigen6StrideILi0ELi0EEC2Ev DATA
 0002:0002e2d8 00000008H .xdata$_ZN5Eigen8internal19variable_if_dynamicIxLi0EEC1Ex DATA
 0002:0002e2e0 00000008H .xdata$_ZN5Eigen8internal19variable_if_dynamicIxLi0EEC2Ex DATA
 0002:0002e2e8 00000008H .xdata$_ZN5Eigen3MapIKNS_6MatrixIiLin1ELi1ELi0ELin1ELi1EEELi0ENS_6StrideILi0ELi0EEEEC2EPKixRKS5_ DATA
 0002:0002e2f0 00000008H .xdata$_ZN5Eigen3MapIKNS_6MatrixIiLin1ELi1ELi0ELin1ELi1EEELi0ENS_6StrideILi0ELi0EEEE20cast_to_pointer_typeEPKi DATA
 0002:0002e2f8 00000008H .xdata$_ZN5Eigen7MapBaseINS_3MapIKNS_6MatrixIiLin1ELi1ELi0ELin1ELi1EEELi0ENS_6StrideILi0ELi0EEEEELi0EEC2EPKix DATA
 0002:0002e300 00000008H .xdata$_ZN5Eigen6StrideILi0ELi0EEC1ERKS1_ DATA
 0002:0002e308 00000008H .xdata$_ZN5Eigen10MatrixBaseINS_3MapIKNS_6MatrixIiLin1ELi1ELi0ELin1ELi1EEELi0ENS_6StrideILi0ELi0EEEEEEC2Ev DATA
 0002:0002e310 00000008H .xdata$_ZN5Eigen8internal19variable_if_dynamicIxLin1EEC1Ex DATA
 0002:0002e318 00000008H .xdata$_ZN5Eigen8internal19variable_if_dynamicIxLi1EEC1Ex DATA
 0002:0002e320 00000008H .xdata$_ZNK5Eigen7MapBaseINS_3MapIKNS_6MatrixIiLin1ELi1ELi0ELin1ELi1EEELi0ENS_6StrideILi0ELi0EEEEELi0EE11checkSanityIS7_EEvNS_8internal9enable_ifIXeqsr8internal6traitsIT_EE9AlignmentLi0EEPvE4typeE DATA
 0002:0002e328 00000008H .xdata$_ZN5Eigen9DenseBaseINS_3MapIKNS_6MatrixIiLin1ELi1ELi0ELin1ELi1EEELi0ENS_6StrideILi0ELi0EEEEEEC2Ev DATA
 0002:0002e330 00000008H .xdata$_ZN5Eigen8internal19variable_if_dynamicIxLin1EEC2Ex DATA
 0002:0002e338 00000008H .xdata$_ZN5Eigen8internal19variable_if_dynamicIxLi1EEC2Ex DATA
 0002:0002e340 00000008H .xdata$_ZN5Eigen6StrideILi0ELi0EEC2ERKS1_ DATA
 0002:0002e348 00000008H .xdata$_ZNK5Eigen6StrideILi0ELi0EE5outerEv DATA
 0002:0002e350 00000008H .xdata$_ZNK5Eigen6StrideILi0ELi0EE5innerEv DATA
 0002:0002e358 00000008H .xdata$_ZNK5Eigen9EigenBaseINS_3MapIKNS_6MatrixIiLin1ELi1ELi0ELin1ELi1EEELi0ENS_6StrideILi0ELi0EEEEEE4sizeEv DATA
 0002:0002e360 00000008H .xdata$_ZNK5Eigen9EigenBaseINS_3MapIKNS_6MatrixIiLin1ELi1ELi0ELin1ELi1EEELi0ENS_6StrideILi0ELi0EEEEEE7derivedEv DATA
 0002:0002e368 00000020H .xdata$_ZNK5Eigen9DenseBaseINS_3MapIKNS_6MatrixIiLin1ELi1ELi0ELin1ELi1EEELi0ENS_6StrideILi0ELi0EEEEEE5reduxINS_8internal13scalar_sum_opIiiEEEEiRKT_ DATA
 0002:0002e388 00000008H .xdata$_ZN5Eigen8internal13scalar_sum_opIiiEC1Ev DATA
 0002:0002e390 00000020H .xdata$_ZNK5Eigen9EigenBaseINS_3MapIKNS_6MatrixIiLin1ELi1ELi0ELin1ELi1EEELi0ENS_6StrideILi0ELi0EEEEEE4rowsEv DATA
 0002:0002e3b0 00000020H .xdata$_ZNK5Eigen9EigenBaseINS_3MapIKNS_6MatrixIiLin1ELi1ELi0ELin1ELi1EEELi0ENS_6StrideILi0ELi0EEEEEE4colsEv DATA
 0002:0002e3d0 00000020H .xdata$_ZNK5Eigen7MapBaseINS_3MapIKNS_6MatrixIiLin1ELi1ELi0ELin1ELi1EEELi0ENS_6StrideILi0ELi0EEEEELi0EE4rowsEv DATA
 0002:0002e3f0 00000008H .xdata$_ZNK5Eigen8internal19variable_if_dynamicIxLin1EE5valueEv DATA
 0002:0002e3f8 00000020H .xdata$_ZNK5Eigen7MapBaseINS_3MapIKNS_6MatrixIiLin1ELi1ELi0ELin1ELi1EEELi0ENS_6StrideILi0ELi0EEEEELi0EE4colsEv DATA
 0002:0002e418 00000008H .xdata$_ZN5Eigen8internal15redux_evaluatorINS_3MapIKNS_6MatrixIiLin1ELi1ELi0ELin1ELi1EEELi0ENS_6StrideILi0ELi0EEEEEEC1ERKS8_ DATA
 0002:0002e420 00000008H .xdata$_ZN5Eigen8internal10redux_implINS0_13scalar_sum_opIiiEENS0_15redux_evaluatorINS_3MapIKNS_6MatrixIiLin1ELi1ELi0ELin1ELi1EEELi0ENS_6StrideILi0ELi0EEEEEEELi3ELi0EE3runISB_EEiRKSC_RKS3_RKT_ DATA
 0002:0002e428 00000008H .xdata$_ZN5Eigen8internal15redux_evaluatorINS_3MapIKNS_6MatrixIiLin1ELi1ELi0ELin1ELi1EEELi0ENS_6StrideILi0ELi0EEEEEED1Ev DATA
 0002:0002e430 00000008H .xdata$_ZN5Eigen8internal15redux_evaluatorINS_3MapIKNS_6MatrixIiLin1ELi1ELi0ELin1ELi1EEELi0ENS_6StrideILi0ELi0EEEEEEC2ERKS8_ DATA
 0002:0002e438 00000008H .xdata$_ZN5Eigen8internal9evaluatorINS_3MapIKNS_6MatrixIiLin1ELi1ELi0ELin1ELi1EEELi0ENS_6StrideILi0ELi0EEEEEEC2ERKS8_ DATA
 0002:0002e440 0000001cH .xdata$_ZN5Eigen8internal17mapbase_evaluatorINS_3MapIKNS_6MatrixIiLin1ELi1ELi0ELin1ELi1EEELi0ENS_6StrideILi0ELi0EEEEES5_EC2ERKS8_ DATA
 0002:0002e45c 00000008H .xdata$_ZN5Eigen8internal14evaluator_baseINS_3MapIKNS_6MatrixIiLin1ELi1ELi0ELin1ELi1EEELi0ENS_6StrideILi0ELi0EEEEEEC2Ev DATA
 0002:0002e464 00000008H .xdata$_ZNK5Eigen7MapBaseINS_3MapIKNS_6MatrixIiLin1ELi1ELi0ELin1ELi1EEELi0ENS_6StrideILi0ELi0EEEEELi0EE4dataEv DATA
 0002:0002e46c 00000008H .xdata$_ZNK5Eigen3MapIKNS_6MatrixIiLin1ELi1ELi0ELin1ELi1EEELi0ENS_6StrideILi0ELi0EEEE11innerStrideEv DATA
 0002:0002e474 00000008H .xdata$_ZNK5Eigen3MapIKNS_6MatrixIiLin1ELi1ELi0ELin1ELi1EEELi0ENS_6StrideILi0ELi0EEEE11outerStrideEv DATA
 0002:0002e47c 00000008H .xdata$_ZN5Eigen8internal14evaluator_baseINS_3MapIKNS_6MatrixIiLin1ELi1ELi0ELin1ELi1EEELi0ENS_6StrideILi0ELi0EEEEEED2Ev DATA
 0002:0002e484 00000008H .xdata$_ZNK5Eigen8internal17mapbase_evaluatorINS_3MapIKNS_6MatrixIiLin1ELi1ELi0ELin1ELi1EEELi0ENS_6StrideILi0ELi0EEEEES5_E6packetILi0ENS0_20eigen_packet_wrapperIDv2_xLi0EEEEET0_x DATA
 0002:0002e48c 00000008H .xdata$_ZNK5Eigen8internal13scalar_sum_opIiiE8packetOpINS0_20eigen_packet_wrapperIDv2_xLi0EEEEET_RKS7_S9_ DATA
 0002:0002e494 00000008H .xdata$_ZNK5Eigen8internal13scalar_sum_opIiiE6preduxINS0_20eigen_packet_wrapperIDv2_xLi0EEEEEiRKT_ DATA
 0002:0002e49c 00000008H .xdata$_ZNK5Eigen8internal13scalar_sum_opIiiEclERKiS4_ DATA
 0002:0002e4a4 00000008H .xdata$_ZNK5Eigen8internal17mapbase_evaluatorINS_3MapIKNS_6MatrixIiLin1ELi1ELi0ELin1ELi1EEELi0ENS_6StrideILi0ELi0EEEEES5_E5coeffEx DATA
 0002:0002e4ac 00000008H .xdata$_ZN5Eigen8internal18first_aligned_implILi16ENS_3MapIKNS_6MatrixIiLin1ELi1ELi0ELin1ELi1EEELi0ENS_6StrideILi0ELi0EEEEELb0EE3runERKS8_ DATA
 0002:0002e4b4 00000008H .xdata$_ZN5Eigen8internal13first_alignedILi16EixEET1_PKT0_S2_ DATA
 0002:0002e4bc 00000008H .xdata$_ZN5Eigen8internal6ploaduINS0_20eigen_packet_wrapperIDv2_xLi0EEEEET_PKNS0_15unpacket_traitsIS5_E4typeE DATA
 0002:0002e4c4 00000008H .xdata$_ZN5Eigen8internal4paddINS0_20eigen_packet_wrapperIDv2_xLi0EEEEET_RKS5_S7_ DATA
 0002:0002e4cc 00000008H .xdata$_ZN5Eigen8internal6preduxINS0_20eigen_packet_wrapperIDv2_xLi0EEEEENS0_15unpacket_traitsIT_E4typeERKS6_ DATA
 0002:0002e4d4 00000008H .xdata$_ZN5Eigen8internal6pfirstINS0_20eigen_packet_wrapperIDv2_xLi0EEEEENS0_15unpacket_traitsIT_E4typeERKS6_ DATA
 0002:0002e4dc 00000008H .xdata$_ZN5Eigen8internal15redux_evaluatorINS_3MapIKNS_6MatrixIiLin1ELi1ELi0ELin1ELi1EEELi0ENS_6StrideILi0ELi0EEEEEED2Ev DATA
 0002:0002e4e4 00000008H .xdata$_ZN5Eigen8internal9evaluatorINS_3MapIKNS_6MatrixIiLin1ELi1ELi0ELin1ELi1EEELi0ENS_6StrideILi0ELi0EEEEEED2Ev DATA
 0002:0002e4ec 00000008H .xdata$_ZN5Eigen8internal17mapbase_evaluatorINS_3MapIKNS_6MatrixIiLin1ELi1ELi0ELin1ELi1EEELi0ENS_6StrideILi0ELi0EEEEES5_ED2Ev DATA
 0002:0002e4f4 00000008H .xdata$_ZN5Eigen8internal13scalar_sum_opIiiEC2Ev DATA
 0002:0002e4fc 00000008H .xdata$_ZNK5Eigen8internal17CompressedStorageIdiE8indexPtrEv DATA
 0002:0002e504 00000008H .xdata$_ZNK5Eigen8internal17CompressedStorageIdiE8valuePtrEv DATA
 0002:0002e50c 00000008H .xdata$_ZN5Eigen13SparseMapBaseINS_3RefIKNS_12SparseMatrixIdLi0EiEELi0ENS_11OuterStrideILin1EEEEELi0EEC2ExxPKiPKd DATA
 0002:0002e514 00000008H .xdata$_ZN5Eigen15PlainObjectBaseINS_5ArrayIiLi2ELi1ELi0ELi2ELi1EEEE4dataEv DATA
 0002:0002e51c 00000008H .xdata$_ZN5Eigen13SparseMapBaseINS_3RefIKNS_12SparseMatrixIdLi0EiEELi0ENS_11OuterStrideILin1EEEEELi0EED2Ev DATA
 0002:0002e524 00000020H .xdata$_ZN5Eigen12SparseMatrixIdLi0EiED2Ev DATA
 0002:0002e544 00000028H .xdata$_ZN5Eigen13IncompleteLUTIdiEC2Ev DATA
 0002:0002e56c 00000008H .xdata$_ZN5Eigen16SparseSolverBaseINS_13IncompleteLUTIdiEEEC2Ev DATA
 0002:0002e574 00000008H .xdata$_ZN5Eigen12SparseMatrixIdLi1EiEC1Ev DATA
 0002:0002e57c 00000008H .xdata$_ZN5Eigen17PermutationMatrixILin1ELin1EiEC1Ev DATA
 0002:0002e584 00000008H .xdata$_ZN5Eigen17PermutationMatrixILin1ELin1EiED1Ev DATA
 0002:0002e58c 00000008H .xdata$_ZN5Eigen16SparseSolverBaseINS_13IncompleteLUTIdiEEED2Ev DATA
 0002:0002e594 0000001cH .xdata$_ZN5Eigen12SparseMatrixIdLi1EiEC2Ev DATA
 0002:0002e5b0 00000008H .xdata$_ZN5Eigen17PermutationMatrixILin1ELin1EiEC2Ev DATA
 0002:0002e5b8 00000008H .xdata$_ZN5Eigen6MatrixIiLin1ELi1ELi0ELin1ELi1EEC1Ev DATA
 0002:0002e5c0 00000008H .xdata$_ZN5Eigen6MatrixIiLin1ELi1ELi0ELin1ELi1EEC2Ev DATA
 0002:0002e5c8 00000008H .xdata$_ZN5Eigen15PlainObjectBaseINS_6MatrixIiLin1ELi1ELi0ELin1ELi1EEEEC2Ev DATA
 0002:0002e5d0 00000008H .xdata$_ZN5Eigen10MatrixBaseINS_6MatrixIiLin1ELi1ELi0ELin1ELi1EEEEC2Ev DATA
 0002:0002e5d8 00000008H .xdata$_ZN5Eigen12DenseStorageIiLin1ELin1ELi1ELi0EEC1Ev DATA
 0002:0002e5e0 00000008H .xdata$_ZN5Eigen9DenseBaseINS_6MatrixIiLin1ELi1ELi0ELin1ELi1EEEEC2Ev DATA
 0002:0002e5e8 00000008H .xdata$_ZN5Eigen12DenseStorageIiLin1ELin1ELi1ELi0EEC2Ev DATA
 0002:0002e5f0 00000008H .xdata$_ZN5Eigen17PermutationMatrixILin1ELin1EiED2Ev DATA
 0002:0002e5f8 00000008H .xdata$_ZN5Eigen6MatrixIiLin1ELi1ELi0ELin1ELi1EED1Ev DATA
 0002:0002e600 00000008H .xdata$_ZN5Eigen6MatrixIiLin1ELi1ELi0ELin1ELi1EED2Ev DATA
 0002:0002e608 00000008H .xdata$_ZN5Eigen15PlainObjectBaseINS_6MatrixIiLin1ELi1ELi0ELin1ELi1EEEED2Ev DATA
 0002:0002e610 00000008H .xdata$_ZN5Eigen12DenseStorageIiLin1ELin1ELi1ELi0EED1Ev DATA
 0002:0002e618 00000020H .xdata$_ZN5Eigen12DenseStorageIiLin1ELin1ELi1ELi0EED2Ev DATA
 0002:0002e638 00000008H .xdata$_ZN5Eigen8internal31conditional_aligned_delete_autoIiLb1EEEvPT_y DATA
 0002:0002e640 00000008H .xdata$_ZN5Eigen8internal24conditional_aligned_freeILb1EEEvPv DATA
 0002:0002e648 00000008H .xdata$_ZN5Eigen8internal12aligned_freeEPv DATA
 0002:0002e650 00000008H .xdata$_ZN5Eigen8internal11noncopyableD2Ev DATA
 0002:0002e658 00000008H .xdata$_ZN5Eigen16GenericNumTraitsIdE7epsilonEv DATA
 0002:0002e660 00000008H .xdata$_ZNSt3__114numeric_limitsIdE7epsilonB6v15007Ev DATA
 0002:0002e668 00000008H .xdata$_ZN5Eigen13IncompleteLUTIdiED2Ev DATA
 0002:0002e670 00000008H .xdata$_ZN5Eigen8internal22generic_matrix_wrapperINS_12SparseMatrixIdLi0EiEELb0EED2Ev DATA
 0002:0002e678 00000008H .xdata$_ZN5Eigen3RefIKNS_12SparseMatrixIdLi0EiEELi0ENS_11OuterStrideILin1EEEED1Ev DATA
 0002:0002e680 00000008H .xdata$_ZN5Eigen3RefIKNS_12SparseMatrixIdLi0EiEELi0ENS_11OuterStrideILin1EEEED2Ev DATA
 0002:0002e688 00000008H .xdata$_ZN5Eigen16SparseSolverBaseINS_8BiCGSTABINS_12SparseMatrixIdLi0EiEENS_13IncompleteLUTIdiEEEEE7derivedEv DATA
 0002:0002e690 00000008H .xdata$_ZNK5Eigen20SparseCompressedBaseINS_12SparseMatrixIdLi1EiEEE12isCompressedEv DATA
 0002:0002e698 00000008H .xdata$_ZN5Eigen8internal17CompressedStorageIdiE7reserveEx DATA
 0002:0002e6a0 00000008H .xdata$_ZNK5Eigen20SparseCompressedBaseINS_12SparseMatrixIdLi1EiEEE15innerNonZeroPtrEv DATA
 0002:0002e6a8 00000008H .xdata$_ZNK5Eigen16SparseMatrixBaseINS_12SparseMatrixIdLi1EiEEE7derivedEv DATA
 0002:0002e6b0 00000008H .xdata$_ZNK5Eigen12SparseMatrixIdLi1EiE15innerNonZeroPtrEv DATA
 0002:0002e6b8 00000024H .xdata$_ZN5Eigen8internal17CompressedStorageIdiE10reallocateEx DATA
 0002:0002e6dc 00000008H .xdata$_ZN5Eigen8internal12scoped_arrayIdEC1Ex DATA
 0002:0002e6e4 00000008H .xdata$_ZN5Eigen8internal12scoped_arrayIiEC1Ex DATA
 0002:0002e6ec 00000008H .xdata$_ZNSt3__13minB6v15007IxEERKT_S3_S3_ DATA
 0002:0002e6f4 00000008H .xdata$_ZN5Eigen8internal10smart_copyIdEEvPKT_S4_PS2_ DATA
 0002:0002e6fc 00000008H .xdata$_ZN5Eigen8internal12scoped_arrayIdE3ptrEv DATA
 0002:0002e704 00000008H .xdata$_ZN5Eigen8internal10smart_copyIiEEvPKT_S4_PS2_ DATA
 0002:0002e70c 00000008H .xdata$_ZN5Eigen8internal12scoped_arrayIiE3ptrEv DATA
 0002:0002e714 00000008H .xdata$_ZNSt3__14swapB6v15007IPdEENS_9enable_ifIXaasr21is_move_constructibleIT_EE5valuesr18is_move_assignableIS3_EE5valueEvE4typeERS3_S6_ DATA
 0002:0002e71c 00000008H .xdata$_ZNSt3__14swapB6v15007IPiEENS_9enable_ifIXaasr21is_move_constructibleIT_EE5valuesr18is_move_assignableIS3_EE5valueEvE4typeERS3_S6_ DATA
 0002:0002e724 00000008H .xdata$_ZN5Eigen8internal12scoped_arrayIiED1Ev DATA
 0002:0002e72c 00000008H .xdata$_ZN5Eigen8internal12scoped_arrayIdED1Ev DATA
 0002:0002e734 00000018H .xdata$_ZN5Eigen8internal12scoped_arrayIdEC2Ex DATA
 0002:0002e74c 00000018H .xdata$_ZN5Eigen8internal12scoped_arrayIiEC2Ex DATA
 0002:0002e764 00000008H .xdata$_ZNSt3__13minB6v15007IxNS_6__lessIxxEEEERKT_S5_S5_T0_ DATA
 0002:0002e76c 00000008H .xdata$_ZNKSt3__16__lessIxxEclB6v15007ERKxS3_ DATA
 0002:0002e774 00000008H .xdata$_ZN5Eigen8internal17smart_copy_helperIdLb1EE3runEPKdS4_Pd DATA
 0002:0002e77c 00000008H .xdata$_ZN5Eigen8internal17smart_copy_helperIiLb1EE3runEPKiS4_Pi DATA
 0002:0002e784 00000008H .xdata$_ZN5Eigen8internal12scoped_arrayIiED2Ev DATA
 0002:0002e78c 00000008H .xdata$_ZN5Eigen8internal12scoped_arrayIdED2Ev DATA
 0002:0002e794 00000030H .xdata$_ZN5Eigen8internal17set_from_tripletsINSt3__111__wrap_iterIPNS_7TripletIdiEEEENS_12SparseMatrixIdLi1EiEENS0_13scalar_sum_opIddEEEEvRKT_SE_RT0_T1_ DATA
 0002:0002e7c4 00000008H .xdata$_ZN5Eigen8internal13scalar_sum_opIddEC1Ev DATA
 0002:0002e7cc 00000008H .xdata$_ZNK5Eigen12SparseMatrixIdLi1EiE4rowsEv DATA
 0002:0002e7d4 00000008H .xdata$_ZNK5Eigen12SparseMatrixIdLi1EiE4colsEv DATA
 0002:0002e7dc 00000008H .xdata$_ZNSt3__1neB6v15007IPN5Eigen7TripletIdiEEEEbRKNS_11__wrap_iterIT_EES9_ DATA
 0002:0002e7e4 00000008H .xdata$_ZN5Eigen6MatrixIiLin1ELi1ELi0ELin1ELi1EEC1IxEERKT_ DATA
 0002:0002e7ec 00000008H .xdata$_ZN5Eigen9DenseBaseINS_6MatrixIiLin1ELi1ELi0ELin1ELi1EEEE7setZeroEv DATA
 0002:0002e7f4 00000008H .xdata$_ZNKSt3__111__wrap_iterIPN5Eigen7TripletIdiEEEptB6v15007Ev DATA
 0002:0002e7fc 00000008H .xdata$_ZNK5Eigen7TripletIdiE3rowEv DATA
 0002:0002e804 00000008H .xdata$_ZNK5Eigen7TripletIdiE3colEv DATA
 0002:0002e80c 00000008H .xdata$_ZN5Eigen15DenseCoeffsBaseINS_6MatrixIiLin1ELi1ELi0ELin1ELi1EEELi1EEclEx DATA
 0002:0002e814 00000008H .xdata$_ZNSt3__111__wrap_iterIPN5Eigen7TripletIdiEEEppB6v15007Ev DATA
 0002:0002e81c 00000008H .xdata$_ZN5Eigen12SparseMatrixIdLi0EiE7reserveINS_6MatrixIiLin1ELi1ELi0ELin1ELi1EEEEEvRKT_RKNS5_10value_typeE DATA
 0002:0002e824 00000008H .xdata$_ZNK5Eigen7TripletIdiE5valueEv DATA
 0002:0002e82c 00000008H .xdata$_ZN5Eigen12SparseMatrixIdLi0EiE22insertBackUncompressedExx DATA
 0002:0002e834 00000024H .xdata$_ZN5Eigen12SparseMatrixIdLi0EiE18collapseDuplicatesINS_8internal13scalar_sum_opIddEEEEvT_ DATA
 0002:0002e858 00000008H .xdata$_ZN5Eigen8internal13scalar_sum_opIddEC1ERKS2_ DATA
 0002:0002e860 0000002cH .xdata$_ZN5Eigen12SparseMatrixIdLi1EiEaSINS0_IdLi0EiEEEERS1_RKNS_16SparseMatrixBaseIT_EE DATA
 0002:0002e88c 00000008H .xdata$_ZNSt3__1eqB6v15007IPN5Eigen7TripletIdiEEEEbRKNS_11__wrap_iterIT_EES9_ DATA
 0002:0002e894 00000008H .xdata$_ZNKSt3__111__wrap_iterIPN5Eigen7TripletIdiEEE4baseB6v15007Ev DATA
 0002:0002e89c 0000001cH .xdata$_ZN5Eigen6MatrixIiLin1ELi1ELi0ELin1ELi1EEC2IxEERKT_ DATA
 0002:0002e8b8 00000008H .xdata$_ZN5Eigen15PlainObjectBaseINS_6MatrixIiLin1ELi1ELi0ELin1ELi1EEEE6_init1IxEEvxPNS_8internal9enable_ifIXaaooneLNS_9DenseBaseIS2_EUt_En1ELi1Entsr8internal14is_convertibleIT_iEE5valueoontLNS5_7is_sameINS_9MatrixXprENS_8ArrayXprEEUt_E0EeqLS9_n1EL_ZNS_L7DynamicEEESA_E4typeE DATA
 0002:0002e8c0 00000008H .xdata$_ZN5Eigen8internal22ignore_unused_variableIbEEvRKT_ DATA
 0002:0002e8c8 00000008H .xdata$_ZN5Eigen15PlainObjectBaseINS_6MatrixIiLin1ELi1ELi0ELin1ELi1EEEE6resizeEx DATA
 0002:0002e8d0 00000008H .xdata$_ZN5Eigen12DenseStorageIiLin1ELin1ELi1ELi0EE6resizeExxx DATA
 0002:0002e8d8 00000008H .xdata$_ZN5Eigen8internal28conditional_aligned_new_autoIiLb1EEEPT_y DATA
 0002:0002e8e0 00000008H .xdata$_ZN5Eigen8internal26conditional_aligned_mallocILb1EEEPvy DATA
 0002:0002e8e8 00000008H .xdata$_ZN5Eigen8internal14aligned_mallocEy DATA
 0002:0002e8f0 00000008H .xdata$_ZN5Eigen9DenseBaseINS_6MatrixIiLin1ELi1ELi0ELin1ELi1EEEE11setConstantERKi DATA
 0002:0002e8f8 00000008H .xdata$_ZN5Eigen9DenseBaseINS_6MatrixIiLin1ELi1ELi0ELin1ELi1EEEE8ConstantExxRKi DATA
 0002:0002e900 00000020H .xdata$_ZNK5Eigen9EigenBaseINS_6MatrixIiLin1ELi1ELi0ELin1ELi1EEEE4rowsEv DATA
 0002:0002e920 00000008H .xdata$_ZNK5Eigen9EigenBaseINS_6MatrixIiLin1ELi1ELi0ELin1ELi1EEEE4colsEv DATA
 0002:0002e928 00000008H .xdata$_ZN5Eigen9EigenBaseINS_6MatrixIiLin1ELi1ELi0ELin1ELi1EEEE7derivedEv DATA
 0002:0002e930 00000008H .xdata$_ZN5Eigen6MatrixIiLin1ELi1ELi0ELin1ELi1EEaSINS_14CwiseNullaryOpINS_8internal18scalar_constant_opIiEES1_EEEERS1_RKNS_9DenseBaseIT_EE DATA
 0002:0002e938 00000008H .xdata$_ZN5Eigen9DenseBaseINS_6MatrixIiLin1ELi1ELi0ELin1ELi1EEEE11NullaryExprINS_8internal18scalar_constant_opIiEEEEKNS_14CwiseNullaryOpIT_S2_EExxRKS9_ DATA
 0002:0002e940 00000008H .xdata$_ZN5Eigen8internal18scalar_constant_opIiEC1ERKi DATA
 0002:0002e948 00000008H .xdata$_ZN5Eigen14CwiseNullaryOpINS_8internal18scalar_constant_opIiEENS_6MatrixIiLin1ELi1ELi0ELin1ELi1EEEEC1ExxRKS3_ DATA
 0002:0002e950 00000008H .xdata$_ZN5Eigen14CwiseNullaryOpINS_8internal18scalar_constant_opIiEENS_6MatrixIiLin1ELi1ELi0ELin1ELi1EEEEC2ExxRKS3_ DATA
 0002:0002e958 00000008H .xdata$_ZN5Eigen10MatrixBaseINS_14CwiseNullaryOpINS_8internal18scalar_constant_opIiEENS_6MatrixIiLin1ELi1ELi0ELin1ELi1EEEEEEC2Ev DATA
 0002:0002e960 00000008H .xdata$_ZN5Eigen8internal18scalar_constant_opIiEC1ERKS2_ DATA
 0002:0002e968 00000008H .xdata$_ZN5Eigen9DenseBaseINS_14CwiseNullaryOpINS_8internal18scalar_constant_opIiEENS_6MatrixIiLin1ELi1ELi0ELin1ELi1EEEEEEC2Ev DATA
 0002:0002e970 00000008H .xdata$_ZN5Eigen8internal18scalar_constant_opIiEC2ERKS2_ DATA
 0002:0002e978 00000008H .xdata$_ZN5Eigen8internal18scalar_constant_opIiEC2ERKi DATA
 0002:0002e980 00000008H .xdata$_ZNK5Eigen9EigenBaseINS_6MatrixIiLin1ELi1ELi0ELin1ELi1EEEE7derivedEv DATA
 0002:0002e988 00000008H .xdata$_ZNK5Eigen15PlainObjectBaseINS_6MatrixIiLin1ELi1ELi0ELin1ELi1EEEE4rowsEv DATA
 0002:0002e990 00000008H .xdata$_ZNK5Eigen12DenseStorageIiLin1ELin1ELi1ELi0EE4rowsEv DATA
 0002:0002e998 00000020H .xdata$_ZNK5Eigen15PlainObjectBaseINS_6MatrixIiLin1ELi1ELi0ELin1ELi1EEEE4colsEv DATA
 0002:0002e9b8 00000008H .xdata$_ZN5Eigen15PlainObjectBaseINS_6MatrixIiLin1ELi1ELi0ELin1ELi1EEEE4_setINS_14CwiseNullaryOpINS_8internal18scalar_constant_opIiEES2_EEEERS2_RKNS_9DenseBaseIT_EE DATA
 0002:0002e9c0 00000008H .xdata$_ZN5Eigen8internal15call_assignmentINS_6MatrixIiLin1ELi1ELi0ELin1ELi1EEENS_14CwiseNullaryOpINS0_18scalar_constant_opIiEES3_EEEEvRT_RKT0_ DATA
 0002:0002e9c8 00000008H .xdata$_ZNK5Eigen9EigenBaseINS_14CwiseNullaryOpINS_8internal18scalar_constant_opIiEENS_6MatrixIiLin1ELi1ELi0ELin1ELi1EEEEEE7derivedEv DATA
 0002:0002e9d0 00000008H .xdata$_ZN5Eigen8internal15call_assignmentINS_6MatrixIiLin1ELi1ELi0ELin1ELi1EEENS_14CwiseNullaryOpINS0_18scalar_constant_opIiEES3_EENS0_9assign_opIiiEEEEvRT_RKT0_RKT1_NS0_9enable_ifIXntsr25evaluator_assume_aliasingISC_EE5valueEPvE4typeE DATA
 0002:0002e9d8 00000008H .xdata$_ZN5Eigen8internal9assign_opIiiEC1Ev DATA
 0002:0002e9e0 00000008H .xdata$_ZN5Eigen8internal24call_assignment_no_aliasINS_6MatrixIiLin1ELi1ELi0ELin1ELi1EEENS_14CwiseNullaryOpINS0_18scalar_constant_opIiEES3_EENS0_9assign_opIiiEEEEvRT_RKT0_RKT1_ DATA
 0002:0002e9e8 00000008H .xdata$_ZN5Eigen8internal10AssignmentINS_6MatrixIiLin1ELi1ELi0ELin1ELi1EEENS_14CwiseNullaryOpINS0_18scalar_constant_opIiEES3_EENS0_9assign_opIiiEENS0_11Dense2DenseEvE3runERS3_RKS7_RKS9_ DATA
 0002:0002e9f0 00000008H .xdata$_ZN5Eigen8internal18check_for_aliasingINS_6MatrixIiLin1ELi1ELi0ELin1ELi1EEENS_14CwiseNullaryOpINS0_18scalar_constant_opIiEES3_EEEEvRKT_RKT0_ DATA
 0002:0002e9f8 00000008H .xdata$_ZN5Eigen8internal26call_dense_assignment_loopINS_6MatrixIiLin1ELi1ELi0ELin1ELi1EEEEEvRT_RKNS_14CwiseNullaryOpINS0_18scalar_constant_opINS4_6ScalarEEES4_EERKNS0_9assign_opIS8_S8_EE DATA
 0002:0002ea00 00000008H .xdata$_ZN5Eigen8internal17resize_if_allowedINS_6MatrixIiLin1ELi1ELi0ELin1ELi1EEENS_14CwiseNullaryOpINS0_18scalar_constant_opIiEES3_EEiiEEvRT_RKT0_RKNS0_9assign_opIT1_T2_EE DATA
 0002:0002ea08 00000008H .xdata$_ZNSt3__16fill_nB6v15007IPixiEET_S2_T0_RKT1_ DATA
 0002:0002ea10 00000008H .xdata$_ZN5Eigen15PlainObjectBaseINS_6MatrixIiLin1ELi1ELi0ELin1ELi1EEEE4dataEv DATA
 0002:0002ea18 00000008H .xdata$_ZNK5Eigen9EigenBaseINS_6MatrixIiLin1ELi1ELi0ELin1ELi1EEEE4sizeEv DATA
 0002:0002ea20 00000008H .xdata$_ZNK5Eigen14CwiseNullaryOpINS_8internal18scalar_constant_opIiEENS_6MatrixIiLin1ELi1ELi0ELin1ELi1EEEE7functorEv DATA
 0002:0002ea28 00000008H .xdata$_ZNK5Eigen8internal18scalar_constant_opIiEclEv DATA
 0002:0002ea30 00000008H .xdata$_ZNK5Eigen14CwiseNullaryOpINS_8internal18scalar_constant_opIiEENS_6MatrixIiLin1ELi1ELi0ELin1ELi1EEEE4rowsEv DATA
 0002:0002ea38 00000008H .xdata$_ZNK5Eigen14CwiseNullaryOpINS_8internal18scalar_constant_opIiEENS_6MatrixIiLin1ELi1ELi0ELin1ELi1EEEE4colsEv DATA
 0002:0002ea40 00000008H .xdata$_ZN5Eigen15PlainObjectBaseINS_6MatrixIiLin1ELi1ELi0ELin1ELi1EEEE6resizeExx DATA
 0002:0002ea48 00000008H .xdata$_ZNSt3__18__fill_nB6v15007IPixiEET_S2_T0_RKT1_ DATA
 0002:0002ea50 00000008H .xdata$_ZNSt3__121__convert_to_integralB6v15007Ex DATA
 0002:0002ea58 00000008H .xdata$_ZN5Eigen12DenseStorageIiLin1ELin1ELi1ELi0EE4dataEv DATA
 0002:0002ea60 00000008H .xdata$_ZN5Eigen8internal9assign_opIiiEC2Ev DATA
 0002:0002ea68 0000001cH .xdata$_ZN5Eigen15DenseCoeffsBaseINS_6MatrixIiLin1ELi1ELi0ELin1ELi1EEELi1EE8coeffRefEx DATA
 0002:0002ea84 00000008H .xdata$_ZN5Eigen8internal9evaluatorINS_6MatrixIiLin1ELi1ELi0ELin1ELi1EEEEC1ERKS3_ DATA
 0002:0002ea8c 00000008H .xdata$_ZN5Eigen8internal9evaluatorINS_15PlainObjectBaseINS_6MatrixIiLin1ELi1ELi0ELin1ELi1EEEEEE8coeffRefEx DATA
 0002:0002ea94 00000008H .xdata$_ZN5Eigen8internal9evaluatorINS_6MatrixIiLin1ELi1ELi0ELin1ELi1EEEED1Ev DATA
 0002:0002ea9c 00000008H .xdata$_ZN5Eigen8internal9evaluatorINS_6MatrixIiLin1ELi1ELi0ELin1ELi1EEEEC2ERKS3_ DATA
 0002:0002eaa4 00000018H .xdata$_ZN5Eigen8internal9evaluatorINS_15PlainObjectBaseINS_6MatrixIiLin1ELi1ELi0ELin1ELi1EEEEEEC2ERKS5_ DATA
 0002:0002eabc 00000008H .xdata$_ZN5Eigen8internal14evaluator_baseINS_6MatrixIiLin1ELi1ELi0ELin1ELi1EEEEC2Ev DATA
 0002:0002eac4 00000008H .xdata$_ZNK5Eigen15PlainObjectBaseINS_6MatrixIiLin1ELi1ELi0ELin1ELi1EEEE4dataEv DATA
 0002:0002eacc 00000008H .xdata$_ZN5Eigen8internal30plainobjectbase_evaluator_dataIiLi0EEC1EPKix DATA
 0002:0002ead4 00000008H .xdata$_ZN5Eigen8internal14evaluator_baseINS_6MatrixIiLin1ELi1ELi0ELin1ELi1EEEED2Ev DATA
 0002:0002eadc 00000008H .xdata$_ZNK5Eigen12DenseStorageIiLin1ELin1ELi1ELi0EE4dataEv DATA
 0002:0002eae4 00000008H .xdata$_ZN5Eigen8internal30plainobjectbase_evaluator_dataIiLi0EEC2EPKix DATA
 0002:0002eaec 00000008H .xdata$_ZN5Eigen8internal22ignore_unused_variableIxEEvRKT_ DATA
 0002:0002eaf4 00000008H .xdata$_ZN5Eigen8internal9evaluatorINS_6MatrixIiLin1ELi1ELi0ELin1ELi1EEEED2Ev DATA
 0002:0002eafc 00000008H .xdata$_ZN5Eigen8internal9evaluatorINS_15PlainObjectBaseINS_6MatrixIiLin1ELi1ELi0ELin1ELi1EEEEEED2Ev DATA
 0002:0002eb04 00000008H .xdata$_ZN5Eigen12SparseMatrixIdLi0EiE19reserveInnerVectorsINS_6MatrixIiLin1ELi1ELi0ELin1ELi1EEEEEvRKT_ DATA
 0002:0002eb0c 00000008H .xdata$_ZNK5Eigen15DenseCoeffsBaseINS_6MatrixIiLin1ELi1ELi0ELin1ELi1EEELi0EEixEx DATA
 0002:0002eb14 00000008H .xdata$_ZN5Eigen8internal17CompressedStorageIdiE5indexEx DATA
 0002:0002eb1c 00000008H .xdata$_ZN5Eigen8internal17CompressedStorageIdiE5valueEx DATA
 0002:0002eb24 00000008H .xdata$_ZN5Eigen8internal17CompressedStorageIdiE6resizeExd DATA
 0002:0002eb2c 00000008H .xdata$_ZNSt3__13maxB6v15007IiEERKT_S3_S3_ DATA
 0002:0002eb34 0000001cH .xdata$_ZNK5Eigen15DenseCoeffsBaseINS_6MatrixIiLin1ELi1ELi0ELin1ELi1EEELi0EE5coeffEx DATA
 0002:0002eb50 00000008H .xdata$_ZNK5Eigen8internal9evaluatorINS_15PlainObjectBaseINS_6MatrixIiLin1ELi1ELi0ELin1ELi1EEEEEE5coeffEx DATA
 0002:0002eb58 00000008H .xdata$_ZN5Eigen16GenericNumTraitsIiE7highestEv DATA
 0002:0002eb60 00000008H .xdata$_ZNSt3__114numeric_limitsIiE3maxB6v15007Ev DATA
 0002:0002eb68 00000008H .xdata$_ZNSt3__13maxB6v15007IiNS_6__lessIiiEEEERKT_S5_S5_T0_ DATA
 0002:0002eb70 00000008H .xdata$_ZNKSt3__16__lessIiiEclB6v15007ERKiS3_ DATA
 0002:0002eb78 00000008H .xdata$_ZN5Eigen16SparseMatrixBaseINS_12SparseMatrixIdLi0EiEEE13convert_indexEx DATA
 0002:0002eb80 00000008H .xdata$_ZNK5Eigen12SparseMatrixIdLi0EiE9innerSizeEv DATA
 0002:0002eb88 00000008H .xdata$_ZN5Eigen9DenseBaseINS_6MatrixIiLin1ELi1ELi0ELin1ELi1EEEE4fillERKi DATA
 0002:0002eb90 00000008H .xdata$_ZNK5Eigen8internal13scalar_sum_opIddEclERKdS4_ DATA
 0002:0002eb98 00000008H .xdata$_ZN5Eigen8internal13scalar_sum_opIddEC2ERKS2_ DATA
 0002:0002eba0 00000008H .xdata$_ZN5Eigen8internal9evaluatorINS_12SparseMatrixIdLi0EiEEEC1ERKS3_ DATA
 0002:0002eba8 00000008H .xdata$_ZNK5Eigen12SparseMatrixIdLi1EiE9outerSizeEv DATA
 0002:0002ebb0 00000008H .xdata$_ZN5Eigen3MapINS_6MatrixIiLin1ELi1ELi0ELin1ELi1EEELi0ENS_6StrideILi0ELi0EEEEC1EPixRKS4_ DATA
 0002:0002ebb8 00000008H .xdata$_ZN5Eigen9DenseBaseINS_3MapINS_6MatrixIiLin1ELi1ELi0ELin1ELi1EEELi0ENS_6StrideILi0ELi0EEEEEE7setZeroEv DATA
 0002:0002ebc0 00000008H .xdata$_ZN5Eigen8internal9evaluatorINS_20SparseCompressedBaseINS_12SparseMatrixIdLi0EiEEEEEcvRS4_Ev DATA
 0002:0002ebc8 00000008H .xdata$_ZN5Eigen20SparseCompressedBaseINS_12SparseMatrixIdLi0EiEEE13InnerIteratorC1ERKS3_x DATA
 0002:0002ebd0 00000008H .xdata$_ZNK5Eigen20SparseCompressedBaseINS_12SparseMatrixIdLi0EiEEE13InnerIteratorcvbEv DATA
 0002:0002ebd8 00000008H .xdata$_ZNK5Eigen20SparseCompressedBaseINS_12SparseMatrixIdLi0EiEEE13InnerIterator5indexEv DATA
 0002:0002ebe0 00000008H .xdata$_ZN5Eigen20SparseCompressedBaseINS_12SparseMatrixIdLi0EiEEE13InnerIteratorppEv DATA
 0002:0002ebe8 00000008H .xdata$_ZN5Eigen15DenseCoeffsBaseINS_6MatrixIiLin1ELi1ELi0ELin1ELi1EEELi1EEixEx DATA
 0002:0002ebf0 00000008H .xdata$_ZNK5Eigen20SparseCompressedBaseINS_12SparseMatrixIdLi0EiEEE13InnerIterator5valueEv DATA
 0002:0002ebf8 00000008H .xdata$_ZN5Eigen12SparseMatrixIdLi1EiE4swapERS1_ DATA
 0002:0002ec00 00000008H .xdata$_ZN5Eigen8internal9evaluatorINS_12SparseMatrixIdLi0EiEEED1Ev DATA
 0002:0002ec08 00000008H .xdata$_ZN5Eigen8internal9evaluatorINS_12SparseMatrixIdLi0EiEEEC2ERKS3_ DATA
 0002:0002ec10 00000008H .xdata$_ZN5Eigen8internal9evaluatorINS_20SparseCompressedBaseINS_12SparseMatrixIdLi0EiEEEEEC2ERKS4_ DATA
 0002:0002ec18 00000008H .xdata$_ZN5Eigen8internal14evaluator_baseINS_12SparseMatrixIdLi0EiEEEC2Ev DATA
 0002:0002ec20 00000008H .xdata$_ZN5Eigen3MapINS_6MatrixIiLin1ELi1ELi0ELin1ELi1EEELi0ENS_6StrideILi0ELi0EEEEC2EPixRKS4_ DATA
 0002:0002ec28 00000008H .xdata$_ZN5Eigen3MapINS_6MatrixIiLin1ELi1ELi0ELin1ELi1EEELi0ENS_6StrideILi0ELi0EEEE20cast_to_pointer_typeEPi DATA
 0002:0002ec30 00000008H .xdata$_ZN5Eigen7MapBaseINS_3MapINS_6MatrixIiLin1ELi1ELi0ELin1ELi1EEELi0ENS_6StrideILi0ELi0EEEEELi1EEC2EPix DATA
 0002:0002ec38 00000008H .xdata$_ZN5Eigen7MapBaseINS_3MapINS_6MatrixIiLin1ELi1ELi0ELin1ELi1EEELi0ENS_6StrideILi0ELi0EEEEELi0EEC2EPix DATA
